C000  4C F5 C5  JMP $C5F5                        A:00 X:00 Y:00 P:04 S:FD PPU:0  ,27  8
C5F5  A2 00     LDX #$00                         A:00 X:00 Y:00 P:04 S:FD PPU:0  ,36  11
C5F7  86 00     STX $00 = $00                    A:00 X:00 Y:00 P:06 S:FD PPU:0  ,42  13
C5F9  86 10     STX $10 = $00                    A:00 X:00 Y:00 P:06 S:FD PPU:0  ,51  16
C5FB  86 11     STX $11 = $00                    A:00 X:00 Y:00 P:06 S:FD PPU:0  ,60  19
C5FD  20 2D C7  JSR $C72D                        A:00 X:00 Y:00 P:06 S:FD PPU:0  ,69  22
C72D  EA        NOP                              A:00 X:00 Y:00 P:06 S:FB PPU:0  ,87  28
C72E  38        SEC                              A:00 X:00 Y:00 P:06 S:FB PPU:0  ,93  30
C72F  B0 04     BCS $C735                        A:00 X:00 Y:00 P:07 S:FB PPU:0  ,99  32
C735  EA        NOP                              A:00 X:00 Y:00 P:07 S:FB PPU:0  ,108 35
C736  18        CLC                              A:00 X:00 Y:00 P:07 S:FB PPU:0  ,114 37
C737  B0 03     BCS $C73C                        A:00 X:00 Y:00 P:06 S:FB PPU:0  ,120 39
C739  4C 40 C7  JMP $C740                        A:00 X:00 Y:00 P:06 S:FB PPU:0  ,126 41
C740  EA        NOP                              A:00 X:00 Y:00 P:06 S:FB PPU:0  ,135 44
C741  38        SEC                              A:00 X:00 Y:00 P:06 S:FB PPU:0  ,141 46
C742  90 03     BCC $C747                        A:00 X:00 Y:00 P:07 S:FB PPU:0  ,147 48
C744  4C 4B C7  JMP $C74B                        A:00 X:00 Y:00 P:07 S:FB PPU:0  ,153 50
C74B  EA        NOP                              A:00 X:00 Y:00 P:07 S:FB PPU:0  ,162 53
C74C  18        CLC                              A:00 X:00 Y:00 P:07 S:FB PPU:0  ,168 55
C74D  90 04     BCC $C753                        A:00 X:00 Y:00 P:06 S:FB PPU:0  ,174 57
C753  EA        NOP                              A:00 X:00 Y:00 P:06 S:FB PPU:0  ,183 60
C754  A9 00     LDA #$00                         A:00 X:00 Y:00 P:06 S:FB PPU:0  ,189 62
C756  F0 04     BEQ $C75C                        A:00 X:00 Y:00 P:06 S:FB PPU:0  ,195 64
C75C  EA        NOP                              A:00 X:00 Y:00 P:06 S:FB PPU:0  ,204 67
C75D  A9 40     LDA #$40                         A:00 X:00 Y:00 P:06 S:FB PPU:0  ,210 69
C75F  F0 03     BEQ $C764                        A:40 X:00 Y:00 P:04 S:FB PPU:0  ,216 71
C761  4C 68 C7  JMP $C768                        A:40 X:00 Y:00 P:04 S:FB PPU:0  ,222 73
C768  EA        NOP                              A:40 X:00 Y:00 P:04 S:FB PPU:0  ,231 76
C769  A9 40     LDA #$40                         A:40 X:00 Y:00 P:04 S:FB PPU:0  ,237 78
C76B  D0 04     BNE $C771                        A:40 X:00 Y:00 P:04 S:FB PPU:0  ,243 80
C771  EA        NOP                              A:40 X:00 Y:00 P:04 S:FB PPU:0  ,252 83
C772  A9 00     LDA #$00                         A:40 X:00 Y:00 P:04 S:FB PPU:0  ,258 85
C774  D0 03     BNE $C779                        A:00 X:00 Y:00 P:06 S:FB PPU:0  ,264 87
C776  4C 7D C7  JMP $C77D                        A:00 X:00 Y:00 P:06 S:FB PPU:0  ,270 89
C77D  EA        NOP                              A:00 X:00 Y:00 P:06 S:FB PPU:0  ,279 92
C77E  A9 FF     LDA #$FF                         A:00 X:00 Y:00 P:06 S:FB PPU:0  ,285 94
C780  85 01     STA $01 = $00                    A:FF X:00 Y:00 P:84 S:FB PPU:0  ,291 96
C782  24 01     BIT $01 = $FF                    A:FF X:00 Y:00 P:84 S:FB PPU:0  ,300 99
C784  70 04     BVS $C78A                        A:FF X:00 Y:00 P:C4 S:FB PPU:0  ,309 102
C78A  EA        NOP                              A:FF X:00 Y:00 P:C4 S:FB PPU:0  ,318 105
C78B  24 01     BIT $01 = $FF                    A:FF X:00 Y:00 P:C4 S:FB PPU:0  ,324 107
C78D  50 03     BVC $C792                        A:FF X:00 Y:00 P:C4 S:FB PPU:0  ,333 110
C78F  4C 96 C7  JMP $C796                        A:FF X:00 Y:00 P:C4 S:FB PPU:0  ,339 112
C796  EA        NOP                              A:FF X:00 Y:00 P:C4 S:FB PPU:1  ,7   115
C797  A9 00     LDA #$00                         A:FF X:00 Y:00 P:C4 S:FB PPU:1  ,13  117
C799  85 01     STA $01 = $FF                    A:00 X:00 Y:00 P:46 S:FB PPU:1  ,19  119
C79B  24 01     BIT $01 = $00                    A:00 X:00 Y:00 P:46 S:FB PPU:1  ,28  122
C79D  50 04     BVC $C7A3                        A:00 X:00 Y:00 P:06 S:FB PPU:1  ,37  125
C7A3  EA        NOP                              A:00 X:00 Y:00 P:06 S:FB PPU:1  ,46  128
C7A4  24 01     BIT $01 = $00                    A:00 X:00 Y:00 P:06 S:FB PPU:1  ,52  130
C7A6  70 03     BVS $C7AB                        A:00 X:00 Y:00 P:06 S:FB PPU:1  ,61  133
C7A8  4C AF C7  JMP $C7AF                        A:00 X:00 Y:00 P:06 S:FB PPU:1  ,67  135
C7AF  EA        NOP                              A:00 X:00 Y:00 P:06 S:FB PPU:1  ,76  138
C7B0  A9 00     LDA #$00                         A:00 X:00 Y:00 P:06 S:FB PPU:1  ,82  140
C7B2  10 04     BPL $C7B8                        A:00 X:00 Y:00 P:06 S:FB PPU:1  ,88  142
C7B8  EA        NOP                              A:00 X:00 Y:00 P:06 S:FB PPU:1  ,97  145
C7B9  A9 80     LDA #$80                         A:00 X:00 Y:00 P:06 S:FB PPU:1  ,103 147
C7BB  10 03     BPL $C7C0                        A:80 X:00 Y:00 P:84 S:FB PPU:1  ,109 149
C7BD  4C D9 C7  JMP $C7D9                        A:80 X:00 Y:00 P:84 S:FB PPU:1  ,115 151
C7D9  EA        NOP                              A:80 X:00 Y:00 P:84 S:FB PPU:1  ,124 154
C7DA  60        RTS                              A:80 X:00 Y:00 P:84 S:FB PPU:1  ,130 156
C600  20 DB C7  JSR $C7DB                        A:80 X:00 Y:00 P:84 S:FD PPU:1  ,148 162
C7DB  EA        NOP                              A:80 X:00 Y:00 P:84 S:FB PPU:1  ,166 168
C7DC  A9 FF     LDA #$FF                         A:80 X:00 Y:00 P:84 S:FB PPU:1  ,172 170
C7DE  85 01     STA $01 = $00                    A:FF X:00 Y:00 P:84 S:FB PPU:1  ,178 172
C7E0  24 01     BIT $01 = $FF                    A:FF X:00 Y:00 P:84 S:FB PPU:1  ,187 175
C7E2  A9 00     LDA #$00                         A:FF X:00 Y:00 P:C4 S:FB PPU:1  ,196 178
C7E4  38        SEC                              A:00 X:00 Y:00 P:46 S:FB PPU:1  ,202 180
C7E5  78        SEI                              A:00 X:00 Y:00 P:47 S:FB PPU:1  ,208 182
C7E6  F8        SED                              A:00 X:00 Y:00 P:47 S:FB PPU:1  ,214 184
C7E7  08        PHP                              A:00 X:00 Y:00 P:4F S:FB PPU:1  ,220 186
C7E8  68        PLA                              A:00 X:00 Y:00 P:4F S:FA PPU:1  ,229 189
C7E9  29 EF     AND #$EF                         A:7F X:00 Y:00 P:4D S:FB PPU:1  ,241 193
C7EB  C9 6F     CMP #$6F                         A:6F X:00 Y:00 P:4D S:FB PPU:1  ,247 195
C7ED  F0 04     BEQ $C7F3                        A:6F X:00 Y:00 P:4F S:FB PPU:1  ,253 197
C7F3  EA        NOP                              A:6F X:00 Y:00 P:4F S:FB PPU:1  ,262 200
C7F4  A9 40     LDA #$40                         A:6F X:00 Y:00 P:4F S:FB PPU:1  ,268 202
C7F6  85 01     STA $01 = $FF                    A:40 X:00 Y:00 P:4D S:FB PPU:1  ,274 204
C7F8  24 01     BIT $01 = $40                    A:40 X:00 Y:00 P:4D S:FB PPU:1  ,283 207
C7FA  D8        CLD                              A:40 X:00 Y:00 P:4D S:FB PPU:1  ,292 210
C7FB  A9 10     LDA #$10                         A:40 X:00 Y:00 P:45 S:FB PPU:1  ,298 212
C7FD  18        CLC                              A:10 X:00 Y:00 P:45 S:FB PPU:1  ,304 214
C7FE  08        PHP                              A:10 X:00 Y:00 P:44 S:FB PPU:1  ,310 216
C7FF  68        PLA                              A:10 X:00 Y:00 P:44 S:FA PPU:1  ,319 219
C800  29 EF     AND #$EF                         A:74 X:00 Y:00 P:44 S:FB PPU:1  ,331 223
C802  C9 64     CMP #$64                         A:64 X:00 Y:00 P:44 S:FB PPU:1  ,337 225
C804  F0 04     BEQ $C80A                        A:64 X:00 Y:00 P:47 S:FB PPU:2  ,2   227
C80A  EA        NOP                              A:64 X:00 Y:00 P:47 S:FB PPU:2  ,11  230
C80B  A9 80     LDA #$80                         A:64 X:00 Y:00 P:47 S:FB PPU:2  ,17  232
C80D  85 01     STA $01 = $40                    A:80 X:00 Y:00 P:C5 S:FB PPU:2  ,23  234
C80F  24 01     BIT $01 = $80                    A:80 X:00 Y:00 P:C5 S:FB PPU:2  ,32  237
C811  F8        SED                              A:80 X:00 Y:00 P:85 S:FB PPU:2  ,41  240
C812  A9 00     LDA #$00                         A:80 X:00 Y:00 P:8D S:FB PPU:2  ,47  242
C814  38        SEC                              A:00 X:00 Y:00 P:0F S:FB PPU:2  ,53  244
C815  08        PHP                              A:00 X:00 Y:00 P:0F S:FB PPU:2  ,59  246
C816  68        PLA                              A:00 X:00 Y:00 P:0F S:FA PPU:2  ,68  249
C817  29 EF     AND #$EF                         A:3F X:00 Y:00 P:0D S:FB PPU:2  ,80  253
C819  C9 2F     CMP #$2F                         A:2F X:00 Y:00 P:0D S:FB PPU:2  ,86  255
C81B  F0 04     BEQ $C821                        A:2F X:00 Y:00 P:0F S:FB PPU:2  ,92  257
C821  EA        NOP                              A:2F X:00 Y:00 P:0F S:FB PPU:2  ,101 260
C822  A9 FF     LDA #$FF                         A:2F X:00 Y:00 P:0F S:FB PPU:2  ,107 262
C824  48        PHA                              A:FF X:00 Y:00 P:8D S:FB PPU:2  ,113 264
C825  28        PLP                              A:FF X:00 Y:00 P:8D S:FA PPU:2  ,122 267
C826  D0 09     BNE $C831                        A:FF X:00 Y:00 P:CF S:FB PPU:2  ,134 271
C828  10 07     BPL $C831                        A:FF X:00 Y:00 P:CF S:FB PPU:2  ,140 273
C82A  50 05     BVC $C831                        A:FF X:00 Y:00 P:CF S:FB PPU:2  ,146 275
C82C  90 03     BCC $C831                        A:FF X:00 Y:00 P:CF S:FB PPU:2  ,152 277
C82E  4C 35 C8  JMP $C835                        A:FF X:00 Y:00 P:CF S:FB PPU:2  ,158 279
C835  EA        NOP                              A:FF X:00 Y:00 P:CF S:FB PPU:2  ,167 282
C836  A9 04     LDA #$04                         A:FF X:00 Y:00 P:CF S:FB PPU:2  ,173 284
C838  48        PHA                              A:04 X:00 Y:00 P:4D S:FB PPU:2  ,179 286
C839  28        PLP                              A:04 X:00 Y:00 P:4D S:FA PPU:2  ,188 289
C83A  F0 09     BEQ $C845                        A:04 X:00 Y:00 P:04 S:FB PPU:2  ,200 293
C83C  30 07     BMI $C845                        A:04 X:00 Y:00 P:04 S:FB PPU:2  ,206 295
C83E  70 05     BVS $C845                        A:04 X:00 Y:00 P:04 S:FB PPU:2  ,212 297
C840  B0 03     BCS $C845                        A:04 X:00 Y:00 P:04 S:FB PPU:2  ,218 299
C842  4C 49 C8  JMP $C849                        A:04 X:00 Y:00 P:04 S:FB PPU:2  ,224 301
C849  EA        NOP                              A:04 X:00 Y:00 P:04 S:FB PPU:2  ,233 304
C84A  F8        SED                              A:04 X:00 Y:00 P:04 S:FB PPU:2  ,239 306
C84B  A9 FF     LDA #$FF                         A:04 X:00 Y:00 P:0C S:FB PPU:2  ,245 308
C84D  85 01     STA $01 = $80                    A:FF X:00 Y:00 P:8C S:FB PPU:2  ,251 310
C84F  24 01     BIT $01 = $FF                    A:FF X:00 Y:00 P:8C S:FB PPU:2  ,260 313
C851  18        CLC                              A:FF X:00 Y:00 P:CC S:FB PPU:2  ,269 316
C852  A9 00     LDA #$00                         A:FF X:00 Y:00 P:CC S:FB PPU:2  ,275 318
C854  48        PHA                              A:00 X:00 Y:00 P:4E S:FB PPU:2  ,281 320
C855  A9 FF     LDA #$FF                         A:00 X:00 Y:00 P:4E S:FA PPU:2  ,290 323
C857  68        PLA                              A:FF X:00 Y:00 P:CC S:FA PPU:2  ,296 325
C858  D0 09     BNE $C863                        A:00 X:00 Y:00 P:4E S:FB PPU:2  ,308 329
C85A  30 07     BMI $C863                        A:00 X:00 Y:00 P:4E S:FB PPU:2  ,314 331
C85C  50 05     BVC $C863                        A:00 X:00 Y:00 P:4E S:FB PPU:2  ,320 333
C85E  B0 03     BCS $C863                        A:00 X:00 Y:00 P:4E S:FB PPU:2  ,326 335
C860  4C 67 C8  JMP $C867                        A:00 X:00 Y:00 P:4E S:FB PPU:2  ,332 337
C867  EA        NOP                              A:00 X:00 Y:00 P:4E S:FB PPU:3  ,0   340
C868  A9 00     LDA #$00                         A:00 X:00 Y:00 P:4E S:FB PPU:3  ,6   342
C86A  85 01     STA $01 = $FF                    A:00 X:00 Y:00 P:4E S:FB PPU:3  ,12  344
C86C  24 01     BIT $01 = $00                    A:00 X:00 Y:00 P:4E S:FB PPU:3  ,21  347
C86E  38        SEC                              A:00 X:00 Y:00 P:0E S:FB PPU:3  ,30  350
C86F  A9 FF     LDA #$FF                         A:00 X:00 Y:00 P:0F S:FB PPU:3  ,36  352
C871  48        PHA                              A:FF X:00 Y:00 P:8D S:FB PPU:3  ,42  354
C872  A9 00     LDA #$00                         A:FF X:00 Y:00 P:8D S:FA PPU:3  ,51  357
C874  68        PLA                              A:00 X:00 Y:00 P:0F S:FA PPU:3  ,57  359
C875  F0 09     BEQ $C880                        A:FF X:00 Y:00 P:8D S:FB PPU:3  ,69  363
C877  10 07     BPL $C880                        A:FF X:00 Y:00 P:8D S:FB PPU:3  ,75  365
C879  70 05     BVS $C880                        A:FF X:00 Y:00 P:8D S:FB PPU:3  ,81  367
C87B  90 03     BCC $C880                        A:FF X:00 Y:00 P:8D S:FB PPU:3  ,87  369
C87D  4C 84 C8  JMP $C884                        A:FF X:00 Y:00 P:8D S:FB PPU:3  ,93  371
C884  60        RTS                              A:FF X:00 Y:00 P:8D S:FB PPU:3  ,102 374
C603  20 85 C8  JSR $C885                        A:FF X:00 Y:00 P:8D S:FD PPU:3  ,120 380
C885  EA        NOP                              A:FF X:00 Y:00 P:8D S:FB PPU:3  ,138 386
C886  18        CLC                              A:FF X:00 Y:00 P:8D S:FB PPU:3  ,144 388
C887  A9 FF     LDA #$FF                         A:FF X:00 Y:00 P:8C S:FB PPU:3  ,150 390
C889  85 01     STA $01 = $00                    A:FF X:00 Y:00 P:8C S:FB PPU:3  ,156 392
C88B  24 01     BIT $01 = $FF                    A:FF X:00 Y:00 P:8C S:FB PPU:3  ,165 395
C88D  A9 55     LDA #$55                         A:FF X:00 Y:00 P:CC S:FB PPU:3  ,174 398
C88F  09 AA     ORA #$AA                         A:55 X:00 Y:00 P:4C S:FB PPU:3  ,180 400
C891  B0 0B     BCS $C89E                        A:FF X:00 Y:00 P:CC S:FB PPU:3  ,186 402
C893  10 09     BPL $C89E                        A:FF X:00 Y:00 P:CC S:FB PPU:3  ,192 404
C895  C9 FF     CMP #$FF                         A:FF X:00 Y:00 P:CC S:FB PPU:3  ,198 406
C897  D0 05     BNE $C89E                        A:FF X:00 Y:00 P:4F S:FB PPU:3  ,204 408
C899  50 03     BVC $C89E                        A:FF X:00 Y:00 P:4F S:FB PPU:3  ,210 410
C89B  4C A2 C8  JMP $C8A2                        A:FF X:00 Y:00 P:4F S:FB PPU:3  ,216 412
C8A2  EA        NOP                              A:FF X:00 Y:00 P:4F S:FB PPU:3  ,225 415
C8A3  38        SEC                              A:FF X:00 Y:00 P:4F S:FB PPU:3  ,231 417
C8A4  B8        CLV                              A:FF X:00 Y:00 P:4F S:FB PPU:3  ,237 419
C8A5  A9 00     LDA #$00                         A:FF X:00 Y:00 P:0F S:FB PPU:3  ,243 421
C8A7  09 00     ORA #$00                         A:00 X:00 Y:00 P:0F S:FB PPU:3  ,249 423
C8A9  D0 09     BNE $C8B4                        A:00 X:00 Y:00 P:0F S:FB PPU:3  ,255 425
C8AB  70 07     BVS $C8B4                        A:00 X:00 Y:00 P:0F S:FB PPU:3  ,261 427
C8AD  90 05     BCC $C8B4                        A:00 X:00 Y:00 P:0F S:FB PPU:3  ,267 429
C8AF  30 03     BMI $C8B4                        A:00 X:00 Y:00 P:0F S:FB PPU:3  ,273 431
C8B1  4C B8 C8  JMP $C8B8                        A:00 X:00 Y:00 P:0F S:FB PPU:3  ,279 433
C8B8  EA        NOP                              A:00 X:00 Y:00 P:0F S:FB PPU:3  ,288 436
C8B9  18        CLC                              A:00 X:00 Y:00 P:0F S:FB PPU:3  ,294 438
C8BA  24 01     BIT $01 = $FF                    A:00 X:00 Y:00 P:0E S:FB PPU:3  ,300 440
C8BC  A9 55     LDA #$55                         A:00 X:00 Y:00 P:CE S:FB PPU:3  ,309 443
C8BE  29 AA     AND #$AA                         A:55 X:00 Y:00 P:4C S:FB PPU:3  ,315 445
C8C0  D0 09     BNE $C8CB                        A:00 X:00 Y:00 P:4E S:FB PPU:3  ,321 447
C8C2  50 07     BVC $C8CB                        A:00 X:00 Y:00 P:4E S:FB PPU:3  ,327 449
C8C4  B0 05     BCS $C8CB                        A:00 X:00 Y:00 P:4E S:FB PPU:3  ,333 451
C8C6  30 03     BMI $C8CB                        A:00 X:00 Y:00 P:4E S:FB PPU:3  ,339 453
C8C8  4C CF C8  JMP $C8CF                        A:00 X:00 Y:00 P:4E S:FB PPU:4  ,4   455
C8CF  EA        NOP                              A:00 X:00 Y:00 P:4E S:FB PPU:4  ,13  458
C8D0  38        SEC                              A:00 X:00 Y:00 P:4E S:FB PPU:4  ,19  460
C8D1  B8        CLV                              A:00 X:00 Y:00 P:4F S:FB PPU:4  ,25  462
C8D2  A9 F8     LDA #$F8                         A:00 X:00 Y:00 P:0F S:FB PPU:4  ,31  464
C8D4  29 EF     AND #$EF                         A:F8 X:00 Y:00 P:8D S:FB PPU:4  ,37  466
C8D6  90 0B     BCC $C8E3                        A:E8 X:00 Y:00 P:8D S:FB PPU:4  ,43  468
C8D8  10 09     BPL $C8E3                        A:E8 X:00 Y:00 P:8D S:FB PPU:4  ,49  470
C8DA  C9 E8     CMP #$E8                         A:E8 X:00 Y:00 P:8D S:FB PPU:4  ,55  472
C8DC  D0 05     BNE $C8E3                        A:E8 X:00 Y:00 P:0F S:FB PPU:4  ,61  474
C8DE  70 03     BVS $C8E3                        A:E8 X:00 Y:00 P:0F S:FB PPU:4  ,67  476
C8E0  4C E7 C8  JMP $C8E7                        A:E8 X:00 Y:00 P:0F S:FB PPU:4  ,73  478
C8E7  EA        NOP                              A:E8 X:00 Y:00 P:0F S:FB PPU:4  ,82  481
C8E8  18        CLC                              A:E8 X:00 Y:00 P:0F S:FB PPU:4  ,88  483
C8E9  24 01     BIT $01 = $FF                    A:E8 X:00 Y:00 P:0E S:FB PPU:4  ,94  485
C8EB  A9 5F     LDA #$5F                         A:E8 X:00 Y:00 P:CC S:FB PPU:4  ,103 488
C8ED  49 AA     EOR #$AA                         A:5F X:00 Y:00 P:4C S:FB PPU:4  ,109 490
C8EF  B0 0B     BCS $C8FC                        A:F5 X:00 Y:00 P:CC S:FB PPU:4  ,115 492
C8F1  10 09     BPL $C8FC                        A:F5 X:00 Y:00 P:CC S:FB PPU:4  ,121 494
C8F3  C9 F5     CMP #$F5                         A:F5 X:00 Y:00 P:CC S:FB PPU:4  ,127 496
C8F5  D0 05     BNE $C8FC                        A:F5 X:00 Y:00 P:4F S:FB PPU:4  ,133 498
C8F7  50 03     BVC $C8FC                        A:F5 X:00 Y:00 P:4F S:FB PPU:4  ,139 500
C8F9  4C 00 C9  JMP $C900                        A:F5 X:00 Y:00 P:4F S:FB PPU:4  ,145 502
C900  EA        NOP                              A:F5 X:00 Y:00 P:4F S:FB PPU:4  ,154 505
C901  38        SEC                              A:F5 X:00 Y:00 P:4F S:FB PPU:4  ,160 507
C902  B8        CLV                              A:F5 X:00 Y:00 P:4F S:FB PPU:4  ,166 509
C903  A9 70     LDA #$70                         A:F5 X:00 Y:00 P:0F S:FB PPU:4  ,172 511
C905  49 70     EOR #$70                         A:70 X:00 Y:00 P:0D S:FB PPU:4  ,178 513
C907  D0 09     BNE $C912                        A:00 X:00 Y:00 P:0F S:FB PPU:4  ,184 515
C909  70 07     BVS $C912                        A:00 X:00 Y:00 P:0F S:FB PPU:4  ,190 517
C90B  90 05     BCC $C912                        A:00 X:00 Y:00 P:0F S:FB PPU:4  ,196 519
C90D  30 03     BMI $C912                        A:00 X:00 Y:00 P:0F S:FB PPU:4  ,202 521
C90F  4C 16 C9  JMP $C916                        A:00 X:00 Y:00 P:0F S:FB PPU:4  ,208 523
C916  EA        NOP                              A:00 X:00 Y:00 P:0F S:FB PPU:4  ,217 526
C917  18        CLC                              A:00 X:00 Y:00 P:0F S:FB PPU:4  ,223 528
C918  24 01     BIT $01 = $FF                    A:00 X:00 Y:00 P:0E S:FB PPU:4  ,229 530
C91A  A9 00     LDA #$00                         A:00 X:00 Y:00 P:CE S:FB PPU:4  ,238 533
C91C  69 69     ADC #$69                         A:00 X:00 Y:00 P:4E S:FB PPU:4  ,244 535
C91E  30 0B     BMI $C92B                        A:69 X:00 Y:00 P:0C S:FB PPU:4  ,250 537
C920  B0 09     BCS $C92B                        A:69 X:00 Y:00 P:0C S:FB PPU:4  ,256 539
C922  C9 69     CMP #$69                         A:69 X:00 Y:00 P:0C S:FB PPU:4  ,262 541
C924  D0 05     BNE $C92B                        A:69 X:00 Y:00 P:0F S:FB PPU:4  ,268 543
C926  70 03     BVS $C92B                        A:69 X:00 Y:00 P:0F S:FB PPU:4  ,274 545
C928  4C 2F C9  JMP $C92F                        A:69 X:00 Y:00 P:0F S:FB PPU:4  ,280 547
C92F  EA        NOP                              A:69 X:00 Y:00 P:0F S:FB PPU:4  ,289 550
C930  38        SEC                              A:69 X:00 Y:00 P:0F S:FB PPU:4  ,295 552
C931  F8        SED                              A:69 X:00 Y:00 P:0F S:FB PPU:4  ,301 554
C932  24 01     BIT $01 = $FF                    A:69 X:00 Y:00 P:0F S:FB PPU:4  ,307 556
C934  A9 01     LDA #$01                         A:69 X:00 Y:00 P:CD S:FB PPU:4  ,316 559
C936  69 69     ADC #$69                         A:01 X:00 Y:00 P:4D S:FB PPU:4  ,322 561
C938  30 0B     BMI $C945                        A:6B X:00 Y:00 P:0C S:FB PPU:4  ,328 563
C93A  B0 09     BCS $C945                        A:6B X:00 Y:00 P:0C S:FB PPU:4  ,334 565
C93C  C9 6B     CMP #$6B                         A:6B X:00 Y:00 P:0C S:FB PPU:4  ,340 567
C93E  D0 05     BNE $C945                        A:6B X:00 Y:00 P:0F S:FB PPU:5  ,5   569
C940  70 03     BVS $C945                        A:6B X:00 Y:00 P:0F S:FB PPU:5  ,11  571
C942  4C 49 C9  JMP $C949                        A:6B X:00 Y:00 P:0F S:FB PPU:5  ,17  573
C949  EA        NOP                              A:6B X:00 Y:00 P:0F S:FB PPU:5  ,26  576
C94A  D8        CLD                              A:6B X:00 Y:00 P:0F S:FB PPU:5  ,32  578
C94B  38        SEC                              A:6B X:00 Y:00 P:07 S:FB PPU:5  ,38  580
C94C  B8        CLV                              A:6B X:00 Y:00 P:07 S:FB PPU:5  ,44  582
C94D  A9 7F     LDA #$7F                         A:6B X:00 Y:00 P:07 S:FB PPU:5  ,50  584
C94F  69 7F     ADC #$7F                         A:7F X:00 Y:00 P:05 S:FB PPU:5  ,56  586
C951  10 0B     BPL $C95E                        A:FF X:00 Y:00 P:C4 S:FB PPU:5  ,62  588
C953  B0 09     BCS $C95E                        A:FF X:00 Y:00 P:C4 S:FB PPU:5  ,68  590
C955  C9 FF     CMP #$FF                         A:FF X:00 Y:00 P:C4 S:FB PPU:5  ,74  592
C957  D0 05     BNE $C95E                        A:FF X:00 Y:00 P:47 S:FB PPU:5  ,80  594
C959  50 03     BVC $C95E                        A:FF X:00 Y:00 P:47 S:FB PPU:5  ,86  596
C95B  4C 62 C9  JMP $C962                        A:FF X:00 Y:00 P:47 S:FB PPU:5  ,92  598
C962  EA        NOP                              A:FF X:00 Y:00 P:47 S:FB PPU:5  ,101 601
C963  18        CLC                              A:FF X:00 Y:00 P:47 S:FB PPU:5  ,107 603
C964  24 01     BIT $01 = $FF                    A:FF X:00 Y:00 P:46 S:FB PPU:5  ,113 605
C966  A9 7F     LDA #$7F                         A:FF X:00 Y:00 P:C4 S:FB PPU:5  ,122 608
C968  69 80     ADC #$80                         A:7F X:00 Y:00 P:44 S:FB PPU:5  ,128 610
C96A  10 0B     BPL $C977                        A:FF X:00 Y:00 P:84 S:FB PPU:5  ,134 612
C96C  B0 09     BCS $C977                        A:FF X:00 Y:00 P:84 S:FB PPU:5  ,140 614
C96E  C9 FF     CMP #$FF                         A:FF X:00 Y:00 P:84 S:FB PPU:5  ,146 616
C970  D0 05     BNE $C977                        A:FF X:00 Y:00 P:07 S:FB PPU:5  ,152 618
C972  70 03     BVS $C977                        A:FF X:00 Y:00 P:07 S:FB PPU:5  ,158 620
C974  4C 7B C9  JMP $C97B                        A:FF X:00 Y:00 P:07 S:FB PPU:5  ,164 622
C97B  EA        NOP                              A:FF X:00 Y:00 P:07 S:FB PPU:5  ,173 625
C97C  38        SEC                              A:FF X:00 Y:00 P:07 S:FB PPU:5  ,179 627
C97D  B8        CLV                              A:FF X:00 Y:00 P:07 S:FB PPU:5  ,185 629
C97E  A9 7F     LDA #$7F                         A:FF X:00 Y:00 P:07 S:FB PPU:5  ,191 631
C980  69 80     ADC #$80                         A:7F X:00 Y:00 P:05 S:FB PPU:5  ,197 633
C982  D0 09     BNE $C98D                        A:00 X:00 Y:00 P:07 S:FB PPU:5  ,203 635
C984  30 07     BMI $C98D                        A:00 X:00 Y:00 P:07 S:FB PPU:5  ,209 637
C986  70 05     BVS $C98D                        A:00 X:00 Y:00 P:07 S:FB PPU:5  ,215 639
C988  90 03     BCC $C98D                        A:00 X:00 Y:00 P:07 S:FB PPU:5  ,221 641
C98A  4C 91 C9  JMP $C991                        A:00 X:00 Y:00 P:07 S:FB PPU:5  ,227 643
C991  EA        NOP                              A:00 X:00 Y:00 P:07 S:FB PPU:5  ,236 646
C992  38        SEC                              A:00 X:00 Y:00 P:07 S:FB PPU:5  ,242 648
C993  B8        CLV                              A:00 X:00 Y:00 P:07 S:FB PPU:5  ,248 650
C994  A9 9F     LDA #$9F                         A:00 X:00 Y:00 P:07 S:FB PPU:5  ,254 652
C996  F0 09     BEQ $C9A1                        A:9F X:00 Y:00 P:85 S:FB PPU:5  ,260 654
C998  10 07     BPL $C9A1                        A:9F X:00 Y:00 P:85 S:FB PPU:5  ,266 656
C99A  70 05     BVS $C9A1                        A:9F X:00 Y:00 P:85 S:FB PPU:5  ,272 658
C99C  90 03     BCC $C9A1                        A:9F X:00 Y:00 P:85 S:FB PPU:5  ,278 660
C99E  4C A5 C9  JMP $C9A5                        A:9F X:00 Y:00 P:85 S:FB PPU:5  ,284 662
C9A5  EA        NOP                              A:9F X:00 Y:00 P:85 S:FB PPU:5  ,293 665
C9A6  18        CLC                              A:9F X:00 Y:00 P:85 S:FB PPU:5  ,299 667
C9A7  24 01     BIT $01 = $FF                    A:9F X:00 Y:00 P:84 S:FB PPU:5  ,305 669
C9A9  A9 00     LDA #$00                         A:9F X:00 Y:00 P:C4 S:FB PPU:5  ,314 672
C9AB  D0 09     BNE $C9B6                        A:00 X:00 Y:00 P:46 S:FB PPU:5  ,320 674
C9AD  30 07     BMI $C9B6                        A:00 X:00 Y:00 P:46 S:FB PPU:5  ,326 676
C9AF  50 05     BVC $C9B6                        A:00 X:00 Y:00 P:46 S:FB PPU:5  ,332 678
C9B1  B0 03     BCS $C9B6                        A:00 X:00 Y:00 P:46 S:FB PPU:5  ,338 680
C9B3  4C BA C9  JMP $C9BA                        A:00 X:00 Y:00 P:46 S:FB PPU:6  ,3   682
C9BA  EA        NOP                              A:00 X:00 Y:00 P:46 S:FB PPU:6  ,12  685
C9BB  24 01     BIT $01 = $FF                    A:00 X:00 Y:00 P:46 S:FB PPU:6  ,18  687
C9BD  A9 40     LDA #$40                         A:00 X:00 Y:00 P:C6 S:FB PPU:6  ,27  690
C9BF  C9 40     CMP #$40                         A:40 X:00 Y:00 P:44 S:FB PPU:6  ,33  692
C9C1  30 09     BMI $C9CC                        A:40 X:00 Y:00 P:47 S:FB PPU:6  ,39  694
C9C3  90 07     BCC $C9CC                        A:40 X:00 Y:00 P:47 S:FB PPU:6  ,45  696
C9C5  D0 05     BNE $C9CC                        A:40 X:00 Y:00 P:47 S:FB PPU:6  ,51  698
C9C7  50 03     BVC $C9CC                        A:40 X:00 Y:00 P:47 S:FB PPU:6  ,57  700
C9C9  4C D0 C9  JMP $C9D0                        A:40 X:00 Y:00 P:47 S:FB PPU:6  ,63  702
C9D0  EA        NOP                              A:40 X:00 Y:00 P:47 S:FB PPU:6  ,72  705
C9D1  B8        CLV                              A:40 X:00 Y:00 P:47 S:FB PPU:6  ,78  707
C9D2  C9 3F     CMP #$3F                         A:40 X:00 Y:00 P:07 S:FB PPU:6  ,84  709
C9D4  F0 09     BEQ $C9DF                        A:40 X:00 Y:00 P:05 S:FB PPU:6  ,90  711
C9D6  30 07     BMI $C9DF                        A:40 X:00 Y:00 P:05 S:FB PPU:6  ,96  713
C9D8  90 05     BCC $C9DF                        A:40 X:00 Y:00 P:05 S:FB PPU:6  ,102 715
C9DA  70 03     BVS $C9DF                        A:40 X:00 Y:00 P:05 S:FB PPU:6  ,108 717
C9DC  4C E3 C9  JMP $C9E3                        A:40 X:00 Y:00 P:05 S:FB PPU:6  ,114 719
C9E3  EA        NOP                              A:40 X:00 Y:00 P:05 S:FB PPU:6  ,123 722
C9E4  C9 41     CMP #$41                         A:40 X:00 Y:00 P:05 S:FB PPU:6  ,129 724
C9E6  F0 07     BEQ $C9EF                        A:40 X:00 Y:00 P:84 S:FB PPU:6  ,135 726
C9E8  10 05     BPL $C9EF                        A:40 X:00 Y:00 P:84 S:FB PPU:6  ,141 728
C9EA  10 03     BPL $C9EF                        A:40 X:00 Y:00 P:84 S:FB PPU:6  ,147 730
C9EC  4C F3 C9  JMP $C9F3                        A:40 X:00 Y:00 P:84 S:FB PPU:6  ,153 732
C9F3  EA        NOP                              A:40 X:00 Y:00 P:84 S:FB PPU:6  ,162 735
C9F4  A9 80     LDA #$80                         A:40 X:00 Y:00 P:84 S:FB PPU:6  ,168 737
C9F6  C9 00     CMP #$00                         A:80 X:00 Y:00 P:84 S:FB PPU:6  ,174 739
C9F8  F0 07     BEQ $CA01                        A:80 X:00 Y:00 P:85 S:FB PPU:6  ,180 741
C9FA  10 05     BPL $CA01                        A:80 X:00 Y:00 P:85 S:FB PPU:6  ,186 743
C9FC  90 03     BCC $CA01                        A:80 X:00 Y:00 P:85 S:FB PPU:6  ,192 745
C9FE  4C 05 CA  JMP $CA05                        A:80 X:00 Y:00 P:85 S:FB PPU:6  ,198 747
CA05  EA        NOP                              A:80 X:00 Y:00 P:85 S:FB PPU:6  ,207 750
CA06  C9 80     CMP #$80                         A:80 X:00 Y:00 P:85 S:FB PPU:6  ,213 752
CA08  D0 07     BNE $CA11                        A:80 X:00 Y:00 P:07 S:FB PPU:6  ,219 754
CA0A  30 05     BMI $CA11                        A:80 X:00 Y:00 P:07 S:FB PPU:6  ,225 756
CA0C  90 03     BCC $CA11                        A:80 X:00 Y:00 P:07 S:FB PPU:6  ,231 758
CA0E  4C 15 CA  JMP $CA15                        A:80 X:00 Y:00 P:07 S:FB PPU:6  ,237 760
CA15  EA        NOP                              A:80 X:00 Y:00 P:07 S:FB PPU:6  ,246 763
CA16  C9 81     CMP #$81                         A:80 X:00 Y:00 P:07 S:FB PPU:6  ,252 765
CA18  B0 07     BCS $CA21                        A:80 X:00 Y:00 P:84 S:FB PPU:6  ,258 767
CA1A  F0 05     BEQ $CA21                        A:80 X:00 Y:00 P:84 S:FB PPU:6  ,264 769
CA1C  10 03     BPL $CA21                        A:80 X:00 Y:00 P:84 S:FB PPU:6  ,270 771
CA1E  4C 25 CA  JMP $CA25                        A:80 X:00 Y:00 P:84 S:FB PPU:6  ,276 773
CA25  EA        NOP                              A:80 X:00 Y:00 P:84 S:FB PPU:6  ,285 776
CA26  C9 7F     CMP #$7F                         A:80 X:00 Y:00 P:84 S:FB PPU:6  ,291 778
CA28  90 07     BCC $CA31                        A:80 X:00 Y:00 P:05 S:FB PPU:6  ,297 780
CA2A  F0 05     BEQ $CA31                        A:80 X:00 Y:00 P:05 S:FB PPU:6  ,303 782
CA2C  30 03     BMI $CA31                        A:80 X:00 Y:00 P:05 S:FB PPU:6  ,309 784
CA2E  4C 35 CA  JMP $CA35                        A:80 X:00 Y:00 P:05 S:FB PPU:6  ,315 786
CA35  EA        NOP                              A:80 X:00 Y:00 P:05 S:FB PPU:6  ,324 789
CA36  24 01     BIT $01 = $FF                    A:80 X:00 Y:00 P:05 S:FB PPU:6  ,330 791
CA38  A0 40     LDY #$40                         A:80 X:00 Y:00 P:C5 S:FB PPU:6  ,339 794
CA3A  C0 40     CPY #$40                         A:80 X:00 Y:40 P:45 S:FB PPU:7  ,4   796
CA3C  D0 09     BNE $CA47                        A:80 X:00 Y:40 P:47 S:FB PPU:7  ,10  798
CA3E  30 07     BMI $CA47                        A:80 X:00 Y:40 P:47 S:FB PPU:7  ,16  800
CA40  90 05     BCC $CA47                        A:80 X:00 Y:40 P:47 S:FB PPU:7  ,22  802
CA42  50 03     BVC $CA47                        A:80 X:00 Y:40 P:47 S:FB PPU:7  ,28  804
CA44  4C 4B CA  JMP $CA4B                        A:80 X:00 Y:40 P:47 S:FB PPU:7  ,34  806
CA4B  EA        NOP                              A:80 X:00 Y:40 P:47 S:FB PPU:7  ,43  809
CA4C  B8        CLV                              A:80 X:00 Y:40 P:47 S:FB PPU:7  ,49  811
CA4D  C0 3F     CPY #$3F                         A:80 X:00 Y:40 P:07 S:FB PPU:7  ,55  813
CA4F  F0 09     BEQ $CA5A                        A:80 X:00 Y:40 P:05 S:FB PPU:7  ,61  815
CA51  30 07     BMI $CA5A                        A:80 X:00 Y:40 P:05 S:FB PPU:7  ,67  817
CA53  90 05     BCC $CA5A                        A:80 X:00 Y:40 P:05 S:FB PPU:7  ,73  819
CA55  70 03     BVS $CA5A                        A:80 X:00 Y:40 P:05 S:FB PPU:7  ,79  821
CA57  4C 5E CA  JMP $CA5E                        A:80 X:00 Y:40 P:05 S:FB PPU:7  ,85  823
CA5E  EA        NOP                              A:80 X:00 Y:40 P:05 S:FB PPU:7  ,94  826
CA5F  C0 41     CPY #$41                         A:80 X:00 Y:40 P:05 S:FB PPU:7  ,100 828
CA61  F0 07     BEQ $CA6A                        A:80 X:00 Y:40 P:84 S:FB PPU:7  ,106 830
CA63  10 05     BPL $CA6A                        A:80 X:00 Y:40 P:84 S:FB PPU:7  ,112 832
CA65  10 03     BPL $CA6A                        A:80 X:00 Y:40 P:84 S:FB PPU:7  ,118 834
CA67  4C 6E CA  JMP $CA6E                        A:80 X:00 Y:40 P:84 S:FB PPU:7  ,124 836
CA6E  EA        NOP                              A:80 X:00 Y:40 P:84 S:FB PPU:7  ,133 839
CA6F  A0 80     LDY #$80                         A:80 X:00 Y:40 P:84 S:FB PPU:7  ,139 841
CA71  C0 00     CPY #$00                         A:80 X:00 Y:80 P:84 S:FB PPU:7  ,145 843
CA73  F0 07     BEQ $CA7C                        A:80 X:00 Y:80 P:85 S:FB PPU:7  ,151 845
CA75  10 05     BPL $CA7C                        A:80 X:00 Y:80 P:85 S:FB PPU:7  ,157 847
CA77  90 03     BCC $CA7C                        A:80 X:00 Y:80 P:85 S:FB PPU:7  ,163 849
CA79  4C 80 CA  JMP $CA80                        A:80 X:00 Y:80 P:85 S:FB PPU:7  ,169 851
CA80  EA        NOP                              A:80 X:00 Y:80 P:85 S:FB PPU:7  ,178 854
CA81  C0 80     CPY #$80                         A:80 X:00 Y:80 P:85 S:FB PPU:7  ,184 856
CA83  D0 07     BNE $CA8C                        A:80 X:00 Y:80 P:07 S:FB PPU:7  ,190 858
CA85  30 05     BMI $CA8C                        A:80 X:00 Y:80 P:07 S:FB PPU:7  ,196 860
CA87  90 03     BCC $CA8C                        A:80 X:00 Y:80 P:07 S:FB PPU:7  ,202 862
CA89  4C 90 CA  JMP $CA90                        A:80 X:00 Y:80 P:07 S:FB PPU:7  ,208 864
CA90  EA        NOP                              A:80 X:00 Y:80 P:07 S:FB PPU:7  ,217 867
CA91  C0 81     CPY #$81                         A:80 X:00 Y:80 P:07 S:FB PPU:7  ,223 869
CA93  B0 07     BCS $CA9C                        A:80 X:00 Y:80 P:84 S:FB PPU:7  ,229 871
CA95  F0 05     BEQ $CA9C                        A:80 X:00 Y:80 P:84 S:FB PPU:7  ,235 873
CA97  10 03     BPL $CA9C                        A:80 X:00 Y:80 P:84 S:FB PPU:7  ,241 875
CA99  4C A0 CA  JMP $CAA0                        A:80 X:00 Y:80 P:84 S:FB PPU:7  ,247 877
CAA0  EA        NOP                              A:80 X:00 Y:80 P:84 S:FB PPU:7  ,256 880
CAA1  C0 7F     CPY #$7F                         A:80 X:00 Y:80 P:84 S:FB PPU:7  ,262 882
CAA3  90 07     BCC $CAAC                        A:80 X:00 Y:80 P:05 S:FB PPU:7  ,268 884
CAA5  F0 05     BEQ $CAAC                        A:80 X:00 Y:80 P:05 S:FB PPU:7  ,274 886
CAA7  30 03     BMI $CAAC                        A:80 X:00 Y:80 P:05 S:FB PPU:7  ,280 888
CAA9  4C B0 CA  JMP $CAB0                        A:80 X:00 Y:80 P:05 S:FB PPU:7  ,286 890
CAB0  EA        NOP                              A:80 X:00 Y:80 P:05 S:FB PPU:7  ,295 893
CAB1  24 01     BIT $01 = $FF                    A:80 X:00 Y:80 P:05 S:FB PPU:7  ,301 895
CAB3  A2 40     LDX #$40                         A:80 X:00 Y:80 P:C5 S:FB PPU:7  ,310 898
CAB5  E0 40     CPX #$40                         A:80 X:40 Y:80 P:45 S:FB PPU:7  ,316 900
CAB7  D0 09     BNE $CAC2                        A:80 X:40 Y:80 P:47 S:FB PPU:7  ,322 902
CAB9  30 07     BMI $CAC2                        A:80 X:40 Y:80 P:47 S:FB PPU:7  ,328 904
CABB  90 05     BCC $CAC2                        A:80 X:40 Y:80 P:47 S:FB PPU:7  ,334 906
CABD  50 03     BVC $CAC2                        A:80 X:40 Y:80 P:47 S:FB PPU:7  ,340 908
CABF  4C C6 CA  JMP $CAC6                        A:80 X:40 Y:80 P:47 S:FB PPU:8  ,5   910
CAC6  EA        NOP                              A:80 X:40 Y:80 P:47 S:FB PPU:8  ,14  913
CAC7  B8        CLV                              A:80 X:40 Y:80 P:47 S:FB PPU:8  ,20  915
CAC8  E0 3F     CPX #$3F                         A:80 X:40 Y:80 P:07 S:FB PPU:8  ,26  917
CACA  F0 09     BEQ $CAD5                        A:80 X:40 Y:80 P:05 S:FB PPU:8  ,32  919
CACC  30 07     BMI $CAD5                        A:80 X:40 Y:80 P:05 S:FB PPU:8  ,38  921
CACE  90 05     BCC $CAD5                        A:80 X:40 Y:80 P:05 S:FB PPU:8  ,44  923
CAD0  70 03     BVS $CAD5                        A:80 X:40 Y:80 P:05 S:FB PPU:8  ,50  925
CAD2  4C D9 CA  JMP $CAD9                        A:80 X:40 Y:80 P:05 S:FB PPU:8  ,56  927
CAD9  EA        NOP                              A:80 X:40 Y:80 P:05 S:FB PPU:8  ,65  930
CADA  E0 41     CPX #$41                         A:80 X:40 Y:80 P:05 S:FB PPU:8  ,71  932
CADC  F0 07     BEQ $CAE5                        A:80 X:40 Y:80 P:84 S:FB PPU:8  ,77  934
CADE  10 05     BPL $CAE5                        A:80 X:40 Y:80 P:84 S:FB PPU:8  ,83  936
CAE0  10 03     BPL $CAE5                        A:80 X:40 Y:80 P:84 S:FB PPU:8  ,89  938
CAE2  4C E9 CA  JMP $CAE9                        A:80 X:40 Y:80 P:84 S:FB PPU:8  ,95  940
CAE9  EA        NOP                              A:80 X:40 Y:80 P:84 S:FB PPU:8  ,104 943
CAEA  A2 80     LDX #$80                         A:80 X:40 Y:80 P:84 S:FB PPU:8  ,110 945
CAEC  E0 00     CPX #$00                         A:80 X:80 Y:80 P:84 S:FB PPU:8  ,116 947
CAEE  F0 07     BEQ $CAF7                        A:80 X:80 Y:80 P:85 S:FB PPU:8  ,122 949
CAF0  10 05     BPL $CAF7                        A:80 X:80 Y:80 P:85 S:FB PPU:8  ,128 951
CAF2  90 03     BCC $CAF7                        A:80 X:80 Y:80 P:85 S:FB PPU:8  ,134 953
CAF4  4C FB CA  JMP $CAFB                        A:80 X:80 Y:80 P:85 S:FB PPU:8  ,140 955
CAFB  EA        NOP                              A:80 X:80 Y:80 P:85 S:FB PPU:8  ,149 958
CAFC  E0 80     CPX #$80                         A:80 X:80 Y:80 P:85 S:FB PPU:8  ,155 960
CAFE  D0 07     BNE $CB07                        A:80 X:80 Y:80 P:07 S:FB PPU:8  ,161 962
CB00  30 05     BMI $CB07                        A:80 X:80 Y:80 P:07 S:FB PPU:8  ,167 964
CB02  90 03     BCC $CB07                        A:80 X:80 Y:80 P:07 S:FB PPU:8  ,173 966
CB04  4C 0B CB  JMP $CB0B                        A:80 X:80 Y:80 P:07 S:FB PPU:8  ,179 968
CB0B  EA        NOP                              A:80 X:80 Y:80 P:07 S:FB PPU:8  ,188 971
CB0C  E0 81     CPX #$81                         A:80 X:80 Y:80 P:07 S:FB PPU:8  ,194 973
CB0E  B0 07     BCS $CB17                        A:80 X:80 Y:80 P:84 S:FB PPU:8  ,200 975
CB10  F0 05     BEQ $CB17                        A:80 X:80 Y:80 P:84 S:FB PPU:8  ,206 977
CB12  10 03     BPL $CB17                        A:80 X:80 Y:80 P:84 S:FB PPU:8  ,212 979
CB14  4C 1B CB  JMP $CB1B                        A:80 X:80 Y:80 P:84 S:FB PPU:8  ,218 981
CB1B  EA        NOP                              A:80 X:80 Y:80 P:84 S:FB PPU:8  ,227 984
CB1C  E0 7F     CPX #$7F                         A:80 X:80 Y:80 P:84 S:FB PPU:8  ,233 986
CB1E  90 07     BCC $CB27                        A:80 X:80 Y:80 P:05 S:FB PPU:8  ,239 988
CB20  F0 05     BEQ $CB27                        A:80 X:80 Y:80 P:05 S:FB PPU:8  ,245 990
CB22  30 03     BMI $CB27                        A:80 X:80 Y:80 P:05 S:FB PPU:8  ,251 992
CB24  4C 2B CB  JMP $CB2B                        A:80 X:80 Y:80 P:05 S:FB PPU:8  ,257 994
CB2B  EA        NOP                              A:80 X:80 Y:80 P:05 S:FB PPU:8  ,266 997
CB2C  38        SEC                              A:80 X:80 Y:80 P:05 S:FB PPU:8  ,272 999
CB2D  B8        CLV                              A:80 X:80 Y:80 P:05 S:FB PPU:8  ,278 1001
CB2E  A2 9F     LDX #$9F                         A:80 X:80 Y:80 P:05 S:FB PPU:8  ,284 1003
CB30  F0 09     BEQ $CB3B                        A:80 X:9F Y:80 P:85 S:FB PPU:8  ,290 1005
CB32  10 07     BPL $CB3B                        A:80 X:9F Y:80 P:85 S:FB PPU:8  ,296 1007
CB34  70 05     BVS $CB3B                        A:80 X:9F Y:80 P:85 S:FB PPU:8  ,302 1009
CB36  90 03     BCC $CB3B                        A:80 X:9F Y:80 P:85 S:FB PPU:8  ,308 1011
CB38  4C 3F CB  JMP $CB3F                        A:80 X:9F Y:80 P:85 S:FB PPU:8  ,314 1013
CB3F  EA        NOP                              A:80 X:9F Y:80 P:85 S:FB PPU:8  ,323 1016
CB40  18        CLC                              A:80 X:9F Y:80 P:85 S:FB PPU:8  ,329 1018
CB41  24 01     BIT $01 = $FF                    A:80 X:9F Y:80 P:84 S:FB PPU:8  ,335 1020
CB43  A2 00     LDX #$00                         A:80 X:9F Y:80 P:C4 S:FB PPU:9  ,3   1023
CB45  D0 09     BNE $CB50                        A:80 X:00 Y:80 P:46 S:FB PPU:9  ,9   1025
CB47  30 07     BMI $CB50                        A:80 X:00 Y:80 P:46 S:FB PPU:9  ,15  1027
CB49  50 05     BVC $CB50                        A:80 X:00 Y:80 P:46 S:FB PPU:9  ,21  1029
CB4B  B0 03     BCS $CB50                        A:80 X:00 Y:80 P:46 S:FB PPU:9  ,27  1031
CB4D  4C 54 CB  JMP $CB54                        A:80 X:00 Y:80 P:46 S:FB PPU:9  ,33  1033
CB54  EA        NOP                              A:80 X:00 Y:80 P:46 S:FB PPU:9  ,42  1036
CB55  38        SEC                              A:80 X:00 Y:80 P:46 S:FB PPU:9  ,48  1038
CB56  B8        CLV                              A:80 X:00 Y:80 P:47 S:FB PPU:9  ,54  1040
CB57  A0 9F     LDY #$9F                         A:80 X:00 Y:80 P:07 S:FB PPU:9  ,60  1042
CB59  F0 09     BEQ $CB64                        A:80 X:00 Y:9F P:85 S:FB PPU:9  ,66  1044
CB5B  10 07     BPL $CB64                        A:80 X:00 Y:9F P:85 S:FB PPU:9  ,72  1046
CB5D  70 05     BVS $CB64                        A:80 X:00 Y:9F P:85 S:FB PPU:9  ,78  1048
CB5F  90 03     BCC $CB64                        A:80 X:00 Y:9F P:85 S:FB PPU:9  ,84  1050
CB61  4C 68 CB  JMP $CB68                        A:80 X:00 Y:9F P:85 S:FB PPU:9  ,90  1052
CB68  EA        NOP                              A:80 X:00 Y:9F P:85 S:FB PPU:9  ,99  1055
CB69  18        CLC                              A:80 X:00 Y:9F P:85 S:FB PPU:9  ,105 1057
CB6A  24 01     BIT $01 = $FF                    A:80 X:00 Y:9F P:84 S:FB PPU:9  ,111 1059
CB6C  A0 00     LDY #$00                         A:80 X:00 Y:9F P:C4 S:FB PPU:9  ,120 1062
CB6E  D0 09     BNE $CB79                        A:80 X:00 Y:00 P:46 S:FB PPU:9  ,126 1064
CB70  30 07     BMI $CB79                        A:80 X:00 Y:00 P:46 S:FB PPU:9  ,132 1066
CB72  50 05     BVC $CB79                        A:80 X:00 Y:00 P:46 S:FB PPU:9  ,138 1068
CB74  B0 03     BCS $CB79                        A:80 X:00 Y:00 P:46 S:FB PPU:9  ,144 1070
CB76  4C 7D CB  JMP $CB7D                        A:80 X:00 Y:00 P:46 S:FB PPU:9  ,150 1072
CB7D  EA        NOP                              A:80 X:00 Y:00 P:46 S:FB PPU:9  ,159 1075
CB7E  A9 55     LDA #$55                         A:80 X:00 Y:00 P:46 S:FB PPU:9  ,165 1077
CB80  A2 AA     LDX #$AA                         A:55 X:00 Y:00 P:44 S:FB PPU:9  ,171 1079
CB82  A0 33     LDY #$33                         A:55 X:AA Y:00 P:C4 S:FB PPU:9  ,177 1081
CB84  C9 55     CMP #$55                         A:55 X:AA Y:33 P:44 S:FB PPU:9  ,183 1083
CB86  D0 23     BNE $CBAB                        A:55 X:AA Y:33 P:47 S:FB PPU:9  ,189 1085
CB88  E0 AA     CPX #$AA                         A:55 X:AA Y:33 P:47 S:FB PPU:9  ,195 1087
CB8A  D0 1F     BNE $CBAB                        A:55 X:AA Y:33 P:47 S:FB PPU:9  ,201 1089
CB8C  C0 33     CPY #$33                         A:55 X:AA Y:33 P:47 S:FB PPU:9  ,207 1091
CB8E  D0 1B     BNE $CBAB                        A:55 X:AA Y:33 P:47 S:FB PPU:9  ,213 1093
CB90  C9 55     CMP #$55                         A:55 X:AA Y:33 P:47 S:FB PPU:9  ,219 1095
CB92  D0 17     BNE $CBAB                        A:55 X:AA Y:33 P:47 S:FB PPU:9  ,225 1097
CB94  E0 AA     CPX #$AA                         A:55 X:AA Y:33 P:47 S:FB PPU:9  ,231 1099
CB96  D0 13     BNE $CBAB                        A:55 X:AA Y:33 P:47 S:FB PPU:9  ,237 1101
CB98  C0 33     CPY #$33                         A:55 X:AA Y:33 P:47 S:FB PPU:9  ,243 1103
CB9A  D0 0F     BNE $CBAB                        A:55 X:AA Y:33 P:47 S:FB PPU:9  ,249 1105
CB9C  C9 56     CMP #$56                         A:55 X:AA Y:33 P:47 S:FB PPU:9  ,255 1107
CB9E  F0 0B     BEQ $CBAB                        A:55 X:AA Y:33 P:C4 S:FB PPU:9  ,261 1109
CBA0  E0 AB     CPX #$AB                         A:55 X:AA Y:33 P:C4 S:FB PPU:9  ,267 1111
CBA2  F0 07     BEQ $CBAB                        A:55 X:AA Y:33 P:C4 S:FB PPU:9  ,273 1113
CBA4  C0 34     CPY #$34                         A:55 X:AA Y:33 P:C4 S:FB PPU:9  ,279 1115
CBA6  F0 03     BEQ $CBAB                        A:55 X:AA Y:33 P:C4 S:FB PPU:9  ,285 1117
CBA8  4C AF CB  JMP $CBAF                        A:55 X:AA Y:33 P:C4 S:FB PPU:9  ,291 1119
CBAF  A0 71     LDY #$71                         A:55 X:AA Y:33 P:C4 S:FB PPU:9  ,300 1122
CBB1  20 31 F9  JSR $F931                        A:55 X:AA Y:71 P:44 S:FB PPU:9  ,306 1124
F931  24 01     BIT $01 = $FF                    A:55 X:AA Y:71 P:44 S:F9 PPU:9  ,324 1130
F933  A9 40     LDA #$40                         A:55 X:AA Y:71 P:C4 S:F9 PPU:9  ,333 1133
F935  38        SEC                              A:40 X:AA Y:71 P:44 S:F9 PPU:9  ,339 1135
F936  60        RTS                              A:40 X:AA Y:71 P:45 S:F9 PPU:10 ,4   1137
CBB4  E9 40     SBC #$40                         A:40 X:AA Y:71 P:45 S:FB PPU:10 ,22  1143
CBB6  20 37 F9  JSR $F937                        A:00 X:AA Y:71 P:07 S:FB PPU:10 ,28  1145
F937  30 0B     BMI $F944                        A:00 X:AA Y:71 P:07 S:F9 PPU:10 ,46  1151
F939  90 09     BCC $F944                        A:00 X:AA Y:71 P:07 S:F9 PPU:10 ,52  1153
F93B  D0 07     BNE $F944                        A:00 X:AA Y:71 P:07 S:F9 PPU:10 ,58  1155
F93D  70 05     BVS $F944                        A:00 X:AA Y:71 P:07 S:F9 PPU:10 ,64  1157
F93F  C9 00     CMP #$00                         A:00 X:AA Y:71 P:07 S:F9 PPU:10 ,70  1159
F941  D0 01     BNE $F944                        A:00 X:AA Y:71 P:07 S:F9 PPU:10 ,76  1161
F943  60        RTS                              A:00 X:AA Y:71 P:07 S:F9 PPU:10 ,82  1163
CBB9  C8        INY                              A:00 X:AA Y:71 P:07 S:FB PPU:10 ,100 1169
CBBA  20 47 F9  JSR $F947                        A:00 X:AA Y:72 P:05 S:FB PPU:10 ,106 1171
F947  B8        CLV                              A:00 X:AA Y:72 P:05 S:F9 PPU:10 ,124 1177
F948  38        SEC                              A:00 X:AA Y:72 P:05 S:F9 PPU:10 ,130 1179
F949  A9 40     LDA #$40                         A:00 X:AA Y:72 P:05 S:F9 PPU:10 ,136 1181
F94B  60        RTS                              A:40 X:AA Y:72 P:05 S:F9 PPU:10 ,142 1183
CBBD  E9 3F     SBC #$3F                         A:40 X:AA Y:72 P:05 S:FB PPU:10 ,160 1189
CBBF  20 4C F9  JSR $F94C                        A:01 X:AA Y:72 P:05 S:FB PPU:10 ,166 1191
F94C  F0 0B     BEQ $F959                        A:01 X:AA Y:72 P:05 S:F9 PPU:10 ,184 1197
F94E  30 09     BMI $F959                        A:01 X:AA Y:72 P:05 S:F9 PPU:10 ,190 1199
F950  90 07     BCC $F959                        A:01 X:AA Y:72 P:05 S:F9 PPU:10 ,196 1201
F952  70 05     BVS $F959                        A:01 X:AA Y:72 P:05 S:F9 PPU:10 ,202 1203
F954  C9 01     CMP #$01                         A:01 X:AA Y:72 P:05 S:F9 PPU:10 ,208 1205
F956  D0 01     BNE $F959                        A:01 X:AA Y:72 P:07 S:F9 PPU:10 ,214 1207
F958  60        RTS                              A:01 X:AA Y:72 P:07 S:F9 PPU:10 ,220 1209
CBC2  C8        INY                              A:01 X:AA Y:72 P:07 S:FB PPU:10 ,238 1215
CBC3  20 5C F9  JSR $F95C                        A:01 X:AA Y:73 P:05 S:FB PPU:10 ,244 1217
F95C  A9 40     LDA #$40                         A:01 X:AA Y:73 P:05 S:F9 PPU:10 ,262 1223
F95E  38        SEC                              A:40 X:AA Y:73 P:05 S:F9 PPU:10 ,268 1225
F95F  24 01     BIT $01 = $FF                    A:40 X:AA Y:73 P:05 S:F9 PPU:10 ,274 1227
F961  60        RTS                              A:40 X:AA Y:73 P:C5 S:F9 PPU:10 ,283 1230
CBC6  E9 41     SBC #$41                         A:40 X:AA Y:73 P:C5 S:FB PPU:10 ,301 1236
CBC8  20 62 F9  JSR $F962                        A:FF X:AA Y:73 P:84 S:FB PPU:10 ,307 1238
F962  B0 0B     BCS $F96F                        A:FF X:AA Y:73 P:84 S:F9 PPU:10 ,325 1244
F964  F0 09     BEQ $F96F                        A:FF X:AA Y:73 P:84 S:F9 PPU:10 ,331 1246
F966  10 07     BPL $F96F                        A:FF X:AA Y:73 P:84 S:F9 PPU:10 ,337 1248
F968  70 05     BVS $F96F                        A:FF X:AA Y:73 P:84 S:F9 PPU:11 ,2   1250
F96A  C9 FF     CMP #$FF                         A:FF X:AA Y:73 P:84 S:F9 PPU:11 ,8   1252
F96C  D0 01     BNE $F96F                        A:FF X:AA Y:73 P:07 S:F9 PPU:11 ,14  1254
F96E  60        RTS                              A:FF X:AA Y:73 P:07 S:F9 PPU:11 ,20  1256
CBCB  C8        INY                              A:FF X:AA Y:73 P:07 S:FB PPU:11 ,38  1262
CBCC  20 72 F9  JSR $F972                        A:FF X:AA Y:74 P:05 S:FB PPU:11 ,44  1264
F972  18        CLC                              A:FF X:AA Y:74 P:05 S:F9 PPU:11 ,62  1270
F973  A9 80     LDA #$80                         A:FF X:AA Y:74 P:04 S:F9 PPU:11 ,68  1272
F975  60        RTS                              A:80 X:AA Y:74 P:84 S:F9 PPU:11 ,74  1274
CBCF  E9 00     SBC #$00                         A:80 X:AA Y:74 P:84 S:FB PPU:11 ,92  1280
CBD1  20 76 F9  JSR $F976                        A:7F X:AA Y:74 P:45 S:FB PPU:11 ,98  1282
F976  90 05     BCC $F97D                        A:7F X:AA Y:74 P:45 S:F9 PPU:11 ,116 1288
F978  C9 7F     CMP #$7F                         A:7F X:AA Y:74 P:45 S:F9 PPU:11 ,122 1290
F97A  D0 01     BNE $F97D                        A:7F X:AA Y:74 P:47 S:F9 PPU:11 ,128 1292
F97C  60        RTS                              A:7F X:AA Y:74 P:47 S:F9 PPU:11 ,134 1294
CBD4  C8        INY                              A:7F X:AA Y:74 P:47 S:FB PPU:11 ,152 1300
CBD5  20 80 F9  JSR $F980                        A:7F X:AA Y:75 P:45 S:FB PPU:11 ,158 1302
F980  38        SEC                              A:7F X:AA Y:75 P:45 S:F9 PPU:11 ,176 1308
F981  A9 81     LDA #$81                         A:7F X:AA Y:75 P:45 S:F9 PPU:11 ,182 1310
F983  60        RTS                              A:81 X:AA Y:75 P:C5 S:F9 PPU:11 ,188 1312
CBD8  E9 7F     SBC #$7F                         A:81 X:AA Y:75 P:C5 S:FB PPU:11 ,206 1318
CBDA  20 84 F9  JSR $F984                        A:02 X:AA Y:75 P:45 S:FB PPU:11 ,212 1320
F984  50 07     BVC $F98D                        A:02 X:AA Y:75 P:45 S:F9 PPU:11 ,230 1326
F986  90 05     BCC $F98D                        A:02 X:AA Y:75 P:45 S:F9 PPU:11 ,236 1328
F988  C9 02     CMP #$02                         A:02 X:AA Y:75 P:45 S:F9 PPU:11 ,242 1330
F98A  D0 01     BNE $F98D                        A:02 X:AA Y:75 P:47 S:F9 PPU:11 ,248 1332
F98C  60        RTS                              A:02 X:AA Y:75 P:47 S:F9 PPU:11 ,254 1334
CBDD  60        RTS                              A:02 X:AA Y:75 P:47 S:FB PPU:11 ,272 1340
C606  20 DE CB  JSR $CBDE                        A:02 X:AA Y:75 P:47 S:FD PPU:11 ,290 1346
CBDE  EA        NOP                              A:02 X:AA Y:75 P:47 S:FB PPU:11 ,308 1352
CBDF  A9 FF     LDA #$FF                         A:02 X:AA Y:75 P:47 S:FB PPU:11 ,314 1354
CBE1  85 01     STA $01 = $FF                    A:FF X:AA Y:75 P:C5 S:FB PPU:11 ,320 1356
CBE3  A9 44     LDA #$44                         A:FF X:AA Y:75 P:C5 S:FB PPU:11 ,329 1359
CBE5  A2 55     LDX #$55                         A:44 X:AA Y:75 P:45 S:FB PPU:11 ,335 1361
CBE7  A0 66     LDY #$66                         A:44 X:55 Y:75 P:45 S:FB PPU:12 ,0   1363
CBE9  E8        INX                              A:44 X:55 Y:66 P:45 S:FB PPU:12 ,6   1365
CBEA  88        DEY                              A:44 X:56 Y:66 P:45 S:FB PPU:12 ,12  1367
CBEB  E0 56     CPX #$56                         A:44 X:56 Y:65 P:45 S:FB PPU:12 ,18  1369
CBED  D0 21     BNE $CC10                        A:44 X:56 Y:65 P:47 S:FB PPU:12 ,24  1371
CBEF  C0 65     CPY #$65                         A:44 X:56 Y:65 P:47 S:FB PPU:12 ,30  1373
CBF1  D0 1D     BNE $CC10                        A:44 X:56 Y:65 P:47 S:FB PPU:12 ,36  1375
CBF3  E8        INX                              A:44 X:56 Y:65 P:47 S:FB PPU:12 ,42  1377
CBF4  E8        INX                              A:44 X:57 Y:65 P:45 S:FB PPU:12 ,48  1379
CBF5  88        DEY                              A:44 X:58 Y:65 P:45 S:FB PPU:12 ,54  1381
CBF6  88        DEY                              A:44 X:58 Y:64 P:45 S:FB PPU:12 ,60  1383
CBF7  E0 58     CPX #$58                         A:44 X:58 Y:63 P:45 S:FB PPU:12 ,66  1385
CBF9  D0 15     BNE $CC10                        A:44 X:58 Y:63 P:47 S:FB PPU:12 ,72  1387
CBFB  C0 63     CPY #$63                         A:44 X:58 Y:63 P:47 S:FB PPU:12 ,78  1389
CBFD  D0 11     BNE $CC10                        A:44 X:58 Y:63 P:47 S:FB PPU:12 ,84  1391
CBFF  CA        DEX                              A:44 X:58 Y:63 P:47 S:FB PPU:12 ,90  1393
CC00  C8        INY                              A:44 X:57 Y:63 P:45 S:FB PPU:12 ,96  1395
CC01  E0 57     CPX #$57                         A:44 X:57 Y:64 P:45 S:FB PPU:12 ,102 1397
CC03  D0 0B     BNE $CC10                        A:44 X:57 Y:64 P:47 S:FB PPU:12 ,108 1399
CC05  C0 64     CPY #$64                         A:44 X:57 Y:64 P:47 S:FB PPU:12 ,114 1401
CC07  D0 07     BNE $CC10                        A:44 X:57 Y:64 P:47 S:FB PPU:12 ,120 1403
CC09  C9 44     CMP #$44                         A:44 X:57 Y:64 P:47 S:FB PPU:12 ,126 1405
CC0B  D0 03     BNE $CC10                        A:44 X:57 Y:64 P:47 S:FB PPU:12 ,132 1407
CC0D  4C 14 CC  JMP $CC14                        A:44 X:57 Y:64 P:47 S:FB PPU:12 ,138 1409
CC14  EA        NOP                              A:44 X:57 Y:64 P:47 S:FB PPU:12 ,147 1412
CC15  38        SEC                              A:44 X:57 Y:64 P:47 S:FB PPU:12 ,153 1414
CC16  A2 69     LDX #$69                         A:44 X:57 Y:64 P:47 S:FB PPU:12 ,159 1416
CC18  A9 96     LDA #$96                         A:44 X:69 Y:64 P:45 S:FB PPU:12 ,165 1418
CC1A  24 01     BIT $01 = $FF                    A:96 X:69 Y:64 P:C5 S:FB PPU:12 ,171 1420
CC1C  A0 FF     LDY #$FF                         A:96 X:69 Y:64 P:C5 S:FB PPU:12 ,180 1423
CC1E  C8        INY                              A:96 X:69 Y:FF P:C5 S:FB PPU:12 ,186 1425
CC1F  D0 3D     BNE $CC5E                        A:96 X:69 Y:00 P:47 S:FB PPU:12 ,192 1427
CC21  30 3B     BMI $CC5E                        A:96 X:69 Y:00 P:47 S:FB PPU:12 ,198 1429
CC23  90 39     BCC $CC5E                        A:96 X:69 Y:00 P:47 S:FB PPU:12 ,204 1431
CC25  50 37     BVC $CC5E                        A:96 X:69 Y:00 P:47 S:FB PPU:12 ,210 1433
CC27  C0 00     CPY #$00                         A:96 X:69 Y:00 P:47 S:FB PPU:12 ,216 1435
CC29  D0 33     BNE $CC5E                        A:96 X:69 Y:00 P:47 S:FB PPU:12 ,222 1437
CC2B  C8        INY                              A:96 X:69 Y:00 P:47 S:FB PPU:12 ,228 1439
CC2C  F0 30     BEQ $CC5E                        A:96 X:69 Y:01 P:45 S:FB PPU:12 ,234 1441
CC2E  30 2E     BMI $CC5E                        A:96 X:69 Y:01 P:45 S:FB PPU:12 ,240 1443
CC30  90 2C     BCC $CC5E                        A:96 X:69 Y:01 P:45 S:FB PPU:12 ,246 1445
CC32  50 2A     BVC $CC5E                        A:96 X:69 Y:01 P:45 S:FB PPU:12 ,252 1447
CC34  18        CLC                              A:96 X:69 Y:01 P:45 S:FB PPU:12 ,258 1449
CC35  B8        CLV                              A:96 X:69 Y:01 P:44 S:FB PPU:12 ,264 1451
CC36  A0 00     LDY #$00                         A:96 X:69 Y:01 P:04 S:FB PPU:12 ,270 1453
CC38  88        DEY                              A:96 X:69 Y:00 P:06 S:FB PPU:12 ,276 1455
CC39  F0 23     BEQ $CC5E                        A:96 X:69 Y:FF P:84 S:FB PPU:12 ,282 1457
CC3B  10 21     BPL $CC5E                        A:96 X:69 Y:FF P:84 S:FB PPU:12 ,288 1459
CC3D  B0 1F     BCS $CC5E                        A:96 X:69 Y:FF P:84 S:FB PPU:12 ,294 1461
CC3F  70 1D     BVS $CC5E                        A:96 X:69 Y:FF P:84 S:FB PPU:12 ,300 1463
CC41  C0 FF     CPY #$FF                         A:96 X:69 Y:FF P:84 S:FB PPU:12 ,306 1465
CC43  D0 19     BNE $CC5E                        A:96 X:69 Y:FF P:07 S:FB PPU:12 ,312 1467
CC45  18        CLC                              A:96 X:69 Y:FF P:07 S:FB PPU:12 ,318 1469
CC46  88        DEY                              A:96 X:69 Y:FF P:06 S:FB PPU:12 ,324 1471
CC47  F0 15     BEQ $CC5E                        A:96 X:69 Y:FE P:84 S:FB PPU:12 ,330 1473
CC49  10 13     BPL $CC5E                        A:96 X:69 Y:FE P:84 S:FB PPU:12 ,336 1475
CC4B  B0 11     BCS $CC5E                        A:96 X:69 Y:FE P:84 S:FB PPU:13 ,1   1477
CC4D  70 0F     BVS $CC5E                        A:96 X:69 Y:FE P:84 S:FB PPU:13 ,7   1479
CC4F  C0 FE     CPY #$FE                         A:96 X:69 Y:FE P:84 S:FB PPU:13 ,13  1481
CC51  D0 0B     BNE $CC5E                        A:96 X:69 Y:FE P:07 S:FB PPU:13 ,19  1483
CC53  C9 96     CMP #$96                         A:96 X:69 Y:FE P:07 S:FB PPU:13 ,25  1485
CC55  D0 07     BNE $CC5E                        A:96 X:69 Y:FE P:07 S:FB PPU:13 ,31  1487
CC57  E0 69     CPX #$69                         A:96 X:69 Y:FE P:07 S:FB PPU:13 ,37  1489
CC59  D0 03     BNE $CC5E                        A:96 X:69 Y:FE P:07 S:FB PPU:13 ,43  1491
CC5B  4C 62 CC  JMP $CC62                        A:96 X:69 Y:FE P:07 S:FB PPU:13 ,49  1493
CC62  EA        NOP                              A:96 X:69 Y:FE P:07 S:FB PPU:13 ,58  1496
CC63  38        SEC                              A:96 X:69 Y:FE P:07 S:FB PPU:13 ,64  1498
CC64  A0 69     LDY #$69                         A:96 X:69 Y:FE P:07 S:FB PPU:13 ,70  1500
CC66  A9 96     LDA #$96                         A:96 X:69 Y:69 P:05 S:FB PPU:13 ,76  1502
CC68  24 01     BIT $01 = $FF                    A:96 X:69 Y:69 P:85 S:FB PPU:13 ,82  1504
CC6A  A2 FF     LDX #$FF                         A:96 X:69 Y:69 P:C5 S:FB PPU:13 ,91  1507
CC6C  E8        INX                              A:96 X:FF Y:69 P:C5 S:FB PPU:13 ,97  1509
CC6D  D0 3D     BNE $CCAC                        A:96 X:00 Y:69 P:47 S:FB PPU:13 ,103 1511
CC6F  30 3B     BMI $CCAC                        A:96 X:00 Y:69 P:47 S:FB PPU:13 ,109 1513
CC71  90 39     BCC $CCAC                        A:96 X:00 Y:69 P:47 S:FB PPU:13 ,115 1515
CC73  50 37     BVC $CCAC                        A:96 X:00 Y:69 P:47 S:FB PPU:13 ,121 1517
CC75  E0 00     CPX #$00                         A:96 X:00 Y:69 P:47 S:FB PPU:13 ,127 1519
CC77  D0 33     BNE $CCAC                        A:96 X:00 Y:69 P:47 S:FB PPU:13 ,133 1521
CC79  E8        INX                              A:96 X:00 Y:69 P:47 S:FB PPU:13 ,139 1523
CC7A  F0 30     BEQ $CCAC                        A:96 X:01 Y:69 P:45 S:FB PPU:13 ,145 1525
CC7C  30 2E     BMI $CCAC                        A:96 X:01 Y:69 P:45 S:FB PPU:13 ,151 1527
CC7E  90 2C     BCC $CCAC                        A:96 X:01 Y:69 P:45 S:FB PPU:13 ,157 1529
CC80  50 2A     BVC $CCAC                        A:96 X:01 Y:69 P:45 S:FB PPU:13 ,163 1531
CC82  18        CLC                              A:96 X:01 Y:69 P:45 S:FB PPU:13 ,169 1533
CC83  B8        CLV                              A:96 X:01 Y:69 P:44 S:FB PPU:13 ,175 1535
CC84  A2 00     LDX #$00                         A:96 X:01 Y:69 P:04 S:FB PPU:13 ,181 1537
CC86  CA        DEX                              A:96 X:00 Y:69 P:06 S:FB PPU:13 ,187 1539
CC87  F0 23     BEQ $CCAC                        A:96 X:FF Y:69 P:84 S:FB PPU:13 ,193 1541
CC89  10 21     BPL $CCAC                        A:96 X:FF Y:69 P:84 S:FB PPU:13 ,199 1543
CC8B  B0 1F     BCS $CCAC                        A:96 X:FF Y:69 P:84 S:FB PPU:13 ,205 1545
CC8D  70 1D     BVS $CCAC                        A:96 X:FF Y:69 P:84 S:FB PPU:13 ,211 1547
CC8F  E0 FF     CPX #$FF                         A:96 X:FF Y:69 P:84 S:FB PPU:13 ,217 1549
CC91  D0 19     BNE $CCAC                        A:96 X:FF Y:69 P:07 S:FB PPU:13 ,223 1551
CC93  18        CLC                              A:96 X:FF Y:69 P:07 S:FB PPU:13 ,229 1553
CC94  CA        DEX                              A:96 X:FF Y:69 P:06 S:FB PPU:13 ,235 1555
CC95  F0 15     BEQ $CCAC                        A:96 X:FE Y:69 P:84 S:FB PPU:13 ,241 1557
CC97  10 13     BPL $CCAC                        A:96 X:FE Y:69 P:84 S:FB PPU:13 ,247 1559
CC99  B0 11     BCS $CCAC                        A:96 X:FE Y:69 P:84 S:FB PPU:13 ,253 1561
CC9B  70 0F     BVS $CCAC                        A:96 X:FE Y:69 P:84 S:FB PPU:13 ,259 1563
CC9D  E0 FE     CPX #$FE                         A:96 X:FE Y:69 P:84 S:FB PPU:13 ,265 1565
CC9F  D0 0B     BNE $CCAC                        A:96 X:FE Y:69 P:07 S:FB PPU:13 ,271 1567
CCA1  C9 96     CMP #$96                         A:96 X:FE Y:69 P:07 S:FB PPU:13 ,277 1569
CCA3  D0 07     BNE $CCAC                        A:96 X:FE Y:69 P:07 S:FB PPU:13 ,283 1571
CCA5  C0 69     CPY #$69                         A:96 X:FE Y:69 P:07 S:FB PPU:13 ,289 1573
CCA7  D0 03     BNE $CCAC                        A:96 X:FE Y:69 P:07 S:FB PPU:13 ,295 1575
CCA9  4C B0 CC  JMP $CCB0                        A:96 X:FE Y:69 P:07 S:FB PPU:13 ,301 1577
CCB0  EA        NOP                              A:96 X:FE Y:69 P:07 S:FB PPU:13 ,310 1580
CCB1  A9 85     LDA #$85                         A:96 X:FE Y:69 P:07 S:FB PPU:13 ,316 1582
CCB3  A2 34     LDX #$34                         A:85 X:FE Y:69 P:85 S:FB PPU:13 ,322 1584
CCB5  A0 99     LDY #$99                         A:85 X:34 Y:69 P:05 S:FB PPU:13 ,328 1586
CCB7  18        CLC                              A:85 X:34 Y:99 P:85 S:FB PPU:13 ,334 1588
CCB8  24 01     BIT $01 = $FF                    A:85 X:34 Y:99 P:84 S:FB PPU:13 ,340 1590
CCBA  A8        TAY                              A:85 X:34 Y:99 P:C4 S:FB PPU:14 ,8   1593
CCBB  F0 2E     BEQ $CCEB                        A:85 X:34 Y:85 P:C4 S:FB PPU:14 ,14  1595
CCBD  B0 2C     BCS $CCEB                        A:85 X:34 Y:85 P:C4 S:FB PPU:14 ,20  1597
CCBF  50 2A     BVC $CCEB                        A:85 X:34 Y:85 P:C4 S:FB PPU:14 ,26  1599
CCC1  10 28     BPL $CCEB                        A:85 X:34 Y:85 P:C4 S:FB PPU:14 ,32  1601
CCC3  C9 85     CMP #$85                         A:85 X:34 Y:85 P:C4 S:FB PPU:14 ,38  1603
CCC5  D0 24     BNE $CCEB                        A:85 X:34 Y:85 P:47 S:FB PPU:14 ,44  1605
CCC7  E0 34     CPX #$34                         A:85 X:34 Y:85 P:47 S:FB PPU:14 ,50  1607
CCC9  D0 20     BNE $CCEB                        A:85 X:34 Y:85 P:47 S:FB PPU:14 ,56  1609
CCCB  C0 85     CPY #$85                         A:85 X:34 Y:85 P:47 S:FB PPU:14 ,62  1611
CCCD  D0 1C     BNE $CCEB                        A:85 X:34 Y:85 P:47 S:FB PPU:14 ,68  1613
CCCF  A9 00     LDA #$00                         A:85 X:34 Y:85 P:47 S:FB PPU:14 ,74  1615
CCD1  38        SEC                              A:00 X:34 Y:85 P:47 S:FB PPU:14 ,80  1617
CCD2  B8        CLV                              A:00 X:34 Y:85 P:47 S:FB PPU:14 ,86  1619
CCD3  A8        TAY                              A:00 X:34 Y:85 P:07 S:FB PPU:14 ,92  1621
CCD4  D0 15     BNE $CCEB                        A:00 X:34 Y:00 P:07 S:FB PPU:14 ,98  1623
CCD6  90 13     BCC $CCEB                        A:00 X:34 Y:00 P:07 S:FB PPU:14 ,104 1625
CCD8  70 11     BVS $CCEB                        A:00 X:34 Y:00 P:07 S:FB PPU:14 ,110 1627
CCDA  30 0F     BMI $CCEB                        A:00 X:34 Y:00 P:07 S:FB PPU:14 ,116 1629
CCDC  C9 00     CMP #$00                         A:00 X:34 Y:00 P:07 S:FB PPU:14 ,122 1631
CCDE  D0 0B     BNE $CCEB                        A:00 X:34 Y:00 P:07 S:FB PPU:14 ,128 1633
CCE0  E0 34     CPX #$34                         A:00 X:34 Y:00 P:07 S:FB PPU:14 ,134 1635
CCE2  D0 07     BNE $CCEB                        A:00 X:34 Y:00 P:07 S:FB PPU:14 ,140 1637
CCE4  C0 00     CPY #$00                         A:00 X:34 Y:00 P:07 S:FB PPU:14 ,146 1639
CCE6  D0 03     BNE $CCEB                        A:00 X:34 Y:00 P:07 S:FB PPU:14 ,152 1641
CCE8  4C EF CC  JMP $CCEF                        A:00 X:34 Y:00 P:07 S:FB PPU:14 ,158 1643
CCEF  EA        NOP                              A:00 X:34 Y:00 P:07 S:FB PPU:14 ,167 1646
CCF0  A9 85     LDA #$85                         A:00 X:34 Y:00 P:07 S:FB PPU:14 ,173 1648
CCF2  A2 34     LDX #$34                         A:85 X:34 Y:00 P:85 S:FB PPU:14 ,179 1650
CCF4  A0 99     LDY #$99                         A:85 X:34 Y:00 P:05 S:FB PPU:14 ,185 1652
CCF6  18        CLC                              A:85 X:34 Y:99 P:85 S:FB PPU:14 ,191 1654
CCF7  24 01     BIT $01 = $FF                    A:85 X:34 Y:99 P:84 S:FB PPU:14 ,197 1656
CCF9  AA        TAX                              A:85 X:34 Y:99 P:C4 S:FB PPU:14 ,206 1659
CCFA  F0 2E     BEQ $CD2A                        A:85 X:85 Y:99 P:C4 S:FB PPU:14 ,212 1661
CCFC  B0 2C     BCS $CD2A                        A:85 X:85 Y:99 P:C4 S:FB PPU:14 ,218 1663
CCFE  50 2A     BVC $CD2A                        A:85 X:85 Y:99 P:C4 S:FB PPU:14 ,224 1665
CD00  10 28     BPL $CD2A                        A:85 X:85 Y:99 P:C4 S:FB PPU:14 ,230 1667
CD02  C9 85     CMP #$85                         A:85 X:85 Y:99 P:C4 S:FB PPU:14 ,236 1669
CD04  D0 24     BNE $CD2A                        A:85 X:85 Y:99 P:47 S:FB PPU:14 ,242 1671
CD06  E0 85     CPX #$85                         A:85 X:85 Y:99 P:47 S:FB PPU:14 ,248 1673
CD08  D0 20     BNE $CD2A                        A:85 X:85 Y:99 P:47 S:FB PPU:14 ,254 1675
CD0A  C0 99     CPY #$99                         A:85 X:85 Y:99 P:47 S:FB PPU:14 ,260 1677
CD0C  D0 1C     BNE $CD2A                        A:85 X:85 Y:99 P:47 S:FB PPU:14 ,266 1679
CD0E  A9 00     LDA #$00                         A:85 X:85 Y:99 P:47 S:FB PPU:14 ,272 1681
CD10  38        SEC                              A:00 X:85 Y:99 P:47 S:FB PPU:14 ,278 1683
CD11  B8        CLV                              A:00 X:85 Y:99 P:47 S:FB PPU:14 ,284 1685
CD12  AA        TAX                              A:00 X:85 Y:99 P:07 S:FB PPU:14 ,290 1687
CD13  D0 15     BNE $CD2A                        A:00 X:00 Y:99 P:07 S:FB PPU:14 ,296 1689
CD15  90 13     BCC $CD2A                        A:00 X:00 Y:99 P:07 S:FB PPU:14 ,302 1691
CD17  70 11     BVS $CD2A                        A:00 X:00 Y:99 P:07 S:FB PPU:14 ,308 1693
CD19  30 0F     BMI $CD2A                        A:00 X:00 Y:99 P:07 S:FB PPU:14 ,314 1695
CD1B  C9 00     CMP #$00                         A:00 X:00 Y:99 P:07 S:FB PPU:14 ,320 1697
CD1D  D0 0B     BNE $CD2A                        A:00 X:00 Y:99 P:07 S:FB PPU:14 ,326 1699
CD1F  E0 00     CPX #$00                         A:00 X:00 Y:99 P:07 S:FB PPU:14 ,332 1701
CD21  D0 07     BNE $CD2A                        A:00 X:00 Y:99 P:07 S:FB PPU:14 ,338 1703
CD23  C0 99     CPY #$99                         A:00 X:00 Y:99 P:07 S:FB PPU:15 ,3   1705
CD25  D0 03     BNE $CD2A                        A:00 X:00 Y:99 P:07 S:FB PPU:15 ,9   1707
CD27  4C 2E CD  JMP $CD2E                        A:00 X:00 Y:99 P:07 S:FB PPU:15 ,15  1709
CD2E  EA        NOP                              A:00 X:00 Y:99 P:07 S:FB PPU:15 ,24  1712
CD2F  A9 85     LDA #$85                         A:00 X:00 Y:99 P:07 S:FB PPU:15 ,30  1714
CD31  A2 34     LDX #$34                         A:85 X:00 Y:99 P:85 S:FB PPU:15 ,36  1716
CD33  A0 99     LDY #$99                         A:85 X:34 Y:99 P:05 S:FB PPU:15 ,42  1718
CD35  18        CLC                              A:85 X:34 Y:99 P:85 S:FB PPU:15 ,48  1720
CD36  24 01     BIT $01 = $FF                    A:85 X:34 Y:99 P:84 S:FB PPU:15 ,54  1722
CD38  98        TYA                              A:85 X:34 Y:99 P:C4 S:FB PPU:15 ,63  1725
CD39  F0 2E     BEQ $CD69                        A:99 X:34 Y:99 P:C4 S:FB PPU:15 ,69  1727
CD3B  B0 2C     BCS $CD69                        A:99 X:34 Y:99 P:C4 S:FB PPU:15 ,75  1729
CD3D  50 2A     BVC $CD69                        A:99 X:34 Y:99 P:C4 S:FB PPU:15 ,81  1731
CD3F  10 28     BPL $CD69                        A:99 X:34 Y:99 P:C4 S:FB PPU:15 ,87  1733
CD41  C9 99     CMP #$99                         A:99 X:34 Y:99 P:C4 S:FB PPU:15 ,93  1735
CD43  D0 24     BNE $CD69                        A:99 X:34 Y:99 P:47 S:FB PPU:15 ,99  1737
CD45  E0 34     CPX #$34                         A:99 X:34 Y:99 P:47 S:FB PPU:15 ,105 1739
CD47  D0 20     BNE $CD69                        A:99 X:34 Y:99 P:47 S:FB PPU:15 ,111 1741
CD49  C0 99     CPY #$99                         A:99 X:34 Y:99 P:47 S:FB PPU:15 ,117 1743
CD4B  D0 1C     BNE $CD69                        A:99 X:34 Y:99 P:47 S:FB PPU:15 ,123 1745
CD4D  A0 00     LDY #$00                         A:99 X:34 Y:99 P:47 S:FB PPU:15 ,129 1747
CD4F  38        SEC                              A:99 X:34 Y:00 P:47 S:FB PPU:15 ,135 1749
CD50  B8        CLV                              A:99 X:34 Y:00 P:47 S:FB PPU:15 ,141 1751
CD51  98        TYA                              A:99 X:34 Y:00 P:07 S:FB PPU:15 ,147 1753
CD52  D0 15     BNE $CD69                        A:00 X:34 Y:00 P:07 S:FB PPU:15 ,153 1755
CD54  90 13     BCC $CD69                        A:00 X:34 Y:00 P:07 S:FB PPU:15 ,159 1757
CD56  70 11     BVS $CD69                        A:00 X:34 Y:00 P:07 S:FB PPU:15 ,165 1759
CD58  30 0F     BMI $CD69                        A:00 X:34 Y:00 P:07 S:FB PPU:15 ,171 1761
CD5A  C9 00     CMP #$00                         A:00 X:34 Y:00 P:07 S:FB PPU:15 ,177 1763
CD5C  D0 0B     BNE $CD69                        A:00 X:34 Y:00 P:07 S:FB PPU:15 ,183 1765
CD5E  E0 34     CPX #$34                         A:00 X:34 Y:00 P:07 S:FB PPU:15 ,189 1767
CD60  D0 07     BNE $CD69                        A:00 X:34 Y:00 P:07 S:FB PPU:15 ,195 1769
CD62  C0 00     CPY #$00                         A:00 X:34 Y:00 P:07 S:FB PPU:15 ,201 1771
CD64  D0 03     BNE $CD69                        A:00 X:34 Y:00 P:07 S:FB PPU:15 ,207 1773
CD66  4C 6D CD  JMP $CD6D                        A:00 X:34 Y:00 P:07 S:FB PPU:15 ,213 1775
CD6D  EA        NOP                              A:00 X:34 Y:00 P:07 S:FB PPU:15 ,222 1778
CD6E  A9 85     LDA #$85                         A:00 X:34 Y:00 P:07 S:FB PPU:15 ,228 1780
CD70  A2 34     LDX #$34                         A:85 X:34 Y:00 P:85 S:FB PPU:15 ,234 1782
CD72  A0 99     LDY #$99                         A:85 X:34 Y:00 P:05 S:FB PPU:15 ,240 1784
CD74  18        CLC                              A:85 X:34 Y:99 P:85 S:FB PPU:15 ,246 1786
CD75  24 01     BIT $01 = $FF                    A:85 X:34 Y:99 P:84 S:FB PPU:15 ,252 1788
CD77  8A        TXA                              A:85 X:34 Y:99 P:C4 S:FB PPU:15 ,261 1791
CD78  F0 2E     BEQ $CDA8                        A:34 X:34 Y:99 P:44 S:FB PPU:15 ,267 1793
CD7A  B0 2C     BCS $CDA8                        A:34 X:34 Y:99 P:44 S:FB PPU:15 ,273 1795
CD7C  50 2A     BVC $CDA8                        A:34 X:34 Y:99 P:44 S:FB PPU:15 ,279 1797
CD7E  30 28     BMI $CDA8                        A:34 X:34 Y:99 P:44 S:FB PPU:15 ,285 1799
CD80  C9 34     CMP #$34                         A:34 X:34 Y:99 P:44 S:FB PPU:15 ,291 1801
CD82  D0 24     BNE $CDA8                        A:34 X:34 Y:99 P:47 S:FB PPU:15 ,297 1803
CD84  E0 34     CPX #$34                         A:34 X:34 Y:99 P:47 S:FB PPU:15 ,303 1805
CD86  D0 20     BNE $CDA8                        A:34 X:34 Y:99 P:47 S:FB PPU:15 ,309 1807
CD88  C0 99     CPY #$99                         A:34 X:34 Y:99 P:47 S:FB PPU:15 ,315 1809
CD8A  D0 1C     BNE $CDA8                        A:34 X:34 Y:99 P:47 S:FB PPU:15 ,321 1811
CD8C  A2 00     LDX #$00                         A:34 X:34 Y:99 P:47 S:FB PPU:15 ,327 1813
CD8E  38        SEC                              A:34 X:00 Y:99 P:47 S:FB PPU:15 ,333 1815
CD8F  B8        CLV                              A:34 X:00 Y:99 P:47 S:FB PPU:15 ,339 1817
CD90  8A        TXA                              A:34 X:00 Y:99 P:07 S:FB PPU:16 ,4   1819
CD91  D0 15     BNE $CDA8                        A:00 X:00 Y:99 P:07 S:FB PPU:16 ,10  1821
CD93  90 13     BCC $CDA8                        A:00 X:00 Y:99 P:07 S:FB PPU:16 ,16  1823
CD95  70 11     BVS $CDA8                        A:00 X:00 Y:99 P:07 S:FB PPU:16 ,22  1825
CD97  30 0F     BMI $CDA8                        A:00 X:00 Y:99 P:07 S:FB PPU:16 ,28  1827
CD99  C9 00     CMP #$00                         A:00 X:00 Y:99 P:07 S:FB PPU:16 ,34  1829
CD9B  D0 0B     BNE $CDA8                        A:00 X:00 Y:99 P:07 S:FB PPU:16 ,40  1831
CD9D  E0 00     CPX #$00                         A:00 X:00 Y:99 P:07 S:FB PPU:16 ,46  1833
CD9F  D0 07     BNE $CDA8                        A:00 X:00 Y:99 P:07 S:FB PPU:16 ,52  1835
CDA1  C0 99     CPY #$99                         A:00 X:00 Y:99 P:07 S:FB PPU:16 ,58  1837
CDA3  D0 03     BNE $CDA8                        A:00 X:00 Y:99 P:07 S:FB PPU:16 ,64  1839
CDA5  4C AC CD  JMP $CDAC                        A:00 X:00 Y:99 P:07 S:FB PPU:16 ,70  1841
CDAC  EA        NOP                              A:00 X:00 Y:99 P:07 S:FB PPU:16 ,79  1844
CDAD  BA        TSX                              A:00 X:00 Y:99 P:07 S:FB PPU:16 ,85  1846
CDAE  8E FF 07  STX $07FF = $00                  A:00 X:FB Y:99 P:85 S:FB PPU:16 ,91  1848
CDB1  A0 33     LDY #$33                         A:00 X:FB Y:99 P:85 S:FB PPU:16 ,103 1852
CDB3  A2 69     LDX #$69                         A:00 X:FB Y:33 P:05 S:FB PPU:16 ,109 1854
CDB5  A9 84     LDA #$84                         A:00 X:69 Y:33 P:05 S:FB PPU:16 ,115 1856
CDB7  18        CLC                              A:84 X:69 Y:33 P:85 S:FB PPU:16 ,121 1858
CDB8  24 01     BIT $01 = $FF                    A:84 X:69 Y:33 P:84 S:FB PPU:16 ,127 1860
CDBA  9A        TXS                              A:84 X:69 Y:33 P:C4 S:FB PPU:16 ,136 1863
CDBB  F0 32     BEQ $CDEF                        A:84 X:69 Y:33 P:C4 S:69 PPU:16 ,142 1865
CDBD  10 30     BPL $CDEF                        A:84 X:69 Y:33 P:C4 S:69 PPU:16 ,148 1867
CDBF  B0 2E     BCS $CDEF                        A:84 X:69 Y:33 P:C4 S:69 PPU:16 ,154 1869
CDC1  50 2C     BVC $CDEF                        A:84 X:69 Y:33 P:C4 S:69 PPU:16 ,160 1871
CDC3  C9 84     CMP #$84                         A:84 X:69 Y:33 P:C4 S:69 PPU:16 ,166 1873
CDC5  D0 28     BNE $CDEF                        A:84 X:69 Y:33 P:47 S:69 PPU:16 ,172 1875
CDC7  E0 69     CPX #$69                         A:84 X:69 Y:33 P:47 S:69 PPU:16 ,178 1877
CDC9  D0 24     BNE $CDEF                        A:84 X:69 Y:33 P:47 S:69 PPU:16 ,184 1879
CDCB  C0 33     CPY #$33                         A:84 X:69 Y:33 P:47 S:69 PPU:16 ,190 1881
CDCD  D0 20     BNE $CDEF                        A:84 X:69 Y:33 P:47 S:69 PPU:16 ,196 1883
CDCF  A0 01     LDY #$01                         A:84 X:69 Y:33 P:47 S:69 PPU:16 ,202 1885
CDD1  A9 04     LDA #$04                         A:84 X:69 Y:01 P:45 S:69 PPU:16 ,208 1887
CDD3  38        SEC                              A:04 X:69 Y:01 P:45 S:69 PPU:16 ,214 1889
CDD4  B8        CLV                              A:04 X:69 Y:01 P:45 S:69 PPU:16 ,220 1891
CDD5  A2 00     LDX #$00                         A:04 X:69 Y:01 P:05 S:69 PPU:16 ,226 1893
CDD7  BA        TSX                              A:04 X:00 Y:01 P:07 S:69 PPU:16 ,232 1895
CDD8  F0 15     BEQ $CDEF                        A:04 X:69 Y:01 P:05 S:69 PPU:16 ,238 1897
CDDA  30 13     BMI $CDEF                        A:04 X:69 Y:01 P:05 S:69 PPU:16 ,244 1899
CDDC  90 11     BCC $CDEF                        A:04 X:69 Y:01 P:05 S:69 PPU:16 ,250 1901
CDDE  70 0F     BVS $CDEF                        A:04 X:69 Y:01 P:05 S:69 PPU:16 ,256 1903
CDE0  E0 69     CPX #$69                         A:04 X:69 Y:01 P:05 S:69 PPU:16 ,262 1905
CDE2  D0 0B     BNE $CDEF                        A:04 X:69 Y:01 P:07 S:69 PPU:16 ,268 1907
CDE4  C9 04     CMP #$04                         A:04 X:69 Y:01 P:07 S:69 PPU:16 ,274 1909
CDE6  D0 07     BNE $CDEF                        A:04 X:69 Y:01 P:07 S:69 PPU:16 ,280 1911
CDE8  C0 01     CPY #$01                         A:04 X:69 Y:01 P:07 S:69 PPU:16 ,286 1913
CDEA  D0 03     BNE $CDEF                        A:04 X:69 Y:01 P:07 S:69 PPU:16 ,292 1915
CDEC  4C F3 CD  JMP $CDF3                        A:04 X:69 Y:01 P:07 S:69 PPU:16 ,298 1917
CDF3  AE FF 07  LDX $07FF = $FB                  A:04 X:69 Y:01 P:07 S:69 PPU:16 ,307 1920
CDF6  9A        TXS                              A:04 X:FB Y:01 P:85 S:69 PPU:16 ,319 1924
CDF7  60        RTS                              A:04 X:FB Y:01 P:85 S:FB PPU:16 ,325 1926
C609  20 F8 CD  JSR $CDF8                        A:04 X:FB Y:01 P:85 S:FD PPU:17 ,2   1932
CDF8  A9 FF     LDA #$FF                         A:04 X:FB Y:01 P:85 S:FB PPU:17 ,20  1938
CDFA  85 01     STA $01 = $FF                    A:FF X:FB Y:01 P:85 S:FB PPU:17 ,26  1940
CDFC  BA        TSX                              A:FF X:FB Y:01 P:85 S:FB PPU:17 ,35  1943
CDFD  8E FF 07  STX $07FF = $FB                  A:FF X:FB Y:01 P:85 S:FB PPU:17 ,41  1945
CE00  EA        NOP                              A:FF X:FB Y:01 P:85 S:FB PPU:17 ,53  1949
CE01  A2 80     LDX #$80                         A:FF X:FB Y:01 P:85 S:FB PPU:17 ,59  1951
CE03  9A        TXS                              A:FF X:80 Y:01 P:85 S:FB PPU:17 ,65  1953
CE04  A9 33     LDA #$33                         A:FF X:80 Y:01 P:85 S:80 PPU:17 ,71  1955
CE06  48        PHA                              A:33 X:80 Y:01 P:05 S:80 PPU:17 ,77  1957
CE07  A9 69     LDA #$69                         A:33 X:80 Y:01 P:05 S:7F PPU:17 ,86  1960
CE09  48        PHA                              A:69 X:80 Y:01 P:05 S:7F PPU:17 ,92  1962
CE0A  BA        TSX                              A:69 X:80 Y:01 P:05 S:7E PPU:17 ,101 1965
CE0B  E0 7E     CPX #$7E                         A:69 X:7E Y:01 P:05 S:7E PPU:17 ,107 1967
CE0D  D0 20     BNE $CE2F                        A:69 X:7E Y:01 P:07 S:7E PPU:17 ,113 1969
CE0F  68        PLA                              A:69 X:7E Y:01 P:07 S:7E PPU:17 ,119 1971
CE10  C9 69     CMP #$69                         A:69 X:7E Y:01 P:05 S:7F PPU:17 ,131 1975
CE12  D0 1B     BNE $CE2F                        A:69 X:7E Y:01 P:07 S:7F PPU:17 ,137 1977
CE14  68        PLA                              A:69 X:7E Y:01 P:07 S:7F PPU:17 ,143 1979
CE15  C9 33     CMP #$33                         A:33 X:7E Y:01 P:05 S:80 PPU:17 ,155 1983
CE17  D0 16     BNE $CE2F                        A:33 X:7E Y:01 P:07 S:80 PPU:17 ,161 1985
CE19  BA        TSX                              A:33 X:7E Y:01 P:07 S:80 PPU:17 ,167 1987
CE1A  E0 80     CPX #$80                         A:33 X:80 Y:01 P:85 S:80 PPU:17 ,173 1989
CE1C  D0 11     BNE $CE2F                        A:33 X:80 Y:01 P:07 S:80 PPU:17 ,179 1991
CE1E  AD 80 01  LDA $0180 = $33                  A:33 X:80 Y:01 P:07 S:80 PPU:17 ,185 1993
CE21  C9 33     CMP #$33                         A:33 X:80 Y:01 P:05 S:80 PPU:17 ,197 1997
CE23  D0 0A     BNE $CE2F                        A:33 X:80 Y:01 P:07 S:80 PPU:17 ,203 1999
CE25  AD 7F 01  LDA $017F = $69                  A:33 X:80 Y:01 P:07 S:80 PPU:17 ,209 2001
CE28  C9 69     CMP #$69                         A:69 X:80 Y:01 P:05 S:80 PPU:17 ,221 2005
CE2A  D0 03     BNE $CE2F                        A:69 X:80 Y:01 P:07 S:80 PPU:17 ,227 2007
CE2C  4C 33 CE  JMP $CE33                        A:69 X:80 Y:01 P:07 S:80 PPU:17 ,233 2009
CE33  EA        NOP                              A:69 X:80 Y:01 P:07 S:80 PPU:17 ,242 2012
CE34  A2 80     LDX #$80                         A:69 X:80 Y:01 P:07 S:80 PPU:17 ,248 2014
CE36  9A        TXS                              A:69 X:80 Y:01 P:85 S:80 PPU:17 ,254 2016
CE37  20 3D CE  JSR $CE3D                        A:69 X:80 Y:01 P:85 S:80 PPU:17 ,260 2018
CE3D  BA        TSX                              A:69 X:80 Y:01 P:85 S:7E PPU:17 ,278 2024
CE3E  E0 7E     CPX #$7E                         A:69 X:7E Y:01 P:05 S:7E PPU:17 ,284 2026
CE40  D0 19     BNE $CE5B                        A:69 X:7E Y:01 P:07 S:7E PPU:17 ,290 2028
CE42  68        PLA                              A:69 X:7E Y:01 P:07 S:7E PPU:17 ,296 2030
CE43  68        PLA                              A:39 X:7E Y:01 P:05 S:7F PPU:17 ,308 2034
CE44  BA        TSX                              A:CE X:7E Y:01 P:85 S:80 PPU:17 ,320 2038
CE45  E0 80     CPX #$80                         A:CE X:80 Y:01 P:85 S:80 PPU:17 ,326 2040
CE47  D0 12     BNE $CE5B                        A:CE X:80 Y:01 P:07 S:80 PPU:17 ,332 2042
CE49  A9 00     LDA #$00                         A:CE X:80 Y:01 P:07 S:80 PPU:17 ,338 2044
CE4B  20 4E CE  JSR $CE4E                        A:00 X:80 Y:01 P:07 S:80 PPU:18 ,3   2046
CE4E  68        PLA                              A:00 X:80 Y:01 P:07 S:7E PPU:18 ,21  2052
CE4F  C9 4D     CMP #$4D                         A:4D X:80 Y:01 P:05 S:7F PPU:18 ,33  2056
CE51  D0 08     BNE $CE5B                        A:4D X:80 Y:01 P:07 S:7F PPU:18 ,39  2058
CE53  68        PLA                              A:4D X:80 Y:01 P:07 S:7F PPU:18 ,45  2060
CE54  C9 CE     CMP #$CE                         A:CE X:80 Y:01 P:85 S:80 PPU:18 ,57  2064
CE56  D0 03     BNE $CE5B                        A:CE X:80 Y:01 P:07 S:80 PPU:18 ,63  2066
CE58  4C 5F CE  JMP $CE5F                        A:CE X:80 Y:01 P:07 S:80 PPU:18 ,69  2068
CE5F  EA        NOP                              A:CE X:80 Y:01 P:07 S:80 PPU:18 ,78  2071
CE60  A9 CE     LDA #$CE                         A:CE X:80 Y:01 P:07 S:80 PPU:18 ,84  2073
CE62  48        PHA                              A:CE X:80 Y:01 P:85 S:80 PPU:18 ,90  2075
CE63  A9 66     LDA #$66                         A:CE X:80 Y:01 P:85 S:7F PPU:18 ,99  2078
CE65  48        PHA                              A:66 X:80 Y:01 P:05 S:7F PPU:18 ,105 2080
CE66  60        RTS                              A:66 X:80 Y:01 P:05 S:7E PPU:18 ,114 2083
CE67  A2 77     LDX #$77                         A:66 X:80 Y:01 P:05 S:80 PPU:18 ,132 2089
CE69  A0 69     LDY #$69                         A:66 X:77 Y:01 P:05 S:80 PPU:18 ,138 2091
CE6B  18        CLC                              A:66 X:77 Y:69 P:05 S:80 PPU:18 ,144 2093
CE6C  24 01     BIT $01 = $FF                    A:66 X:77 Y:69 P:04 S:80 PPU:18 ,150 2095
CE6E  A9 83     LDA #$83                         A:66 X:77 Y:69 P:C4 S:80 PPU:18 ,159 2098
CE70  20 66 CE  JSR $CE66                        A:83 X:77 Y:69 P:C4 S:80 PPU:18 ,165 2100
CE66  60        RTS                              A:83 X:77 Y:69 P:C4 S:7E PPU:18 ,183 2106
CE73  F0 24     BEQ $CE99                        A:83 X:77 Y:69 P:C4 S:80 PPU:18 ,201 2112
CE75  10 22     BPL $CE99                        A:83 X:77 Y:69 P:C4 S:80 PPU:18 ,207 2114
CE77  B0 20     BCS $CE99                        A:83 X:77 Y:69 P:C4 S:80 PPU:18 ,213 2116
CE79  50 1E     BVC $CE99                        A:83 X:77 Y:69 P:C4 S:80 PPU:18 ,219 2118
CE7B  C9 83     CMP #$83                         A:83 X:77 Y:69 P:C4 S:80 PPU:18 ,225 2120
CE7D  D0 1A     BNE $CE99                        A:83 X:77 Y:69 P:47 S:80 PPU:18 ,231 2122
CE7F  C0 69     CPY #$69                         A:83 X:77 Y:69 P:47 S:80 PPU:18 ,237 2124
CE81  D0 16     BNE $CE99                        A:83 X:77 Y:69 P:47 S:80 PPU:18 ,243 2126
CE83  E0 77     CPX #$77                         A:83 X:77 Y:69 P:47 S:80 PPU:18 ,249 2128
CE85  D0 12     BNE $CE99                        A:83 X:77 Y:69 P:47 S:80 PPU:18 ,255 2130
CE87  38        SEC                              A:83 X:77 Y:69 P:47 S:80 PPU:18 ,261 2132
CE88  B8        CLV                              A:83 X:77 Y:69 P:47 S:80 PPU:18 ,267 2134
CE89  A9 00     LDA #$00                         A:83 X:77 Y:69 P:07 S:80 PPU:18 ,273 2136
CE8B  20 66 CE  JSR $CE66                        A:00 X:77 Y:69 P:07 S:80 PPU:18 ,279 2138
CE66  60        RTS                              A:00 X:77 Y:69 P:07 S:7E PPU:18 ,297 2144
CE8E  D0 09     BNE $CE99                        A:00 X:77 Y:69 P:07 S:80 PPU:18 ,315 2150
CE90  30 07     BMI $CE99                        A:00 X:77 Y:69 P:07 S:80 PPU:18 ,321 2152
CE92  90 05     BCC $CE99                        A:00 X:77 Y:69 P:07 S:80 PPU:18 ,327 2154
CE94  70 03     BVS $CE99                        A:00 X:77 Y:69 P:07 S:80 PPU:18 ,333 2156
CE96  4C 9D CE  JMP $CE9D                        A:00 X:77 Y:69 P:07 S:80 PPU:18 ,339 2158
CE9D  EA        NOP                              A:00 X:77 Y:69 P:07 S:80 PPU:19 ,7   2161
CE9E  A9 CE     LDA #$CE                         A:00 X:77 Y:69 P:07 S:80 PPU:19 ,13  2163
CEA0  48        PHA                              A:CE X:77 Y:69 P:85 S:80 PPU:19 ,19  2165
CEA1  A9 AE     LDA #$AE                         A:CE X:77 Y:69 P:85 S:7F PPU:19 ,28  2168
CEA3  48        PHA                              A:AE X:77 Y:69 P:85 S:7F PPU:19 ,34  2170
CEA4  A9 65     LDA #$65                         A:AE X:77 Y:69 P:85 S:7E PPU:19 ,43  2173
CEA6  48        PHA                              A:65 X:77 Y:69 P:05 S:7E PPU:19 ,49  2175
CEA7  A9 55     LDA #$55                         A:65 X:77 Y:69 P:05 S:7D PPU:19 ,58  2178
CEA9  A0 88     LDY #$88                         A:55 X:77 Y:69 P:05 S:7D PPU:19 ,64  2180
CEAB  A2 99     LDX #$99                         A:55 X:77 Y:88 P:85 S:7D PPU:19 ,70  2182
CEAD  40        RTI                              A:55 X:99 Y:88 P:85 S:7D PPU:19 ,76  2184
CEAE  30 35     BMI $CEE5                        A:55 X:99 Y:88 P:45 S:80 PPU:19 ,94  2190
CEB0  50 33     BVC $CEE5                        A:55 X:99 Y:88 P:45 S:80 PPU:19 ,100 2192
CEB2  F0 31     BEQ $CEE5                        A:55 X:99 Y:88 P:45 S:80 PPU:19 ,106 2194
CEB4  90 2F     BCC $CEE5                        A:55 X:99 Y:88 P:45 S:80 PPU:19 ,112 2196
CEB6  C9 55     CMP #$55                         A:55 X:99 Y:88 P:45 S:80 PPU:19 ,118 2198
CEB8  D0 2B     BNE $CEE5                        A:55 X:99 Y:88 P:47 S:80 PPU:19 ,124 2200
CEBA  C0 88     CPY #$88                         A:55 X:99 Y:88 P:47 S:80 PPU:19 ,130 2202
CEBC  D0 27     BNE $CEE5                        A:55 X:99 Y:88 P:47 S:80 PPU:19 ,136 2204
CEBE  E0 99     CPX #$99                         A:55 X:99 Y:88 P:47 S:80 PPU:19 ,142 2206
CEC0  D0 23     BNE $CEE5                        A:55 X:99 Y:88 P:47 S:80 PPU:19 ,148 2208
CEC2  A9 CE     LDA #$CE                         A:55 X:99 Y:88 P:47 S:80 PPU:19 ,154 2210
CEC4  48        PHA                              A:CE X:99 Y:88 P:C5 S:80 PPU:19 ,160 2212
CEC5  A9 CE     LDA #$CE                         A:CE X:99 Y:88 P:C5 S:7F PPU:19 ,169 2215
CEC7  48        PHA                              A:CE X:99 Y:88 P:C5 S:7F PPU:19 ,175 2217
CEC8  A9 87     LDA #$87                         A:CE X:99 Y:88 P:C5 S:7E PPU:19 ,184 2220
CECA  48        PHA                              A:87 X:99 Y:88 P:C5 S:7E PPU:19 ,190 2222
CECB  A9 55     LDA #$55                         A:87 X:99 Y:88 P:C5 S:7D PPU:19 ,199 2225
CECD  40        RTI                              A:55 X:99 Y:88 P:45 S:7D PPU:19 ,205 2227
CECE  10 15     BPL $CEE5                        A:55 X:99 Y:88 P:87 S:80 PPU:19 ,223 2233
CED0  70 13     BVS $CEE5                        A:55 X:99 Y:88 P:87 S:80 PPU:19 ,229 2235
CED2  D0 11     BNE $CEE5                        A:55 X:99 Y:88 P:87 S:80 PPU:19 ,235 2237
CED4  90 0F     BCC $CEE5                        A:55 X:99 Y:88 P:87 S:80 PPU:19 ,241 2239
CED6  C9 55     CMP #$55                         A:55 X:99 Y:88 P:87 S:80 PPU:19 ,247 2241
CED8  D0 0B     BNE $CEE5                        A:55 X:99 Y:88 P:07 S:80 PPU:19 ,253 2243
CEDA  C0 88     CPY #$88                         A:55 X:99 Y:88 P:07 S:80 PPU:19 ,259 2245
CEDC  D0 07     BNE $CEE5                        A:55 X:99 Y:88 P:07 S:80 PPU:19 ,265 2247
CEDE  E0 99     CPX #$99                         A:55 X:99 Y:88 P:07 S:80 PPU:19 ,271 2249
CEE0  D0 03     BNE $CEE5                        A:55 X:99 Y:88 P:07 S:80 PPU:19 ,277 2251
CEE2  4C E9 CE  JMP $CEE9                        A:55 X:99 Y:88 P:07 S:80 PPU:19 ,283 2253
CEE9  AE FF 07  LDX $07FF = $FB                  A:55 X:99 Y:88 P:07 S:80 PPU:19 ,292 2256
CEEC  9A        TXS                              A:55 X:FB Y:88 P:85 S:80 PPU:19 ,304 2260
CEED  60        RTS                              A:55 X:FB Y:88 P:85 S:FB PPU:19 ,310 2262
C60C  20 EE CE  JSR $CEEE                        A:55 X:FB Y:88 P:85 S:FD PPU:19 ,328 2268
CEEE  A2 55     LDX #$55                         A:55 X:FB Y:88 P:85 S:FB PPU:20 ,5   2274
CEF0  A0 69     LDY #$69                         A:55 X:55 Y:88 P:05 S:FB PPU:20 ,11  2276
CEF2  A9 FF     LDA #$FF                         A:55 X:55 Y:69 P:05 S:FB PPU:20 ,17  2278
CEF4  85 01     STA $01 = $FF                    A:FF X:55 Y:69 P:85 S:FB PPU:20 ,23  2280
CEF6  EA        NOP                              A:FF X:55 Y:69 P:85 S:FB PPU:20 ,32  2283
CEF7  24 01     BIT $01 = $FF                    A:FF X:55 Y:69 P:85 S:FB PPU:20 ,38  2285
CEF9  38        SEC                              A:FF X:55 Y:69 P:C5 S:FB PPU:20 ,47  2288
CEFA  A9 01     LDA #$01                         A:FF X:55 Y:69 P:C5 S:FB PPU:20 ,53  2290
CEFC  4A        LSR A                            A:01 X:55 Y:69 P:45 S:FB PPU:20 ,59  2292
CEFD  90 1D     BCC $CF1C                        A:00 X:55 Y:69 P:47 S:FB PPU:20 ,65  2294
CEFF  D0 1B     BNE $CF1C                        A:00 X:55 Y:69 P:47 S:FB PPU:20 ,71  2296
CF01  30 19     BMI $CF1C                        A:00 X:55 Y:69 P:47 S:FB PPU:20 ,77  2298
CF03  50 17     BVC $CF1C                        A:00 X:55 Y:69 P:47 S:FB PPU:20 ,83  2300
CF05  C9 00     CMP #$00                         A:00 X:55 Y:69 P:47 S:FB PPU:20 ,89  2302
CF07  D0 13     BNE $CF1C                        A:00 X:55 Y:69 P:47 S:FB PPU:20 ,95  2304
CF09  B8        CLV                              A:00 X:55 Y:69 P:47 S:FB PPU:20 ,101 2306
CF0A  A9 AA     LDA #$AA                         A:00 X:55 Y:69 P:07 S:FB PPU:20 ,107 2308
CF0C  4A        LSR A                            A:AA X:55 Y:69 P:85 S:FB PPU:20 ,113 2310
CF0D  B0 0D     BCS $CF1C                        A:55 X:55 Y:69 P:04 S:FB PPU:20 ,119 2312
CF0F  F0 0B     BEQ $CF1C                        A:55 X:55 Y:69 P:04 S:FB PPU:20 ,125 2314
CF11  30 09     BMI $CF1C                        A:55 X:55 Y:69 P:04 S:FB PPU:20 ,131 2316
CF13  70 07     BVS $CF1C                        A:55 X:55 Y:69 P:04 S:FB PPU:20 ,137 2318
CF15  C9 55     CMP #$55                         A:55 X:55 Y:69 P:04 S:FB PPU:20 ,143 2320
CF17  D0 03     BNE $CF1C                        A:55 X:55 Y:69 P:07 S:FB PPU:20 ,149 2322
CF19  4C 20 CF  JMP $CF20                        A:55 X:55 Y:69 P:07 S:FB PPU:20 ,155 2324
CF20  EA        NOP                              A:55 X:55 Y:69 P:07 S:FB PPU:20 ,164 2327
CF21  24 01     BIT $01 = $FF                    A:55 X:55 Y:69 P:07 S:FB PPU:20 ,170 2329
CF23  38        SEC                              A:55 X:55 Y:69 P:C5 S:FB PPU:20 ,179 2332
CF24  A9 80     LDA #$80                         A:55 X:55 Y:69 P:C5 S:FB PPU:20 ,185 2334
CF26  0A        ASL A                            A:80 X:55 Y:69 P:C5 S:FB PPU:20 ,191 2336
CF27  90 1E     BCC $CF47                        A:00 X:55 Y:69 P:47 S:FB PPU:20 ,197 2338
CF29  D0 1C     BNE $CF47                        A:00 X:55 Y:69 P:47 S:FB PPU:20 ,203 2340
CF2B  30 1A     BMI $CF47                        A:00 X:55 Y:69 P:47 S:FB PPU:20 ,209 2342
CF2D  50 18     BVC $CF47                        A:00 X:55 Y:69 P:47 S:FB PPU:20 ,215 2344
CF2F  C9 00     CMP #$00                         A:00 X:55 Y:69 P:47 S:FB PPU:20 ,221 2346
CF31  D0 14     BNE $CF47                        A:00 X:55 Y:69 P:47 S:FB PPU:20 ,227 2348
CF33  B8        CLV                              A:00 X:55 Y:69 P:47 S:FB PPU:20 ,233 2350
CF34  38        SEC                              A:00 X:55 Y:69 P:07 S:FB PPU:20 ,239 2352
CF35  A9 55     LDA #$55                         A:00 X:55 Y:69 P:07 S:FB PPU:20 ,245 2354
CF37  0A        ASL A                            A:55 X:55 Y:69 P:05 S:FB PPU:20 ,251 2356
CF38  B0 0D     BCS $CF47                        A:AA X:55 Y:69 P:84 S:FB PPU:20 ,257 2358
CF3A  F0 0B     BEQ $CF47                        A:AA X:55 Y:69 P:84 S:FB PPU:20 ,263 2360
CF3C  10 09     BPL $CF47                        A:AA X:55 Y:69 P:84 S:FB PPU:20 ,269 2362
CF3E  70 07     BVS $CF47                        A:AA X:55 Y:69 P:84 S:FB PPU:20 ,275 2364
CF40  C9 AA     CMP #$AA                         A:AA X:55 Y:69 P:84 S:FB PPU:20 ,281 2366
CF42  D0 03     BNE $CF47                        A:AA X:55 Y:69 P:07 S:FB PPU:20 ,287 2368
CF44  4C 4B CF  JMP $CF4B                        A:AA X:55 Y:69 P:07 S:FB PPU:20 ,293 2370
CF4B  EA        NOP                              A:AA X:55 Y:69 P:07 S:FB PPU:20 ,302 2373
CF4C  24 01     BIT $01 = $FF                    A:AA X:55 Y:69 P:07 S:FB PPU:20 ,308 2375
CF4E  38        SEC                              A:AA X:55 Y:69 P:C5 S:FB PPU:20 ,317 2378
CF4F  A9 01     LDA #$01                         A:AA X:55 Y:69 P:C5 S:FB PPU:20 ,323 2380
CF51  6A        ROR A                            A:01 X:55 Y:69 P:45 S:FB PPU:20 ,329 2382
CF52  90 1E     BCC $CF72                        A:80 X:55 Y:69 P:C5 S:FB PPU:20 ,335 2384
CF54  F0 1C     BEQ $CF72                        A:80 X:55 Y:69 P:C5 S:FB PPU:21 ,0   2386
CF56  10 1A     BPL $CF72                        A:80 X:55 Y:69 P:C5 S:FB PPU:21 ,6   2388
CF58  50 18     BVC $CF72                        A:80 X:55 Y:69 P:C5 S:FB PPU:21 ,12  2390
CF5A  C9 80     CMP #$80                         A:80 X:55 Y:69 P:C5 S:FB PPU:21 ,18  2392
CF5C  D0 14     BNE $CF72                        A:80 X:55 Y:69 P:47 S:FB PPU:21 ,24  2394
CF5E  B8        CLV                              A:80 X:55 Y:69 P:47 S:FB PPU:21 ,30  2396
CF5F  18        CLC                              A:80 X:55 Y:69 P:07 S:FB PPU:21 ,36  2398
CF60  A9 55     LDA #$55                         A:80 X:55 Y:69 P:06 S:FB PPU:21 ,42  2400
CF62  6A        ROR A                            A:55 X:55 Y:69 P:04 S:FB PPU:21 ,48  2402
CF63  90 0D     BCC $CF72                        A:2A X:55 Y:69 P:05 S:FB PPU:21 ,54  2404
CF65  F0 0B     BEQ $CF72                        A:2A X:55 Y:69 P:05 S:FB PPU:21 ,60  2406
CF67  30 09     BMI $CF72                        A:2A X:55 Y:69 P:05 S:FB PPU:21 ,66  2408
CF69  70 07     BVS $CF72                        A:2A X:55 Y:69 P:05 S:FB PPU:21 ,72  2410
CF6B  C9 2A     CMP #$2A                         A:2A X:55 Y:69 P:05 S:FB PPU:21 ,78  2412
CF6D  D0 03     BNE $CF72                        A:2A X:55 Y:69 P:07 S:FB PPU:21 ,84  2414
CF6F  4C 76 CF  JMP $CF76                        A:2A X:55 Y:69 P:07 S:FB PPU:21 ,90  2416
CF76  EA        NOP                              A:2A X:55 Y:69 P:07 S:FB PPU:21 ,99  2419
CF77  24 01     BIT $01 = $FF                    A:2A X:55 Y:69 P:07 S:FB PPU:21 ,105 2421
CF79  38        SEC                              A:2A X:55 Y:69 P:C5 S:FB PPU:21 ,114 2424
CF7A  A9 80     LDA #$80                         A:2A X:55 Y:69 P:C5 S:FB PPU:21 ,120 2426
CF7C  2A        ROL A                            A:80 X:55 Y:69 P:C5 S:FB PPU:21 ,126 2428
CF7D  90 1E     BCC $CF9D                        A:01 X:55 Y:69 P:45 S:FB PPU:21 ,132 2430
CF7F  F0 1C     BEQ $CF9D                        A:01 X:55 Y:69 P:45 S:FB PPU:21 ,138 2432
CF81  30 1A     BMI $CF9D                        A:01 X:55 Y:69 P:45 S:FB PPU:21 ,144 2434
CF83  50 18     BVC $CF9D                        A:01 X:55 Y:69 P:45 S:FB PPU:21 ,150 2436
CF85  C9 01     CMP #$01                         A:01 X:55 Y:69 P:45 S:FB PPU:21 ,156 2438
CF87  D0 14     BNE $CF9D                        A:01 X:55 Y:69 P:47 S:FB PPU:21 ,162 2440
CF89  B8        CLV                              A:01 X:55 Y:69 P:47 S:FB PPU:21 ,168 2442
CF8A  18        CLC                              A:01 X:55 Y:69 P:07 S:FB PPU:21 ,174 2444
CF8B  A9 55     LDA #$55                         A:01 X:55 Y:69 P:06 S:FB PPU:21 ,180 2446
CF8D  2A        ROL A                            A:55 X:55 Y:69 P:04 S:FB PPU:21 ,186 2448
CF8E  B0 0D     BCS $CF9D                        A:AA X:55 Y:69 P:84 S:FB PPU:21 ,192 2450
CF90  F0 0B     BEQ $CF9D                        A:AA X:55 Y:69 P:84 S:FB PPU:21 ,198 2452
CF92  10 09     BPL $CF9D                        A:AA X:55 Y:69 P:84 S:FB PPU:21 ,204 2454
CF94  70 07     BVS $CF9D                        A:AA X:55 Y:69 P:84 S:FB PPU:21 ,210 2456
CF96  C9 AA     CMP #$AA                         A:AA X:55 Y:69 P:84 S:FB PPU:21 ,216 2458
CF98  D0 03     BNE $CF9D                        A:AA X:55 Y:69 P:07 S:FB PPU:21 ,222 2460
CF9A  4C A1 CF  JMP $CFA1                        A:AA X:55 Y:69 P:07 S:FB PPU:21 ,228 2462
CFA1  60        RTS                              A:AA X:55 Y:69 P:07 S:FB PPU:21 ,237 2465
C60F  20 A2 CF  JSR $CFA2                        A:AA X:55 Y:69 P:07 S:FD PPU:21 ,255 2471
CFA2  A5 00     LDA $00 = $00                    A:AA X:55 Y:69 P:07 S:FB PPU:21 ,273 2477
CFA4  8D FF 07  STA $07FF = $FB                  A:00 X:55 Y:69 P:07 S:FB PPU:21 ,282 2480
CFA7  A9 00     LDA #$00                         A:00 X:55 Y:69 P:07 S:FB PPU:21 ,294 2484
CFA9  85 80     STA $80 = $00                    A:00 X:55 Y:69 P:07 S:FB PPU:21 ,300 2486
CFAB  A9 02     LDA #$02                         A:00 X:55 Y:69 P:07 S:FB PPU:21 ,309 2489
CFAD  85 81     STA $81 = $00                    A:02 X:55 Y:69 P:05 S:FB PPU:21 ,315 2491
CFAF  A9 FF     LDA #$FF                         A:02 X:55 Y:69 P:05 S:FB PPU:21 ,324 2494
CFB1  85 01     STA $01 = $FF                    A:FF X:55 Y:69 P:85 S:FB PPU:21 ,330 2496
CFB3  A9 00     LDA #$00                         A:FF X:55 Y:69 P:85 S:FB PPU:21 ,339 2499
CFB5  85 82     STA $82 = $00                    A:00 X:55 Y:69 P:07 S:FB PPU:22 ,4   2501
CFB7  A9 03     LDA #$03                         A:00 X:55 Y:69 P:07 S:FB PPU:22 ,13  2504
CFB9  85 83     STA $83 = $00                    A:03 X:55 Y:69 P:05 S:FB PPU:22 ,19  2506
CFBB  85 84     STA $84 = $00                    A:03 X:55 Y:69 P:05 S:FB PPU:22 ,28  2509
CFBD  A9 00     LDA #$00                         A:03 X:55 Y:69 P:05 S:FB PPU:22 ,37  2512
CFBF  85 FF     STA $FF = $00                    A:00 X:55 Y:69 P:07 S:FB PPU:22 ,43  2514
CFC1  A9 04     LDA #$04                         A:00 X:55 Y:69 P:07 S:FB PPU:22 ,52  2517
CFC3  85 00     STA $00 = $00                    A:04 X:55 Y:69 P:05 S:FB PPU:22 ,58  2519
CFC5  A9 5A     LDA #$5A                         A:04 X:55 Y:69 P:05 S:FB PPU:22 ,67  2522
CFC7  8D 00 02  STA $0200 = $00                  A:5A X:55 Y:69 P:05 S:FB PPU:22 ,73  2524
CFCA  A9 5B     LDA #$5B                         A:5A X:55 Y:69 P:05 S:FB PPU:22 ,85  2528
CFCC  8D 00 03  STA $0300 = $00                  A:5B X:55 Y:69 P:05 S:FB PPU:22 ,91  2530
CFCF  A9 5C     LDA #$5C                         A:5B X:55 Y:69 P:05 S:FB PPU:22 ,103 2534
CFD1  8D 03 03  STA $0303 = $00                  A:5C X:55 Y:69 P:05 S:FB PPU:22 ,109 2536
CFD4  A9 5D     LDA #$5D                         A:5C X:55 Y:69 P:05 S:FB PPU:22 ,121 2540
CFD6  8D 00 04  STA $0400 = $00                  A:5D X:55 Y:69 P:05 S:FB PPU:22 ,127 2542
CFD9  A2 00     LDX #$00                         A:5D X:55 Y:69 P:05 S:FB PPU:22 ,139 2546
CFDB  A1 80     LDA ($80,X) = $5A                A:5D X:00 Y:69 P:07 S:FB PPU:22 ,145 2548
CFDD  C9 5A     CMP #$5A                         A:5A X:00 Y:69 P:05 S:FB PPU:22 ,163 2554
CFDF  D0 1F     BNE $D000                        A:5A X:00 Y:69 P:07 S:FB PPU:22 ,169 2556
CFE1  E8        INX                              A:5A X:00 Y:69 P:07 S:FB PPU:22 ,175 2558
CFE2  E8        INX                              A:5A X:01 Y:69 P:05 S:FB PPU:22 ,181 2560
CFE3  A1 80     LDA ($80,X) = $5B                A:5A X:02 Y:69 P:05 S:FB PPU:22 ,187 2562
CFE5  C9 5B     CMP #$5B                         A:5B X:02 Y:69 P:05 S:FB PPU:22 ,205 2568
CFE7  D0 17     BNE $D000                        A:5B X:02 Y:69 P:07 S:FB PPU:22 ,211 2570
CFE9  E8        INX                              A:5B X:02 Y:69 P:07 S:FB PPU:22 ,217 2572
CFEA  A1 80     LDA ($80,X) = $5C                A:5B X:03 Y:69 P:05 S:FB PPU:22 ,223 2574
CFEC  C9 5C     CMP #$5C                         A:5C X:03 Y:69 P:05 S:FB PPU:22 ,241 2580
CFEE  D0 10     BNE $D000                        A:5C X:03 Y:69 P:07 S:FB PPU:22 ,247 2582
CFF0  A2 00     LDX #$00                         A:5C X:03 Y:69 P:07 S:FB PPU:22 ,253 2584
CFF2  A1 FF     LDA ($FF,X) = $5D                A:5C X:00 Y:69 P:07 S:FB PPU:22 ,259 2586
CFF4  C9 5D     CMP #$5D                         A:5D X:00 Y:69 P:05 S:FB PPU:22 ,277 2592
CFF6  D0 08     BNE $D000                        A:5D X:00 Y:69 P:07 S:FB PPU:22 ,283 2594
CFF8  A2 81     LDX #$81                         A:5D X:00 Y:69 P:07 S:FB PPU:22 ,289 2596
CFFA  A1 FF     LDA ($FF,X) = $5A                A:5D X:81 Y:69 P:85 S:FB PPU:22 ,295 2598
CFFC  C9 5A     CMP #$5A                         A:5A X:81 Y:69 P:05 S:FB PPU:22 ,313 2604
CFFE  F0 05     BEQ $D005                        A:5A X:81 Y:69 P:07 S:FB PPU:22 ,319 2606
D005  A9 AA     LDA #$AA                         A:5A X:81 Y:69 P:07 S:FB PPU:22 ,328 2609
D007  A2 00     LDX #$00                         A:AA X:81 Y:69 P:85 S:FB PPU:22 ,334 2611
D009  81 80     STA ($80,X) = $5A                A:AA X:00 Y:69 P:07 S:FB PPU:22 ,340 2613
D00B  E8        INX                              A:AA X:00 Y:69 P:07 S:FB PPU:23 ,17  2619
D00C  E8        INX                              A:AA X:01 Y:69 P:05 S:FB PPU:23 ,23  2621
D00D  A9 AB     LDA #$AB                         A:AA X:02 Y:69 P:05 S:FB PPU:23 ,29  2623
D00F  81 80     STA ($80,X) = $5B                A:AB X:02 Y:69 P:85 S:FB PPU:23 ,35  2625
D011  E8        INX                              A:AB X:02 Y:69 P:85 S:FB PPU:23 ,53  2631
D012  A9 AC     LDA #$AC                         A:AB X:03 Y:69 P:05 S:FB PPU:23 ,59  2633
D014  81 80     STA ($80,X) = $5C                A:AC X:03 Y:69 P:85 S:FB PPU:23 ,65  2635
D016  A2 00     LDX #$00                         A:AC X:03 Y:69 P:85 S:FB PPU:23 ,83  2641
D018  A9 AD     LDA #$AD                         A:AC X:00 Y:69 P:07 S:FB PPU:23 ,89  2643
D01A  81 FF     STA ($FF,X) = $5D                A:AD X:00 Y:69 P:85 S:FB PPU:23 ,95  2645
D01C  AD 00 02  LDA $0200 = $AA                  A:AD X:00 Y:69 P:85 S:FB PPU:23 ,113 2651
D01F  C9 AA     CMP #$AA                         A:AA X:00 Y:69 P:85 S:FB PPU:23 ,125 2655
D021  D0 15     BNE $D038                        A:AA X:00 Y:69 P:07 S:FB PPU:23 ,131 2657
D023  AD 00 03  LDA $0300 = $AB                  A:AA X:00 Y:69 P:07 S:FB PPU:23 ,137 2659
D026  C9 AB     CMP #$AB                         A:AB X:00 Y:69 P:85 S:FB PPU:23 ,149 2663
D028  D0 0E     BNE $D038                        A:AB X:00 Y:69 P:07 S:FB PPU:23 ,155 2665
D02A  AD 03 03  LDA $0303 = $AC                  A:AB X:00 Y:69 P:07 S:FB PPU:23 ,161 2667
D02D  C9 AC     CMP #$AC                         A:AC X:00 Y:69 P:85 S:FB PPU:23 ,173 2671
D02F  D0 07     BNE $D038                        A:AC X:00 Y:69 P:07 S:FB PPU:23 ,179 2673
D031  AD 00 04  LDA $0400 = $AD                  A:AC X:00 Y:69 P:07 S:FB PPU:23 ,185 2675
D034  C9 AD     CMP #$AD                         A:AD X:00 Y:69 P:85 S:FB PPU:23 ,197 2679
D036  F0 05     BEQ $D03D                        A:AD X:00 Y:69 P:07 S:FB PPU:23 ,203 2681
D03D  AD FF 07  LDA $07FF = $00                  A:AD X:00 Y:69 P:07 S:FB PPU:23 ,212 2684
D040  85 00     STA $00 = $04                    A:00 X:00 Y:69 P:07 S:FB PPU:23 ,224 2688
D042  A9 00     LDA #$00                         A:00 X:00 Y:69 P:07 S:FB PPU:23 ,233 2691
D044  8D 00 03  STA $0300 = $AB                  A:00 X:00 Y:69 P:07 S:FB PPU:23 ,239 2693
D047  A9 AA     LDA #$AA                         A:00 X:00 Y:69 P:07 S:FB PPU:23 ,251 2697
D049  8D 00 02  STA $0200 = $AA                  A:AA X:00 Y:69 P:85 S:FB PPU:23 ,257 2699
D04C  A2 00     LDX #$00                         A:AA X:00 Y:69 P:85 S:FB PPU:23 ,269 2703
D04E  A0 5A     LDY #$5A                         A:AA X:00 Y:69 P:07 S:FB PPU:23 ,275 2705
D050  20 B6 F7  JSR $F7B6                        A:AA X:00 Y:5A P:05 S:FB PPU:23 ,281 2707
F7B6  18        CLC                              A:AA X:00 Y:5A P:05 S:F9 PPU:23 ,299 2713
F7B7  A9 FF     LDA #$FF                         A:AA X:00 Y:5A P:04 S:F9 PPU:23 ,305 2715
F7B9  85 01     STA $01 = $FF                    A:FF X:00 Y:5A P:84 S:F9 PPU:23 ,311 2717
F7BB  24 01     BIT $01 = $FF                    A:FF X:00 Y:5A P:84 S:F9 PPU:23 ,320 2720
F7BD  A9 55     LDA #$55                         A:FF X:00 Y:5A P:C4 S:F9 PPU:23 ,329 2723
F7BF  60        RTS                              A:55 X:00 Y:5A P:44 S:F9 PPU:23 ,335 2725
D053  01 80     ORA ($80,X) = $AA                A:55 X:00 Y:5A P:44 S:FB PPU:24 ,12  2731
D055  20 C0 F7  JSR $F7C0                        A:FF X:00 Y:5A P:C4 S:FB PPU:24 ,30  2737
F7C0  B0 09     BCS $F7CB                        A:FF X:00 Y:5A P:C4 S:F9 PPU:24 ,48  2743
F7C2  10 07     BPL $F7CB                        A:FF X:00 Y:5A P:C4 S:F9 PPU:24 ,54  2745
F7C4  C9 FF     CMP #$FF                         A:FF X:00 Y:5A P:C4 S:F9 PPU:24 ,60  2747
F7C6  D0 03     BNE $F7CB                        A:FF X:00 Y:5A P:47 S:F9 PPU:24 ,66  2749
F7C8  50 01     BVC $F7CB                        A:FF X:00 Y:5A P:47 S:F9 PPU:24 ,72  2751
F7CA  60        RTS                              A:FF X:00 Y:5A P:47 S:F9 PPU:24 ,78  2753
D058  C8        INY                              A:FF X:00 Y:5A P:47 S:FB PPU:24 ,96  2759
D059  20 CE F7  JSR $F7CE                        A:FF X:00 Y:5B P:45 S:FB PPU:24 ,102 2761
F7CE  38        SEC                              A:FF X:00 Y:5B P:45 S:F9 PPU:24 ,120 2767
F7CF  B8        CLV                              A:FF X:00 Y:5B P:45 S:F9 PPU:24 ,126 2769
F7D0  A9 00     LDA #$00                         A:FF X:00 Y:5B P:05 S:F9 PPU:24 ,132 2771
F7D2  60        RTS                              A:00 X:00 Y:5B P:07 S:F9 PPU:24 ,138 2773
D05C  01 82     ORA ($82,X) = $00                A:00 X:00 Y:5B P:07 S:FB PPU:24 ,156 2779
D05E  20 D3 F7  JSR $F7D3                        A:00 X:00 Y:5B P:07 S:FB PPU:24 ,174 2785
F7D3  D0 07     BNE $F7DC                        A:00 X:00 Y:5B P:07 S:F9 PPU:24 ,192 2791
F7D5  70 05     BVS $F7DC                        A:00 X:00 Y:5B P:07 S:F9 PPU:24 ,198 2793
F7D7  90 03     BCC $F7DC                        A:00 X:00 Y:5B P:07 S:F9 PPU:24 ,204 2795
F7D9  30 01     BMI $F7DC                        A:00 X:00 Y:5B P:07 S:F9 PPU:24 ,210 2797
F7DB  60        RTS                              A:00 X:00 Y:5B P:07 S:F9 PPU:24 ,216 2799
D061  C8        INY                              A:00 X:00 Y:5B P:07 S:FB PPU:24 ,234 2805
D062  20 DF F7  JSR $F7DF                        A:00 X:00 Y:5C P:05 S:FB PPU:24 ,240 2807
F7DF  18        CLC                              A:00 X:00 Y:5C P:05 S:F9 PPU:24 ,258 2813
F7E0  24 01     BIT $01 = $FF                    A:00 X:00 Y:5C P:04 S:F9 PPU:24 ,264 2815
F7E2  A9 55     LDA #$55                         A:00 X:00 Y:5C P:C6 S:F9 PPU:24 ,273 2818
F7E4  60        RTS                              A:55 X:00 Y:5C P:44 S:F9 PPU:24 ,279 2820
D065  21 80     AND ($80,X) = $AA                A:55 X:00 Y:5C P:44 S:FB PPU:24 ,297 2826
D067  20 E5 F7  JSR $F7E5                        A:00 X:00 Y:5C P:46 S:FB PPU:24 ,315 2832
F7E5  D0 07     BNE $F7EE                        A:00 X:00 Y:5C P:46 S:F9 PPU:24 ,333 2838
F7E7  50 05     BVC $F7EE                        A:00 X:00 Y:5C P:46 S:F9 PPU:24 ,339 2840
F7E9  B0 03     BCS $F7EE                        A:00 X:00 Y:5C P:46 S:F9 PPU:25 ,4   2842
F7EB  30 01     BMI $F7EE                        A:00 X:00 Y:5C P:46 S:F9 PPU:25 ,10  2844
F7ED  60        RTS                              A:00 X:00 Y:5C P:46 S:F9 PPU:25 ,16  2846
D06A  C8        INY                              A:00 X:00 Y:5C P:46 S:FB PPU:25 ,34  2852
D06B  A9 EF     LDA #$EF                         A:00 X:00 Y:5D P:44 S:FB PPU:25 ,40  2854
D06D  8D 00 03  STA $0300 = $00                  A:EF X:00 Y:5D P:C4 S:FB PPU:25 ,46  2856
D070  20 F1 F7  JSR $F7F1                        A:EF X:00 Y:5D P:C4 S:FB PPU:25 ,58  2860
F7F1  38        SEC                              A:EF X:00 Y:5D P:C4 S:F9 PPU:25 ,76  2866
F7F2  B8        CLV                              A:EF X:00 Y:5D P:C5 S:F9 PPU:25 ,82  2868
F7F3  A9 F8     LDA #$F8                         A:EF X:00 Y:5D P:85 S:F9 PPU:25 ,88  2870
F7F5  60        RTS                              A:F8 X:00 Y:5D P:85 S:F9 PPU:25 ,94  2872
D073  21 82     AND ($82,X) = $EF                A:F8 X:00 Y:5D P:85 S:FB PPU:25 ,112 2878
D075  20 F6 F7  JSR $F7F6                        A:E8 X:00 Y:5D P:85 S:FB PPU:25 ,130 2884
F7F6  90 09     BCC $F801                        A:E8 X:00 Y:5D P:85 S:F9 PPU:25 ,148 2890
F7F8  10 07     BPL $F801                        A:E8 X:00 Y:5D P:85 S:F9 PPU:25 ,154 2892
F7FA  C9 E8     CMP #$E8                         A:E8 X:00 Y:5D P:85 S:F9 PPU:25 ,160 2894
F7FC  D0 03     BNE $F801                        A:E8 X:00 Y:5D P:07 S:F9 PPU:25 ,166 2896
F7FE  70 01     BVS $F801                        A:E8 X:00 Y:5D P:07 S:F9 PPU:25 ,172 2898
F800  60        RTS                              A:E8 X:00 Y:5D P:07 S:F9 PPU:25 ,178 2900
D078  C8        INY                              A:E8 X:00 Y:5D P:07 S:FB PPU:25 ,196 2906
D079  20 04 F8  JSR $F804                        A:E8 X:00 Y:5E P:05 S:FB PPU:25 ,202 2908
F804  18        CLC                              A:E8 X:00 Y:5E P:05 S:F9 PPU:25 ,220 2914
F805  24 01     BIT $01 = $FF                    A:E8 X:00 Y:5E P:04 S:F9 PPU:25 ,226 2916
F807  A9 5F     LDA #$5F                         A:E8 X:00 Y:5E P:C4 S:F9 PPU:25 ,235 2919
F809  60        RTS                              A:5F X:00 Y:5E P:44 S:F9 PPU:25 ,241 2921
D07C  41 80     EOR ($80,X) = $AA                A:5F X:00 Y:5E P:44 S:FB PPU:25 ,259 2927
D07E  20 0A F8  JSR $F80A                        A:F5 X:00 Y:5E P:C4 S:FB PPU:25 ,277 2933
F80A  B0 09     BCS $F815                        A:F5 X:00 Y:5E P:C4 S:F9 PPU:25 ,295 2939
F80C  10 07     BPL $F815                        A:F5 X:00 Y:5E P:C4 S:F9 PPU:25 ,301 2941
F80E  C9 F5     CMP #$F5                         A:F5 X:00 Y:5E P:C4 S:F9 PPU:25 ,307 2943
F810  D0 03     BNE $F815                        A:F5 X:00 Y:5E P:47 S:F9 PPU:25 ,313 2945
F812  50 01     BVC $F815                        A:F5 X:00 Y:5E P:47 S:F9 PPU:25 ,319 2947
F814  60        RTS                              A:F5 X:00 Y:5E P:47 S:F9 PPU:25 ,325 2949
D081  C8        INY                              A:F5 X:00 Y:5E P:47 S:FB PPU:26 ,2   2955
D082  A9 70     LDA #$70                         A:F5 X:00 Y:5F P:45 S:FB PPU:26 ,8   2957
D084  8D 00 03  STA $0300 = $EF                  A:70 X:00 Y:5F P:45 S:FB PPU:26 ,14  2959
D087  20 18 F8  JSR $F818                        A:70 X:00 Y:5F P:45 S:FB PPU:26 ,26  2963
F818  38        SEC                              A:70 X:00 Y:5F P:45 S:F9 PPU:26 ,44  2969
F819  B8        CLV                              A:70 X:00 Y:5F P:45 S:F9 PPU:26 ,50  2971
F81A  A9 70     LDA #$70                         A:70 X:00 Y:5F P:05 S:F9 PPU:26 ,56  2973
F81C  60        RTS                              A:70 X:00 Y:5F P:05 S:F9 PPU:26 ,62  2975
D08A  41 82     EOR ($82,X) = $70                A:70 X:00 Y:5F P:05 S:FB PPU:26 ,80  2981
D08C  20 1D F8  JSR $F81D                        A:00 X:00 Y:5F P:07 S:FB PPU:26 ,98  2987
F81D  D0 07     BNE $F826                        A:00 X:00 Y:5F P:07 S:F9 PPU:26 ,116 2993
F81F  70 05     BVS $F826                        A:00 X:00 Y:5F P:07 S:F9 PPU:26 ,122 2995
F821  90 03     BCC $F826                        A:00 X:00 Y:5F P:07 S:F9 PPU:26 ,128 2997
F823  30 01     BMI $F826                        A:00 X:00 Y:5F P:07 S:F9 PPU:26 ,134 2999
F825  60        RTS                              A:00 X:00 Y:5F P:07 S:F9 PPU:26 ,140 3001
D08F  C8        INY                              A:00 X:00 Y:5F P:07 S:FB PPU:26 ,158 3007
D090  A9 69     LDA #$69                         A:00 X:00 Y:60 P:05 S:FB PPU:26 ,164 3009
D092  8D 00 02  STA $0200 = $AA                  A:69 X:00 Y:60 P:05 S:FB PPU:26 ,170 3011
D095  20 29 F8  JSR $F829                        A:69 X:00 Y:60 P:05 S:FB PPU:26 ,182 3015
F829  18        CLC                              A:69 X:00 Y:60 P:05 S:F9 PPU:26 ,200 3021
F82A  24 01     BIT $01 = $FF                    A:69 X:00 Y:60 P:04 S:F9 PPU:26 ,206 3023
F82C  A9 00     LDA #$00                         A:69 X:00 Y:60 P:C4 S:F9 PPU:26 ,215 3026
F82E  60        RTS                              A:00 X:00 Y:60 P:46 S:F9 PPU:26 ,221 3028
D098  61 80     ADC ($80,X) = $69                A:00 X:00 Y:60 P:46 S:FB PPU:26 ,239 3034
D09A  20 2F F8  JSR $F82F                        A:69 X:00 Y:60 P:04 S:FB PPU:26 ,257 3040
F82F  30 09     BMI $F83A                        A:69 X:00 Y:60 P:04 S:F9 PPU:26 ,275 3046
F831  B0 07     BCS $F83A                        A:69 X:00 Y:60 P:04 S:F9 PPU:26 ,281 3048
F833  C9 69     CMP #$69                         A:69 X:00 Y:60 P:04 S:F9 PPU:26 ,287 3050
F835  D0 03     BNE $F83A                        A:69 X:00 Y:60 P:07 S:F9 PPU:26 ,293 3052
F837  70 01     BVS $F83A                        A:69 X:00 Y:60 P:07 S:F9 PPU:26 ,299 3054
F839  60        RTS                              A:69 X:00 Y:60 P:07 S:F9 PPU:26 ,305 3056
D09D  C8        INY                              A:69 X:00 Y:60 P:07 S:FB PPU:26 ,323 3062
D09E  20 3D F8  JSR $F83D                        A:69 X:00 Y:61 P:05 S:FB PPU:26 ,329 3064
F83D  38        SEC                              A:69 X:00 Y:61 P:05 S:F9 PPU:27 ,6   3070
F83E  24 01     BIT $01 = $FF                    A:69 X:00 Y:61 P:05 S:F9 PPU:27 ,12  3072
F840  A9 00     LDA #$00                         A:69 X:00 Y:61 P:C5 S:F9 PPU:27 ,21  3075
F842  60        RTS                              A:00 X:00 Y:61 P:47 S:F9 PPU:27 ,27  3077
D0A1  61 80     ADC ($80,X) = $69                A:00 X:00 Y:61 P:47 S:FB PPU:27 ,45  3083
D0A3  20 43 F8  JSR $F843                        A:6A X:00 Y:61 P:04 S:FB PPU:27 ,63  3089
F843  30 09     BMI $F84E                        A:6A X:00 Y:61 P:04 S:F9 PPU:27 ,81  3095
F845  B0 07     BCS $F84E                        A:6A X:00 Y:61 P:04 S:F9 PPU:27 ,87  3097
F847  C9 6A     CMP #$6A                         A:6A X:00 Y:61 P:04 S:F9 PPU:27 ,93  3099
F849  D0 03     BNE $F84E                        A:6A X:00 Y:61 P:07 S:F9 PPU:27 ,99  3101
F84B  70 01     BVS $F84E                        A:6A X:00 Y:61 P:07 S:F9 PPU:27 ,105 3103
F84D  60        RTS                              A:6A X:00 Y:61 P:07 S:F9 PPU:27 ,111 3105
D0A6  C8        INY                              A:6A X:00 Y:61 P:07 S:FB PPU:27 ,129 3111
D0A7  A9 7F     LDA #$7F                         A:6A X:00 Y:62 P:05 S:FB PPU:27 ,135 3113
D0A9  8D 00 02  STA $0200 = $69                  A:7F X:00 Y:62 P:05 S:FB PPU:27 ,141 3115
D0AC  20 51 F8  JSR $F851                        A:7F X:00 Y:62 P:05 S:FB PPU:27 ,153 3119
F851  38        SEC                              A:7F X:00 Y:62 P:05 S:F9 PPU:27 ,171 3125
F852  B8        CLV                              A:7F X:00 Y:62 P:05 S:F9 PPU:27 ,177 3127
F853  A9 7F     LDA #$7F                         A:7F X:00 Y:62 P:05 S:F9 PPU:27 ,183 3129
F855  60        RTS                              A:7F X:00 Y:62 P:05 S:F9 PPU:27 ,189 3131
D0AF  61 80     ADC ($80,X) = $7F                A:7F X:00 Y:62 P:05 S:FB PPU:27 ,207 3137
D0B1  20 56 F8  JSR $F856                        A:FF X:00 Y:62 P:C4 S:FB PPU:27 ,225 3143
F856  10 09     BPL $F861                        A:FF X:00 Y:62 P:C4 S:F9 PPU:27 ,243 3149
F858  B0 07     BCS $F861                        A:FF X:00 Y:62 P:C4 S:F9 PPU:27 ,249 3151
F85A  C9 FF     CMP #$FF                         A:FF X:00 Y:62 P:C4 S:F9 PPU:27 ,255 3153
F85C  D0 03     BNE $F861                        A:FF X:00 Y:62 P:47 S:F9 PPU:27 ,261 3155
F85E  50 01     BVC $F861                        A:FF X:00 Y:62 P:47 S:F9 PPU:27 ,267 3157
F860  60        RTS                              A:FF X:00 Y:62 P:47 S:F9 PPU:27 ,273 3159
D0B4  C8        INY                              A:FF X:00 Y:62 P:47 S:FB PPU:27 ,291 3165
D0B5  A9 80     LDA #$80                         A:FF X:00 Y:63 P:45 S:FB PPU:27 ,297 3167
D0B7  8D 00 02  STA $0200 = $7F                  A:80 X:00 Y:63 P:C5 S:FB PPU:27 ,303 3169
D0BA  20 64 F8  JSR $F864                        A:80 X:00 Y:63 P:C5 S:FB PPU:27 ,315 3173
F864  18        CLC                              A:80 X:00 Y:63 P:C5 S:F9 PPU:27 ,333 3179
F865  24 01     BIT $01 = $FF                    A:80 X:00 Y:63 P:C4 S:F9 PPU:27 ,339 3181
F867  A9 7F     LDA #$7F                         A:80 X:00 Y:63 P:C4 S:F9 PPU:28 ,7   3184
F869  60        RTS                              A:7F X:00 Y:63 P:44 S:F9 PPU:28 ,13  3186
D0BD  61 80     ADC ($80,X) = $80                A:7F X:00 Y:63 P:44 S:FB PPU:28 ,31  3192
D0BF  20 6A F8  JSR $F86A                        A:FF X:00 Y:63 P:84 S:FB PPU:28 ,49  3198
F86A  10 09     BPL $F875                        A:FF X:00 Y:63 P:84 S:F9 PPU:28 ,67  3204
F86C  B0 07     BCS $F875                        A:FF X:00 Y:63 P:84 S:F9 PPU:28 ,73  3206
F86E  C9 FF     CMP #$FF                         A:FF X:00 Y:63 P:84 S:F9 PPU:28 ,79  3208
F870  D0 03     BNE $F875                        A:FF X:00 Y:63 P:07 S:F9 PPU:28 ,85  3210
F872  70 01     BVS $F875                        A:FF X:00 Y:63 P:07 S:F9 PPU:28 ,91  3212
F874  60        RTS                              A:FF X:00 Y:63 P:07 S:F9 PPU:28 ,97  3214
D0C2  C8        INY                              A:FF X:00 Y:63 P:07 S:FB PPU:28 ,115 3220
D0C3  20 78 F8  JSR $F878                        A:FF X:00 Y:64 P:05 S:FB PPU:28 ,121 3222
F878  38        SEC                              A:FF X:00 Y:64 P:05 S:F9 PPU:28 ,139 3228
F879  B8        CLV                              A:FF X:00 Y:64 P:05 S:F9 PPU:28 ,145 3230
F87A  A9 7F     LDA #$7F                         A:FF X:00 Y:64 P:05 S:F9 PPU:28 ,151 3232
F87C  60        RTS                              A:7F X:00 Y:64 P:05 S:F9 PPU:28 ,157 3234
D0C6  61 80     ADC ($80,X) = $80                A:7F X:00 Y:64 P:05 S:FB PPU:28 ,175 3240
D0C8  20 7D F8  JSR $F87D                        A:00 X:00 Y:64 P:07 S:FB PPU:28 ,193 3246
F87D  D0 07     BNE $F886                        A:00 X:00 Y:64 P:07 S:F9 PPU:28 ,211 3252
F87F  30 05     BMI $F886                        A:00 X:00 Y:64 P:07 S:F9 PPU:28 ,217 3254
F881  70 03     BVS $F886                        A:00 X:00 Y:64 P:07 S:F9 PPU:28 ,223 3256
F883  90 01     BCC $F886                        A:00 X:00 Y:64 P:07 S:F9 PPU:28 ,229 3258
F885  60        RTS                              A:00 X:00 Y:64 P:07 S:F9 PPU:28 ,235 3260
D0CB  C8        INY                              A:00 X:00 Y:64 P:07 S:FB PPU:28 ,253 3266
D0CC  A9 40     LDA #$40                         A:00 X:00 Y:65 P:05 S:FB PPU:28 ,259 3268
D0CE  8D 00 02  STA $0200 = $80                  A:40 X:00 Y:65 P:05 S:FB PPU:28 ,265 3270
D0D1  20 89 F8  JSR $F889                        A:40 X:00 Y:65 P:05 S:FB PPU:28 ,277 3274
F889  24 01     BIT $01 = $FF                    A:40 X:00 Y:65 P:05 S:F9 PPU:28 ,295 3280
F88B  A9 40     LDA #$40                         A:40 X:00 Y:65 P:C5 S:F9 PPU:28 ,304 3283
F88D  60        RTS                              A:40 X:00 Y:65 P:45 S:F9 PPU:28 ,310 3285
D0D4  C1 80     CMP ($80,X) = $40                A:40 X:00 Y:65 P:45 S:FB PPU:28 ,328 3291
D0D6  20 8E F8  JSR $F88E                        A:40 X:00 Y:65 P:47 S:FB PPU:29 ,5   3297
F88E  30 07     BMI $F897                        A:40 X:00 Y:65 P:47 S:F9 PPU:29 ,23  3303
F890  90 05     BCC $F897                        A:40 X:00 Y:65 P:47 S:F9 PPU:29 ,29  3305
F892  D0 03     BNE $F897                        A:40 X:00 Y:65 P:47 S:F9 PPU:29 ,35  3307
F894  50 01     BVC $F897                        A:40 X:00 Y:65 P:47 S:F9 PPU:29 ,41  3309
F896  60        RTS                              A:40 X:00 Y:65 P:47 S:F9 PPU:29 ,47  3311
D0D9  C8        INY                              A:40 X:00 Y:65 P:47 S:FB PPU:29 ,65  3317
D0DA  48        PHA                              A:40 X:00 Y:66 P:45 S:FB PPU:29 ,71  3319
D0DB  A9 3F     LDA #$3F                         A:40 X:00 Y:66 P:45 S:FA PPU:29 ,80  3322
D0DD  8D 00 02  STA $0200 = $40                  A:3F X:00 Y:66 P:45 S:FA PPU:29 ,86  3324
D0E0  68        PLA                              A:3F X:00 Y:66 P:45 S:FA PPU:29 ,98  3328
D0E1  20 9A F8  JSR $F89A                        A:40 X:00 Y:66 P:45 S:FB PPU:29 ,110 3332
F89A  B8        CLV                              A:40 X:00 Y:66 P:45 S:F9 PPU:29 ,128 3338
F89B  60        RTS                              A:40 X:00 Y:66 P:05 S:F9 PPU:29 ,134 3340
D0E4  C1 80     CMP ($80,X) = $3F                A:40 X:00 Y:66 P:05 S:FB PPU:29 ,152 3346
D0E6  20 9C F8  JSR $F89C                        A:40 X:00 Y:66 P:05 S:FB PPU:29 ,170 3352
F89C  F0 07     BEQ $F8A5                        A:40 X:00 Y:66 P:05 S:F9 PPU:29 ,188 3358
F89E  30 05     BMI $F8A5                        A:40 X:00 Y:66 P:05 S:F9 PPU:29 ,194 3360
F8A0  90 03     BCC $F8A5                        A:40 X:00 Y:66 P:05 S:F9 PPU:29 ,200 3362
F8A2  70 01     BVS $F8A5                        A:40 X:00 Y:66 P:05 S:F9 PPU:29 ,206 3364
F8A4  60        RTS                              A:40 X:00 Y:66 P:05 S:F9 PPU:29 ,212 3366
D0E9  C8        INY                              A:40 X:00 Y:66 P:05 S:FB PPU:29 ,230 3372
D0EA  48        PHA                              A:40 X:00 Y:67 P:05 S:FB PPU:29 ,236 3374
D0EB  A9 41     LDA #$41                         A:40 X:00 Y:67 P:05 S:FA PPU:29 ,245 3377
D0ED  8D 00 02  STA $0200 = $3F                  A:41 X:00 Y:67 P:05 S:FA PPU:29 ,251 3379
D0F0  68        PLA                              A:41 X:00 Y:67 P:05 S:FA PPU:29 ,263 3383
D0F1  C1 80     CMP ($80,X) = $41                A:40 X:00 Y:67 P:05 S:FB PPU:29 ,275 3387
D0F3  20 A8 F8  JSR $F8A8                        A:40 X:00 Y:67 P:84 S:FB PPU:29 ,293 3393
F8A8  F0 05     BEQ $F8AF                        A:40 X:00 Y:67 P:84 S:F9 PPU:29 ,311 3399
F8AA  10 03     BPL $F8AF                        A:40 X:00 Y:67 P:84 S:F9 PPU:29 ,317 3401
F8AC  10 01     BPL $F8AF                        A:40 X:00 Y:67 P:84 S:F9 PPU:29 ,323 3403
F8AE  60        RTS                              A:40 X:00 Y:67 P:84 S:F9 PPU:29 ,329 3405
D0F6  C8        INY                              A:40 X:00 Y:67 P:84 S:FB PPU:30 ,6   3411
D0F7  48        PHA                              A:40 X:00 Y:68 P:04 S:FB PPU:30 ,12  3413
D0F8  A9 00     LDA #$00                         A:40 X:00 Y:68 P:04 S:FA PPU:30 ,21  3416
D0FA  8D 00 02  STA $0200 = $41                  A:00 X:00 Y:68 P:06 S:FA PPU:30 ,27  3418
D0FD  68        PLA                              A:00 X:00 Y:68 P:06 S:FA PPU:30 ,39  3422
D0FE  20 B2 F8  JSR $F8B2                        A:40 X:00 Y:68 P:04 S:FB PPU:30 ,51  3426
F8B2  A9 80     LDA #$80                         A:40 X:00 Y:68 P:04 S:F9 PPU:30 ,69  3432
F8B4  60        RTS                              A:80 X:00 Y:68 P:84 S:F9 PPU:30 ,75  3434
D101  C1 80     CMP ($80,X) = $00                A:80 X:00 Y:68 P:84 S:FB PPU:30 ,93  3440
D103  20 B5 F8  JSR $F8B5                        A:80 X:00 Y:68 P:85 S:FB PPU:30 ,111 3446
F8B5  F0 05     BEQ $F8BC                        A:80 X:00 Y:68 P:85 S:F9 PPU:30 ,129 3452
F8B7  10 03     BPL $F8BC                        A:80 X:00 Y:68 P:85 S:F9 PPU:30 ,135 3454
F8B9  90 01     BCC $F8BC                        A:80 X:00 Y:68 P:85 S:F9 PPU:30 ,141 3456
F8BB  60        RTS                              A:80 X:00 Y:68 P:85 S:F9 PPU:30 ,147 3458
D106  C8        INY                              A:80 X:00 Y:68 P:85 S:FB PPU:30 ,165 3464
D107  48        PHA                              A:80 X:00 Y:69 P:05 S:FB PPU:30 ,171 3466
D108  A9 80     LDA #$80                         A:80 X:00 Y:69 P:05 S:FA PPU:30 ,180 3469
D10A  8D 00 02  STA $0200 = $00                  A:80 X:00 Y:69 P:85 S:FA PPU:30 ,186 3471
D10D  68        PLA                              A:80 X:00 Y:69 P:85 S:FA PPU:30 ,198 3475
D10E  C1 80     CMP ($80,X) = $80                A:80 X:00 Y:69 P:85 S:FB PPU:30 ,210 3479
D110  20 BF F8  JSR $F8BF                        A:80 X:00 Y:69 P:07 S:FB PPU:30 ,228 3485
F8BF  D0 05     BNE $F8C6                        A:80 X:00 Y:69 P:07 S:F9 PPU:30 ,246 3491
F8C1  30 03     BMI $F8C6                        A:80 X:00 Y:69 P:07 S:F9 PPU:30 ,252 3493
F8C3  90 01     BCC $F8C6                        A:80 X:00 Y:69 P:07 S:F9 PPU:30 ,258 3495
F8C5  60        RTS                              A:80 X:00 Y:69 P:07 S:F9 PPU:30 ,264 3497
D113  C8        INY                              A:80 X:00 Y:69 P:07 S:FB PPU:30 ,282 3503
D114  48        PHA                              A:80 X:00 Y:6A P:05 S:FB PPU:30 ,288 3505
D115  A9 81     LDA #$81                         A:80 X:00 Y:6A P:05 S:FA PPU:30 ,297 3508
D117  8D 00 02  STA $0200 = $80                  A:81 X:00 Y:6A P:85 S:FA PPU:30 ,303 3510
D11A  68        PLA                              A:81 X:00 Y:6A P:85 S:FA PPU:30 ,315 3514
D11B  C1 80     CMP ($80,X) = $81                A:80 X:00 Y:6A P:85 S:FB PPU:30 ,327 3518
D11D  20 C9 F8  JSR $F8C9                        A:80 X:00 Y:6A P:84 S:FB PPU:31 ,4   3524
F8C9  B0 05     BCS $F8D0                        A:80 X:00 Y:6A P:84 S:F9 PPU:31 ,22  3530
F8CB  F0 03     BEQ $F8D0                        A:80 X:00 Y:6A P:84 S:F9 PPU:31 ,28  3532
F8CD  10 01     BPL $F8D0                        A:80 X:00 Y:6A P:84 S:F9 PPU:31 ,34  3534
F8CF  60        RTS                              A:80 X:00 Y:6A P:84 S:F9 PPU:31 ,40  3536
D120  C8        INY                              A:80 X:00 Y:6A P:84 S:FB PPU:31 ,58  3542
D121  48        PHA                              A:80 X:00 Y:6B P:04 S:FB PPU:31 ,64  3544
D122  A9 7F     LDA #$7F                         A:80 X:00 Y:6B P:04 S:FA PPU:31 ,73  3547
D124  8D 00 02  STA $0200 = $81                  A:7F X:00 Y:6B P:04 S:FA PPU:31 ,79  3549
D127  68        PLA                              A:7F X:00 Y:6B P:04 S:FA PPU:31 ,91  3553
D128  C1 80     CMP ($80,X) = $7F                A:80 X:00 Y:6B P:84 S:FB PPU:31 ,103 3557
D12A  20 D3 F8  JSR $F8D3                        A:80 X:00 Y:6B P:05 S:FB PPU:31 ,121 3563
F8D3  90 05     BCC $F8DA                        A:80 X:00 Y:6B P:05 S:F9 PPU:31 ,139 3569
F8D5  F0 03     BEQ $F8DA                        A:80 X:00 Y:6B P:05 S:F9 PPU:31 ,145 3571
F8D7  30 01     BMI $F8DA                        A:80 X:00 Y:6B P:05 S:F9 PPU:31 ,151 3573
F8D9  60        RTS                              A:80 X:00 Y:6B P:05 S:F9 PPU:31 ,157 3575
D12D  C8        INY                              A:80 X:00 Y:6B P:05 S:FB PPU:31 ,175 3581
D12E  A9 40     LDA #$40                         A:80 X:00 Y:6C P:05 S:FB PPU:31 ,181 3583
D130  8D 00 02  STA $0200 = $7F                  A:40 X:00 Y:6C P:05 S:FB PPU:31 ,187 3585
D133  20 31 F9  JSR $F931                        A:40 X:00 Y:6C P:05 S:FB PPU:31 ,199 3589
F931  24 01     BIT $01 = $FF                    A:40 X:00 Y:6C P:05 S:F9 PPU:31 ,217 3595
F933  A9 40     LDA #$40                         A:40 X:00 Y:6C P:C5 S:F9 PPU:31 ,226 3598
F935  38        SEC                              A:40 X:00 Y:6C P:45 S:F9 PPU:31 ,232 3600
F936  60        RTS                              A:40 X:00 Y:6C P:45 S:F9 PPU:31 ,238 3602
D136  E1 80     SBC ($80,X) = $40                A:40 X:00 Y:6C P:45 S:FB PPU:31 ,256 3608
D138  20 37 F9  JSR $F937                        A:00 X:00 Y:6C P:07 S:FB PPU:31 ,274 3614
F937  30 0B     BMI $F944                        A:00 X:00 Y:6C P:07 S:F9 PPU:31 ,292 3620
F939  90 09     BCC $F944                        A:00 X:00 Y:6C P:07 S:F9 PPU:31 ,298 3622
F93B  D0 07     BNE $F944                        A:00 X:00 Y:6C P:07 S:F9 PPU:31 ,304 3624
F93D  70 05     BVS $F944                        A:00 X:00 Y:6C P:07 S:F9 PPU:31 ,310 3626
F93F  C9 00     CMP #$00                         A:00 X:00 Y:6C P:07 S:F9 PPU:31 ,316 3628
F941  D0 01     BNE $F944                        A:00 X:00 Y:6C P:07 S:F9 PPU:31 ,322 3630
F943  60        RTS                              A:00 X:00 Y:6C P:07 S:F9 PPU:31 ,328 3632
D13B  C8        INY                              A:00 X:00 Y:6C P:07 S:FB PPU:32 ,5   3638
D13C  A9 3F     LDA #$3F                         A:00 X:00 Y:6D P:05 S:FB PPU:32 ,11  3640
D13E  8D 00 02  STA $0200 = $40                  A:3F X:00 Y:6D P:05 S:FB PPU:32 ,17  3642
D141  20 47 F9  JSR $F947                        A:3F X:00 Y:6D P:05 S:FB PPU:32 ,29  3646
F947  B8        CLV                              A:3F X:00 Y:6D P:05 S:F9 PPU:32 ,47  3652
F948  38        SEC                              A:3F X:00 Y:6D P:05 S:F9 PPU:32 ,53  3654
F949  A9 40     LDA #$40                         A:3F X:00 Y:6D P:05 S:F9 PPU:32 ,59  3656
F94B  60        RTS                              A:40 X:00 Y:6D P:05 S:F9 PPU:32 ,65  3658
D144  E1 80     SBC ($80,X) = $3F                A:40 X:00 Y:6D P:05 S:FB PPU:32 ,83  3664
D146  20 4C F9  JSR $F94C                        A:01 X:00 Y:6D P:05 S:FB PPU:32 ,101 3670
F94C  F0 0B     BEQ $F959                        A:01 X:00 Y:6D P:05 S:F9 PPU:32 ,119 3676
F94E  30 09     BMI $F959                        A:01 X:00 Y:6D P:05 S:F9 PPU:32 ,125 3678
F950  90 07     BCC $F959                        A:01 X:00 Y:6D P:05 S:F9 PPU:32 ,131 3680
F952  70 05     BVS $F959                        A:01 X:00 Y:6D P:05 S:F9 PPU:32 ,137 3682
F954  C9 01     CMP #$01                         A:01 X:00 Y:6D P:05 S:F9 PPU:32 ,143 3684
F956  D0 01     BNE $F959                        A:01 X:00 Y:6D P:07 S:F9 PPU:32 ,149 3686
F958  60        RTS                              A:01 X:00 Y:6D P:07 S:F9 PPU:32 ,155 3688
D149  C8        INY                              A:01 X:00 Y:6D P:07 S:FB PPU:32 ,173 3694
D14A  A9 41     LDA #$41                         A:01 X:00 Y:6E P:05 S:FB PPU:32 ,179 3696
D14C  8D 00 02  STA $0200 = $3F                  A:41 X:00 Y:6E P:05 S:FB PPU:32 ,185 3698
D14F  20 5C F9  JSR $F95C                        A:41 X:00 Y:6E P:05 S:FB PPU:32 ,197 3702
F95C  A9 40     LDA #$40                         A:41 X:00 Y:6E P:05 S:F9 PPU:32 ,215 3708
F95E  38        SEC                              A:40 X:00 Y:6E P:05 S:F9 PPU:32 ,221 3710
F95F  24 01     BIT $01 = $FF                    A:40 X:00 Y:6E P:05 S:F9 PPU:32 ,227 3712
F961  60        RTS                              A:40 X:00 Y:6E P:C5 S:F9 PPU:32 ,236 3715
D152  E1 80     SBC ($80,X) = $41                A:40 X:00 Y:6E P:C5 S:FB PPU:32 ,254 3721
D154  20 62 F9  JSR $F962                        A:FF X:00 Y:6E P:84 S:FB PPU:32 ,272 3727
F962  B0 0B     BCS $F96F                        A:FF X:00 Y:6E P:84 S:F9 PPU:32 ,290 3733
F964  F0 09     BEQ $F96F                        A:FF X:00 Y:6E P:84 S:F9 PPU:32 ,296 3735
F966  10 07     BPL $F96F                        A:FF X:00 Y:6E P:84 S:F9 PPU:32 ,302 3737
F968  70 05     BVS $F96F                        A:FF X:00 Y:6E P:84 S:F9 PPU:32 ,308 3739
F96A  C9 FF     CMP #$FF                         A:FF X:00 Y:6E P:84 S:F9 PPU:32 ,314 3741
F96C  D0 01     BNE $F96F                        A:FF X:00 Y:6E P:07 S:F9 PPU:32 ,320 3743
F96E  60        RTS                              A:FF X:00 Y:6E P:07 S:F9 PPU:32 ,326 3745
D157  C8        INY                              A:FF X:00 Y:6E P:07 S:FB PPU:33 ,3   3751
D158  A9 00     LDA #$00                         A:FF X:00 Y:6F P:05 S:FB PPU:33 ,9   3753
D15A  8D 00 02  STA $0200 = $41                  A:00 X:00 Y:6F P:07 S:FB PPU:33 ,15  3755
D15D  20 72 F9  JSR $F972                        A:00 X:00 Y:6F P:07 S:FB PPU:33 ,27  3759
F972  18        CLC                              A:00 X:00 Y:6F P:07 S:F9 PPU:33 ,45  3765
F973  A9 80     LDA #$80                         A:00 X:00 Y:6F P:06 S:F9 PPU:33 ,51  3767
F975  60        RTS                              A:80 X:00 Y:6F P:84 S:F9 PPU:33 ,57  3769
D160  E1 80     SBC ($80,X) = $00                A:80 X:00 Y:6F P:84 S:FB PPU:33 ,75  3775
D162  20 76 F9  JSR $F976                        A:7F X:00 Y:6F P:45 S:FB PPU:33 ,93  3781
F976  90 05     BCC $F97D                        A:7F X:00 Y:6F P:45 S:F9 PPU:33 ,111 3787
F978  C9 7F     CMP #$7F                         A:7F X:00 Y:6F P:45 S:F9 PPU:33 ,117 3789
F97A  D0 01     BNE $F97D                        A:7F X:00 Y:6F P:47 S:F9 PPU:33 ,123 3791
F97C  60        RTS                              A:7F X:00 Y:6F P:47 S:F9 PPU:33 ,129 3793
D165  C8        INY                              A:7F X:00 Y:6F P:47 S:FB PPU:33 ,147 3799
D166  A9 7F     LDA #$7F                         A:7F X:00 Y:70 P:45 S:FB PPU:33 ,153 3801
D168  8D 00 02  STA $0200 = $00                  A:7F X:00 Y:70 P:45 S:FB PPU:33 ,159 3803
D16B  20 80 F9  JSR $F980                        A:7F X:00 Y:70 P:45 S:FB PPU:33 ,171 3807
F980  38        SEC                              A:7F X:00 Y:70 P:45 S:F9 PPU:33 ,189 3813
F981  A9 81     LDA #$81                         A:7F X:00 Y:70 P:45 S:F9 PPU:33 ,195 3815
F983  60        RTS                              A:81 X:00 Y:70 P:C5 S:F9 PPU:33 ,201 3817
D16E  E1 80     SBC ($80,X) = $7F                A:81 X:00 Y:70 P:C5 S:FB PPU:33 ,219 3823
D170  20 84 F9  JSR $F984                        A:02 X:00 Y:70 P:45 S:FB PPU:33 ,237 3829
F984  50 07     BVC $F98D                        A:02 X:00 Y:70 P:45 S:F9 PPU:33 ,255 3835
F986  90 05     BCC $F98D                        A:02 X:00 Y:70 P:45 S:F9 PPU:33 ,261 3837
F988  C9 02     CMP #$02                         A:02 X:00 Y:70 P:45 S:F9 PPU:33 ,267 3839
F98A  D0 01     BNE $F98D                        A:02 X:00 Y:70 P:47 S:F9 PPU:33 ,273 3841
F98C  60        RTS                              A:02 X:00 Y:70 P:47 S:F9 PPU:33 ,279 3843
D173  60        RTS                              A:02 X:00 Y:70 P:47 S:FB PPU:33 ,297 3849
C612  20 74 D1  JSR $D174                        A:02 X:00 Y:70 P:47 S:FD PPU:33 ,315 3855
D174  A9 55     LDA #$55                         A:02 X:00 Y:70 P:47 S:FB PPU:33 ,333 3861
D176  85 78     STA $78 = $00                    A:55 X:00 Y:70 P:45 S:FB PPU:33 ,339 3863
D178  A9 FF     LDA #$FF                         A:55 X:00 Y:70 P:45 S:FB PPU:34 ,7   3866
D17A  85 01     STA $01 = $FF                    A:FF X:00 Y:70 P:C5 S:FB PPU:34 ,13  3868
D17C  24 01     BIT $01 = $FF                    A:FF X:00 Y:70 P:C5 S:FB PPU:34 ,22  3871
D17E  A0 11     LDY #$11                         A:FF X:00 Y:70 P:C5 S:FB PPU:34 ,31  3874
D180  A2 23     LDX #$23                         A:FF X:00 Y:11 P:45 S:FB PPU:34 ,37  3876
D182  A9 00     LDA #$00                         A:FF X:23 Y:11 P:45 S:FB PPU:34 ,43  3878
D184  A5 78     LDA $78 = $55                    A:00 X:23 Y:11 P:47 S:FB PPU:34 ,49  3880
D186  F0 10     BEQ $D198                        A:55 X:23 Y:11 P:45 S:FB PPU:34 ,58  3883
D188  30 0E     BMI $D198                        A:55 X:23 Y:11 P:45 S:FB PPU:34 ,64  3885
D18A  C9 55     CMP #$55                         A:55 X:23 Y:11 P:45 S:FB PPU:34 ,70  3887
D18C  D0 0A     BNE $D198                        A:55 X:23 Y:11 P:47 S:FB PPU:34 ,76  3889
D18E  C0 11     CPY #$11                         A:55 X:23 Y:11 P:47 S:FB PPU:34 ,82  3891
D190  D0 06     BNE $D198                        A:55 X:23 Y:11 P:47 S:FB PPU:34 ,88  3893
D192  E0 23     CPX #$23                         A:55 X:23 Y:11 P:47 S:FB PPU:34 ,94  3895
D194  50 02     BVC $D198                        A:55 X:23 Y:11 P:47 S:FB PPU:34 ,100 3897
D196  F0 04     BEQ $D19C                        A:55 X:23 Y:11 P:47 S:FB PPU:34 ,106 3899
D19C  A9 46     LDA #$46                         A:55 X:23 Y:11 P:47 S:FB PPU:34 ,115 3902
D19E  24 01     BIT $01 = $FF                    A:46 X:23 Y:11 P:45 S:FB PPU:34 ,121 3904
D1A0  85 78     STA $78 = $55                    A:46 X:23 Y:11 P:C5 S:FB PPU:34 ,130 3907
D1A2  F0 0A     BEQ $D1AE                        A:46 X:23 Y:11 P:C5 S:FB PPU:34 ,139 3910
D1A4  10 08     BPL $D1AE                        A:46 X:23 Y:11 P:C5 S:FB PPU:34 ,145 3912
D1A6  50 06     BVC $D1AE                        A:46 X:23 Y:11 P:C5 S:FB PPU:34 ,151 3914
D1A8  A5 78     LDA $78 = $46                    A:46 X:23 Y:11 P:C5 S:FB PPU:34 ,157 3916
D1AA  C9 46     CMP #$46                         A:46 X:23 Y:11 P:45 S:FB PPU:34 ,166 3919
D1AC  F0 04     BEQ $D1B2                        A:46 X:23 Y:11 P:47 S:FB PPU:34 ,172 3921
D1B2  A9 55     LDA #$55                         A:46 X:23 Y:11 P:47 S:FB PPU:34 ,181 3924
D1B4  85 78     STA $78 = $46                    A:55 X:23 Y:11 P:45 S:FB PPU:34 ,187 3926
D1B6  24 01     BIT $01 = $FF                    A:55 X:23 Y:11 P:45 S:FB PPU:34 ,196 3929
D1B8  A9 11     LDA #$11                         A:55 X:23 Y:11 P:C5 S:FB PPU:34 ,205 3932
D1BA  A2 23     LDX #$23                         A:11 X:23 Y:11 P:45 S:FB PPU:34 ,211 3934
D1BC  A0 00     LDY #$00                         A:11 X:23 Y:11 P:45 S:FB PPU:34 ,217 3936
D1BE  A4 78     LDY $78 = $55                    A:11 X:23 Y:00 P:47 S:FB PPU:34 ,223 3938
D1C0  F0 10     BEQ $D1D2                        A:11 X:23 Y:55 P:45 S:FB PPU:34 ,232 3941
D1C2  30 0E     BMI $D1D2                        A:11 X:23 Y:55 P:45 S:FB PPU:34 ,238 3943
D1C4  C0 55     CPY #$55                         A:11 X:23 Y:55 P:45 S:FB PPU:34 ,244 3945
D1C6  D0 0A     BNE $D1D2                        A:11 X:23 Y:55 P:47 S:FB PPU:34 ,250 3947
D1C8  C9 11     CMP #$11                         A:11 X:23 Y:55 P:47 S:FB PPU:34 ,256 3949
D1CA  D0 06     BNE $D1D2                        A:11 X:23 Y:55 P:47 S:FB PPU:34 ,262 3951
D1CC  E0 23     CPX #$23                         A:11 X:23 Y:55 P:47 S:FB PPU:34 ,268 3953
D1CE  50 02     BVC $D1D2                        A:11 X:23 Y:55 P:47 S:FB PPU:34 ,274 3955
D1D0  F0 04     BEQ $D1D6                        A:11 X:23 Y:55 P:47 S:FB PPU:34 ,280 3957
D1D6  A0 46     LDY #$46                         A:11 X:23 Y:55 P:47 S:FB PPU:34 ,289 3960
D1D8  24 01     BIT $01 = $FF                    A:11 X:23 Y:46 P:45 S:FB PPU:34 ,295 3962
D1DA  84 78     STY $78 = $55                    A:11 X:23 Y:46 P:C5 S:FB PPU:34 ,304 3965
D1DC  F0 0A     BEQ $D1E8                        A:11 X:23 Y:46 P:C5 S:FB PPU:34 ,313 3968
D1DE  10 08     BPL $D1E8                        A:11 X:23 Y:46 P:C5 S:FB PPU:34 ,319 3970
D1E0  50 06     BVC $D1E8                        A:11 X:23 Y:46 P:C5 S:FB PPU:34 ,325 3972
D1E2  A4 78     LDY $78 = $46                    A:11 X:23 Y:46 P:C5 S:FB PPU:34 ,331 3974
D1E4  C0 46     CPY #$46                         A:11 X:23 Y:46 P:45 S:FB PPU:34 ,340 3977
D1E6  F0 04     BEQ $D1EC                        A:11 X:23 Y:46 P:47 S:FB PPU:35 ,5   3979
D1EC  24 01     BIT $01 = $FF                    A:11 X:23 Y:46 P:47 S:FB PPU:35 ,14  3982
D1EE  A9 55     LDA #$55                         A:11 X:23 Y:46 P:C5 S:FB PPU:35 ,23  3985
D1F0  85 78     STA $78 = $46                    A:55 X:23 Y:46 P:45 S:FB PPU:35 ,29  3987
D1F2  A0 11     LDY #$11                         A:55 X:23 Y:46 P:45 S:FB PPU:35 ,38  3990
D1F4  A9 23     LDA #$23                         A:55 X:23 Y:11 P:45 S:FB PPU:35 ,44  3992
D1F6  A2 00     LDX #$00                         A:23 X:23 Y:11 P:45 S:FB PPU:35 ,50  3994
D1F8  A6 78     LDX $78 = $55                    A:23 X:00 Y:11 P:47 S:FB PPU:35 ,56  3996
D1FA  F0 10     BEQ $D20C                        A:23 X:55 Y:11 P:45 S:FB PPU:35 ,65  3999
D1FC  30 0E     BMI $D20C                        A:23 X:55 Y:11 P:45 S:FB PPU:35 ,71  4001
D1FE  E0 55     CPX #$55                         A:23 X:55 Y:11 P:45 S:FB PPU:35 ,77  4003
D200  D0 0A     BNE $D20C                        A:23 X:55 Y:11 P:47 S:FB PPU:35 ,83  4005
D202  C0 11     CPY #$11                         A:23 X:55 Y:11 P:47 S:FB PPU:35 ,89  4007
D204  D0 06     BNE $D20C                        A:23 X:55 Y:11 P:47 S:FB PPU:35 ,95  4009
D206  C9 23     CMP #$23                         A:23 X:55 Y:11 P:47 S:FB PPU:35 ,101 4011
D208  50 02     BVC $D20C                        A:23 X:55 Y:11 P:47 S:FB PPU:35 ,107 4013
D20A  F0 04     BEQ $D210                        A:23 X:55 Y:11 P:47 S:FB PPU:35 ,113 4015
D210  A2 46     LDX #$46                         A:23 X:55 Y:11 P:47 S:FB PPU:35 ,122 4018
D212  24 01     BIT $01 = $FF                    A:23 X:46 Y:11 P:45 S:FB PPU:35 ,128 4020
D214  86 78     STX $78 = $55                    A:23 X:46 Y:11 P:C5 S:FB PPU:35 ,137 4023
D216  F0 0A     BEQ $D222                        A:23 X:46 Y:11 P:C5 S:FB PPU:35 ,146 4026
D218  10 08     BPL $D222                        A:23 X:46 Y:11 P:C5 S:FB PPU:35 ,152 4028
D21A  50 06     BVC $D222                        A:23 X:46 Y:11 P:C5 S:FB PPU:35 ,158 4030
D21C  A6 78     LDX $78 = $46                    A:23 X:46 Y:11 P:C5 S:FB PPU:35 ,164 4032
D21E  E0 46     CPX #$46                         A:23 X:46 Y:11 P:45 S:FB PPU:35 ,173 4035
D220  F0 04     BEQ $D226                        A:23 X:46 Y:11 P:47 S:FB PPU:35 ,179 4037
D226  A9 C0     LDA #$C0                         A:23 X:46 Y:11 P:47 S:FB PPU:35 ,188 4040
D228  85 78     STA $78 = $46                    A:C0 X:46 Y:11 P:C5 S:FB PPU:35 ,194 4042
D22A  A2 33     LDX #$33                         A:C0 X:46 Y:11 P:C5 S:FB PPU:35 ,203 4045
D22C  A0 88     LDY #$88                         A:C0 X:33 Y:11 P:45 S:FB PPU:35 ,209 4047
D22E  A9 05     LDA #$05                         A:C0 X:33 Y:88 P:C5 S:FB PPU:35 ,215 4049
D230  24 78     BIT $78 = $C0                    A:05 X:33 Y:88 P:45 S:FB PPU:35 ,221 4051
D232  10 10     BPL $D244                        A:05 X:33 Y:88 P:C7 S:FB PPU:35 ,230 4054
D234  50 0E     BVC $D244                        A:05 X:33 Y:88 P:C7 S:FB PPU:35 ,236 4056
D236  D0 0C     BNE $D244                        A:05 X:33 Y:88 P:C7 S:FB PPU:35 ,242 4058
D238  C9 05     CMP #$05                         A:05 X:33 Y:88 P:C7 S:FB PPU:35 ,248 4060
D23A  D0 08     BNE $D244                        A:05 X:33 Y:88 P:47 S:FB PPU:35 ,254 4062
D23C  E0 33     CPX #$33                         A:05 X:33 Y:88 P:47 S:FB PPU:35 ,260 4064
D23E  D0 04     BNE $D244                        A:05 X:33 Y:88 P:47 S:FB PPU:35 ,266 4066
D240  C0 88     CPY #$88                         A:05 X:33 Y:88 P:47 S:FB PPU:35 ,272 4068
D242  F0 04     BEQ $D248                        A:05 X:33 Y:88 P:47 S:FB PPU:35 ,278 4070
D248  A9 03     LDA #$03                         A:05 X:33 Y:88 P:47 S:FB PPU:35 ,287 4073
D24A  85 78     STA $78 = $C0                    A:03 X:33 Y:88 P:45 S:FB PPU:35 ,293 4075
D24C  A9 01     LDA #$01                         A:03 X:33 Y:88 P:45 S:FB PPU:35 ,302 4078
D24E  24 78     BIT $78 = $03                    A:01 X:33 Y:88 P:45 S:FB PPU:35 ,308 4080
D250  30 08     BMI $D25A                        A:01 X:33 Y:88 P:05 S:FB PPU:35 ,317 4083
D252  70 06     BVS $D25A                        A:01 X:33 Y:88 P:05 S:FB PPU:35 ,323 4085
D254  F0 04     BEQ $D25A                        A:01 X:33 Y:88 P:05 S:FB PPU:35 ,329 4087
D256  C9 01     CMP #$01                         A:01 X:33 Y:88 P:05 S:FB PPU:35 ,335 4089
D258  F0 04     BEQ $D25E                        A:01 X:33 Y:88 P:07 S:FB PPU:36 ,0   4091
D25E  A0 7E     LDY #$7E                         A:01 X:33 Y:88 P:07 S:FB PPU:36 ,9   4094
D260  A9 AA     LDA #$AA                         A:01 X:33 Y:7E P:05 S:FB PPU:36 ,15  4096
D262  85 78     STA $78 = $03                    A:AA X:33 Y:7E P:85 S:FB PPU:36 ,21  4098
D264  20 B6 F7  JSR $F7B6                        A:AA X:33 Y:7E P:85 S:FB PPU:36 ,30  4101
F7B6  18        CLC                              A:AA X:33 Y:7E P:85 S:F9 PPU:36 ,48  4107
F7B7  A9 FF     LDA #$FF                         A:AA X:33 Y:7E P:84 S:F9 PPU:36 ,54  4109
F7B9  85 01     STA $01 = $FF                    A:FF X:33 Y:7E P:84 S:F9 PPU:36 ,60  4111
F7BB  24 01     BIT $01 = $FF                    A:FF X:33 Y:7E P:84 S:F9 PPU:36 ,69  4114
F7BD  A9 55     LDA #$55                         A:FF X:33 Y:7E P:C4 S:F9 PPU:36 ,78  4117
F7BF  60        RTS                              A:55 X:33 Y:7E P:44 S:F9 PPU:36 ,84  4119
D267  05 78     ORA $78 = $AA                    A:55 X:33 Y:7E P:44 S:FB PPU:36 ,102 4125
D269  20 C0 F7  JSR $F7C0                        A:FF X:33 Y:7E P:C4 S:FB PPU:36 ,111 4128
F7C0  B0 09     BCS $F7CB                        A:FF X:33 Y:7E P:C4 S:F9 PPU:36 ,129 4134
F7C2  10 07     BPL $F7CB                        A:FF X:33 Y:7E P:C4 S:F9 PPU:36 ,135 4136
F7C4  C9 FF     CMP #$FF                         A:FF X:33 Y:7E P:C4 S:F9 PPU:36 ,141 4138
F7C6  D0 03     BNE $F7CB                        A:FF X:33 Y:7E P:47 S:F9 PPU:36 ,147 4140
F7C8  50 01     BVC $F7CB                        A:FF X:33 Y:7E P:47 S:F9 PPU:36 ,153 4142
F7CA  60        RTS                              A:FF X:33 Y:7E P:47 S:F9 PPU:36 ,159 4144
D26C  C8        INY                              A:FF X:33 Y:7E P:47 S:FB PPU:36 ,177 4150
D26D  A9 00     LDA #$00                         A:FF X:33 Y:7F P:45 S:FB PPU:36 ,183 4152
D26F  85 78     STA $78 = $AA                    A:00 X:33 Y:7F P:47 S:FB PPU:36 ,189 4154
D271  20 CE F7  JSR $F7CE                        A:00 X:33 Y:7F P:47 S:FB PPU:36 ,198 4157
F7CE  38        SEC                              A:00 X:33 Y:7F P:47 S:F9 PPU:36 ,216 4163
F7CF  B8        CLV                              A:00 X:33 Y:7F P:47 S:F9 PPU:36 ,222 4165
F7D0  A9 00     LDA #$00                         A:00 X:33 Y:7F P:07 S:F9 PPU:36 ,228 4167
F7D2  60        RTS                              A:00 X:33 Y:7F P:07 S:F9 PPU:36 ,234 4169
D274  05 78     ORA $78 = $00                    A:00 X:33 Y:7F P:07 S:FB PPU:36 ,252 4175
D276  20 D3 F7  JSR $F7D3                        A:00 X:33 Y:7F P:07 S:FB PPU:36 ,261 4178
F7D3  D0 07     BNE $F7DC                        A:00 X:33 Y:7F P:07 S:F9 PPU:36 ,279 4184
F7D5  70 05     BVS $F7DC                        A:00 X:33 Y:7F P:07 S:F9 PPU:36 ,285 4186
F7D7  90 03     BCC $F7DC                        A:00 X:33 Y:7F P:07 S:F9 PPU:36 ,291 4188
F7D9  30 01     BMI $F7DC                        A:00 X:33 Y:7F P:07 S:F9 PPU:36 ,297 4190
F7DB  60        RTS                              A:00 X:33 Y:7F P:07 S:F9 PPU:36 ,303 4192
D279  C8        INY                              A:00 X:33 Y:7F P:07 S:FB PPU:36 ,321 4198
D27A  A9 AA     LDA #$AA                         A:00 X:33 Y:80 P:85 S:FB PPU:36 ,327 4200
D27C  85 78     STA $78 = $00                    A:AA X:33 Y:80 P:85 S:FB PPU:36 ,333 4202
D27E  20 DF F7  JSR $F7DF                        A:AA X:33 Y:80 P:85 S:FB PPU:37 ,1   4205
F7DF  18        CLC                              A:AA X:33 Y:80 P:85 S:F9 PPU:37 ,19  4211
F7E0  24 01     BIT $01 = $FF                    A:AA X:33 Y:80 P:84 S:F9 PPU:37 ,25  4213
F7E2  A9 55     LDA #$55                         A:AA X:33 Y:80 P:C4 S:F9 PPU:37 ,34  4216
F7E4  60        RTS                              A:55 X:33 Y:80 P:44 S:F9 PPU:37 ,40  4218
D281  25 78     AND $78 = $AA                    A:55 X:33 Y:80 P:44 S:FB PPU:37 ,58  4224
D283  20 E5 F7  JSR $F7E5                        A:00 X:33 Y:80 P:46 S:FB PPU:37 ,67  4227
F7E5  D0 07     BNE $F7EE                        A:00 X:33 Y:80 P:46 S:F9 PPU:37 ,85  4233
F7E7  50 05     BVC $F7EE                        A:00 X:33 Y:80 P:46 S:F9 PPU:37 ,91  4235
F7E9  B0 03     BCS $F7EE                        A:00 X:33 Y:80 P:46 S:F9 PPU:37 ,97  4237
F7EB  30 01     BMI $F7EE                        A:00 X:33 Y:80 P:46 S:F9 PPU:37 ,103 4239
F7ED  60        RTS                              A:00 X:33 Y:80 P:46 S:F9 PPU:37 ,109 4241
D286  C8        INY                              A:00 X:33 Y:80 P:46 S:FB PPU:37 ,127 4247
D287  A9 EF     LDA #$EF                         A:00 X:33 Y:81 P:C4 S:FB PPU:37 ,133 4249
D289  85 78     STA $78 = $AA                    A:EF X:33 Y:81 P:C4 S:FB PPU:37 ,139 4251
D28B  20 F1 F7  JSR $F7F1                        A:EF X:33 Y:81 P:C4 S:FB PPU:37 ,148 4254
F7F1  38        SEC                              A:EF X:33 Y:81 P:C4 S:F9 PPU:37 ,166 4260
F7F2  B8        CLV                              A:EF X:33 Y:81 P:C5 S:F9 PPU:37 ,172 4262
F7F3  A9 F8     LDA #$F8                         A:EF X:33 Y:81 P:85 S:F9 PPU:37 ,178 4264
F7F5  60        RTS                              A:F8 X:33 Y:81 P:85 S:F9 PPU:37 ,184 4266
D28E  25 78     AND $78 = $EF                    A:F8 X:33 Y:81 P:85 S:FB PPU:37 ,202 4272
D290  20 F6 F7  JSR $F7F6                        A:E8 X:33 Y:81 P:85 S:FB PPU:37 ,211 4275
F7F6  90 09     BCC $F801                        A:E8 X:33 Y:81 P:85 S:F9 PPU:37 ,229 4281
F7F8  10 07     BPL $F801                        A:E8 X:33 Y:81 P:85 S:F9 PPU:37 ,235 4283
F7FA  C9 E8     CMP #$E8                         A:E8 X:33 Y:81 P:85 S:F9 PPU:37 ,241 4285
F7FC  D0 03     BNE $F801                        A:E8 X:33 Y:81 P:07 S:F9 PPU:37 ,247 4287
F7FE  70 01     BVS $F801                        A:E8 X:33 Y:81 P:07 S:F9 PPU:37 ,253 4289
F800  60        RTS                              A:E8 X:33 Y:81 P:07 S:F9 PPU:37 ,259 4291
D293  C8        INY                              A:E8 X:33 Y:81 P:07 S:FB PPU:37 ,277 4297
D294  A9 AA     LDA #$AA                         A:E8 X:33 Y:82 P:85 S:FB PPU:37 ,283 4299
D296  85 78     STA $78 = $EF                    A:AA X:33 Y:82 P:85 S:FB PPU:37 ,289 4301
D298  20 04 F8  JSR $F804                        A:AA X:33 Y:82 P:85 S:FB PPU:37 ,298 4304
F804  18        CLC                              A:AA X:33 Y:82 P:85 S:F9 PPU:37 ,316 4310
F805  24 01     BIT $01 = $FF                    A:AA X:33 Y:82 P:84 S:F9 PPU:37 ,322 4312
F807  A9 5F     LDA #$5F                         A:AA X:33 Y:82 P:C4 S:F9 PPU:37 ,331 4315
F809  60        RTS                              A:5F X:33 Y:82 P:44 S:F9 PPU:37 ,337 4317
D29B  45 78     EOR $78 = $AA                    A:5F X:33 Y:82 P:44 S:FB PPU:38 ,14  4323
D29D  20 0A F8  JSR $F80A                        A:F5 X:33 Y:82 P:C4 S:FB PPU:38 ,23  4326
F80A  B0 09     BCS $F815                        A:F5 X:33 Y:82 P:C4 S:F9 PPU:38 ,41  4332
F80C  10 07     BPL $F815                        A:F5 X:33 Y:82 P:C4 S:F9 PPU:38 ,47  4334
F80E  C9 F5     CMP #$F5                         A:F5 X:33 Y:82 P:C4 S:F9 PPU:38 ,53  4336
F810  D0 03     BNE $F815                        A:F5 X:33 Y:82 P:47 S:F9 PPU:38 ,59  4338
F812  50 01     BVC $F815                        A:F5 X:33 Y:82 P:47 S:F9 PPU:38 ,65  4340
F814  60        RTS                              A:F5 X:33 Y:82 P:47 S:F9 PPU:38 ,71  4342
D2A0  C8        INY                              A:F5 X:33 Y:82 P:47 S:FB PPU:38 ,89  4348
D2A1  A9 70     LDA #$70                         A:F5 X:33 Y:83 P:C5 S:FB PPU:38 ,95  4350
D2A3  85 78     STA $78 = $AA                    A:70 X:33 Y:83 P:45 S:FB PPU:38 ,101 4352
D2A5  20 18 F8  JSR $F818                        A:70 X:33 Y:83 P:45 S:FB PPU:38 ,110 4355
F818  38        SEC                              A:70 X:33 Y:83 P:45 S:F9 PPU:38 ,128 4361
F819  B8        CLV                              A:70 X:33 Y:83 P:45 S:F9 PPU:38 ,134 4363
F81A  A9 70     LDA #$70                         A:70 X:33 Y:83 P:05 S:F9 PPU:38 ,140 4365
F81C  60        RTS                              A:70 X:33 Y:83 P:05 S:F9 PPU:38 ,146 4367
D2A8  45 78     EOR $78 = $70                    A:70 X:33 Y:83 P:05 S:FB PPU:38 ,164 4373
D2AA  20 1D F8  JSR $F81D                        A:00 X:33 Y:83 P:07 S:FB PPU:38 ,173 4376
F81D  D0 07     BNE $F826                        A:00 X:33 Y:83 P:07 S:F9 PPU:38 ,191 4382
F81F  70 05     BVS $F826                        A:00 X:33 Y:83 P:07 S:F9 PPU:38 ,197 4384
F821  90 03     BCC $F826                        A:00 X:33 Y:83 P:07 S:F9 PPU:38 ,203 4386
F823  30 01     BMI $F826                        A:00 X:33 Y:83 P:07 S:F9 PPU:38 ,209 4388
F825  60        RTS                              A:00 X:33 Y:83 P:07 S:F9 PPU:38 ,215 4390
D2AD  C8        INY                              A:00 X:33 Y:83 P:07 S:FB PPU:38 ,233 4396
D2AE  A9 69     LDA #$69                         A:00 X:33 Y:84 P:85 S:FB PPU:38 ,239 4398
D2B0  85 78     STA $78 = $70                    A:69 X:33 Y:84 P:05 S:FB PPU:38 ,245 4400
D2B2  20 29 F8  JSR $F829                        A:69 X:33 Y:84 P:05 S:FB PPU:38 ,254 4403
F829  18        CLC                              A:69 X:33 Y:84 P:05 S:F9 PPU:38 ,272 4409
F82A  24 01     BIT $01 = $FF                    A:69 X:33 Y:84 P:04 S:F9 PPU:38 ,278 4411
F82C  A9 00     LDA #$00                         A:69 X:33 Y:84 P:C4 S:F9 PPU:38 ,287 4414
F82E  60        RTS                              A:00 X:33 Y:84 P:46 S:F9 PPU:38 ,293 4416
D2B5  65 78     ADC $78 = $69                    A:00 X:33 Y:84 P:46 S:FB PPU:38 ,311 4422
D2B7  20 2F F8  JSR $F82F                        A:69 X:33 Y:84 P:04 S:FB PPU:38 ,320 4425
F82F  30 09     BMI $F83A                        A:69 X:33 Y:84 P:04 S:F9 PPU:38 ,338 4431
F831  B0 07     BCS $F83A                        A:69 X:33 Y:84 P:04 S:F9 PPU:39 ,3   4433
F833  C9 69     CMP #$69                         A:69 X:33 Y:84 P:04 S:F9 PPU:39 ,9   4435
F835  D0 03     BNE $F83A                        A:69 X:33 Y:84 P:07 S:F9 PPU:39 ,15  4437
F837  70 01     BVS $F83A                        A:69 X:33 Y:84 P:07 S:F9 PPU:39 ,21  4439
F839  60        RTS                              A:69 X:33 Y:84 P:07 S:F9 PPU:39 ,27  4441
D2BA  C8        INY                              A:69 X:33 Y:84 P:07 S:FB PPU:39 ,45  4447
D2BB  20 3D F8  JSR $F83D                        A:69 X:33 Y:85 P:85 S:FB PPU:39 ,51  4449
F83D  38        SEC                              A:69 X:33 Y:85 P:85 S:F9 PPU:39 ,69  4455
F83E  24 01     BIT $01 = $FF                    A:69 X:33 Y:85 P:85 S:F9 PPU:39 ,75  4457
F840  A9 00     LDA #$00                         A:69 X:33 Y:85 P:C5 S:F9 PPU:39 ,84  4460
F842  60        RTS                              A:00 X:33 Y:85 P:47 S:F9 PPU:39 ,90  4462
D2BE  65 78     ADC $78 = $69                    A:00 X:33 Y:85 P:47 S:FB PPU:39 ,108 4468
D2C0  20 43 F8  JSR $F843                        A:6A X:33 Y:85 P:04 S:FB PPU:39 ,117 4471
F843  30 09     BMI $F84E                        A:6A X:33 Y:85 P:04 S:F9 PPU:39 ,135 4477
F845  B0 07     BCS $F84E                        A:6A X:33 Y:85 P:04 S:F9 PPU:39 ,141 4479
F847  C9 6A     CMP #$6A                         A:6A X:33 Y:85 P:04 S:F9 PPU:39 ,147 4481
F849  D0 03     BNE $F84E                        A:6A X:33 Y:85 P:07 S:F9 PPU:39 ,153 4483
F84B  70 01     BVS $F84E                        A:6A X:33 Y:85 P:07 S:F9 PPU:39 ,159 4485
F84D  60        RTS                              A:6A X:33 Y:85 P:07 S:F9 PPU:39 ,165 4487
D2C3  C8        INY                              A:6A X:33 Y:85 P:07 S:FB PPU:39 ,183 4493
D2C4  A9 7F     LDA #$7F                         A:6A X:33 Y:86 P:85 S:FB PPU:39 ,189 4495
D2C6  85 78     STA $78 = $69                    A:7F X:33 Y:86 P:05 S:FB PPU:39 ,195 4497
D2C8  20 51 F8  JSR $F851                        A:7F X:33 Y:86 P:05 S:FB PPU:39 ,204 4500
F851  38        SEC                              A:7F X:33 Y:86 P:05 S:F9 PPU:39 ,222 4506
F852  B8        CLV                              A:7F X:33 Y:86 P:05 S:F9 PPU:39 ,228 4508
F853  A9 7F     LDA #$7F                         A:7F X:33 Y:86 P:05 S:F9 PPU:39 ,234 4510
F855  60        RTS                              A:7F X:33 Y:86 P:05 S:F9 PPU:39 ,240 4512
D2CB  65 78     ADC $78 = $7F                    A:7F X:33 Y:86 P:05 S:FB PPU:39 ,258 4518
D2CD  20 56 F8  JSR $F856                        A:FF X:33 Y:86 P:C4 S:FB PPU:39 ,267 4521
F856  10 09     BPL $F861                        A:FF X:33 Y:86 P:C4 S:F9 PPU:39 ,285 4527
F858  B0 07     BCS $F861                        A:FF X:33 Y:86 P:C4 S:F9 PPU:39 ,291 4529
F85A  C9 FF     CMP #$FF                         A:FF X:33 Y:86 P:C4 S:F9 PPU:39 ,297 4531
F85C  D0 03     BNE $F861                        A:FF X:33 Y:86 P:47 S:F9 PPU:39 ,303 4533
F85E  50 01     BVC $F861                        A:FF X:33 Y:86 P:47 S:F9 PPU:39 ,309 4535
F860  60        RTS                              A:FF X:33 Y:86 P:47 S:F9 PPU:39 ,315 4537
D2D0  C8        INY                              A:FF X:33 Y:86 P:47 S:FB PPU:39 ,333 4543
D2D1  A9 80     LDA #$80                         A:FF X:33 Y:87 P:C5 S:FB PPU:39 ,339 4545
D2D3  85 78     STA $78 = $7F                    A:80 X:33 Y:87 P:C5 S:FB PPU:40 ,4   4547
D2D5  20 64 F8  JSR $F864                        A:80 X:33 Y:87 P:C5 S:FB PPU:40 ,13  4550
F864  18        CLC                              A:80 X:33 Y:87 P:C5 S:F9 PPU:40 ,31  4556
F865  24 01     BIT $01 = $FF                    A:80 X:33 Y:87 P:C4 S:F9 PPU:40 ,37  4558
F867  A9 7F     LDA #$7F                         A:80 X:33 Y:87 P:C4 S:F9 PPU:40 ,46  4561
F869  60        RTS                              A:7F X:33 Y:87 P:44 S:F9 PPU:40 ,52  4563
D2D8  65 78     ADC $78 = $80                    A:7F X:33 Y:87 P:44 S:FB PPU:40 ,70  4569
D2DA  20 6A F8  JSR $F86A                        A:FF X:33 Y:87 P:84 S:FB PPU:40 ,79  4572
F86A  10 09     BPL $F875                        A:FF X:33 Y:87 P:84 S:F9 PPU:40 ,97  4578
F86C  B0 07     BCS $F875                        A:FF X:33 Y:87 P:84 S:F9 PPU:40 ,103 4580
F86E  C9 FF     CMP #$FF                         A:FF X:33 Y:87 P:84 S:F9 PPU:40 ,109 4582
F870  D0 03     BNE $F875                        A:FF X:33 Y:87 P:07 S:F9 PPU:40 ,115 4584
F872  70 01     BVS $F875                        A:FF X:33 Y:87 P:07 S:F9 PPU:40 ,121 4586
F874  60        RTS                              A:FF X:33 Y:87 P:07 S:F9 PPU:40 ,127 4588
D2DD  C8        INY                              A:FF X:33 Y:87 P:07 S:FB PPU:40 ,145 4594
D2DE  20 78 F8  JSR $F878                        A:FF X:33 Y:88 P:85 S:FB PPU:40 ,151 4596
F878  38        SEC                              A:FF X:33 Y:88 P:85 S:F9 PPU:40 ,169 4602
F879  B8        CLV                              A:FF X:33 Y:88 P:85 S:F9 PPU:40 ,175 4604
F87A  A9 7F     LDA #$7F                         A:FF X:33 Y:88 P:85 S:F9 PPU:40 ,181 4606
F87C  60        RTS                              A:7F X:33 Y:88 P:05 S:F9 PPU:40 ,187 4608
D2E1  65 78     ADC $78 = $80                    A:7F X:33 Y:88 P:05 S:FB PPU:40 ,205 4614
D2E3  20 7D F8  JSR $F87D                        A:00 X:33 Y:88 P:07 S:FB PPU:40 ,214 4617
F87D  D0 07     BNE $F886                        A:00 X:33 Y:88 P:07 S:F9 PPU:40 ,232 4623
F87F  30 05     BMI $F886                        A:00 X:33 Y:88 P:07 S:F9 PPU:40 ,238 4625
F881  70 03     BVS $F886                        A:00 X:33 Y:88 P:07 S:F9 PPU:40 ,244 4627
F883  90 01     BCC $F886                        A:00 X:33 Y:88 P:07 S:F9 PPU:40 ,250 4629
F885  60        RTS                              A:00 X:33 Y:88 P:07 S:F9 PPU:40 ,256 4631
D2E6  C8        INY                              A:00 X:33 Y:88 P:07 S:FB PPU:40 ,274 4637
D2E7  A9 40     LDA #$40                         A:00 X:33 Y:89 P:85 S:FB PPU:40 ,280 4639
D2E9  85 78     STA $78 = $80                    A:40 X:33 Y:89 P:05 S:FB PPU:40 ,286 4641
D2EB  20 89 F8  JSR $F889                        A:40 X:33 Y:89 P:05 S:FB PPU:40 ,295 4644
F889  24 01     BIT $01 = $FF                    A:40 X:33 Y:89 P:05 S:F9 PPU:40 ,313 4650
F88B  A9 40     LDA #$40                         A:40 X:33 Y:89 P:C5 S:F9 PPU:40 ,322 4653
F88D  60        RTS                              A:40 X:33 Y:89 P:45 S:F9 PPU:40 ,328 4655
D2EE  C5 78     CMP $78 = $40                    A:40 X:33 Y:89 P:45 S:FB PPU:41 ,5   4661
D2F0  20 8E F8  JSR $F88E                        A:40 X:33 Y:89 P:47 S:FB PPU:41 ,14  4664
F88E  30 07     BMI $F897                        A:40 X:33 Y:89 P:47 S:F9 PPU:41 ,32  4670
F890  90 05     BCC $F897                        A:40 X:33 Y:89 P:47 S:F9 PPU:41 ,38  4672
F892  D0 03     BNE $F897                        A:40 X:33 Y:89 P:47 S:F9 PPU:41 ,44  4674
F894  50 01     BVC $F897                        A:40 X:33 Y:89 P:47 S:F9 PPU:41 ,50  4676
F896  60        RTS                              A:40 X:33 Y:89 P:47 S:F9 PPU:41 ,56  4678
D2F3  C8        INY                              A:40 X:33 Y:89 P:47 S:FB PPU:41 ,74  4684
D2F4  48        PHA                              A:40 X:33 Y:8A P:C5 S:FB PPU:41 ,80  4686
D2F5  A9 3F     LDA #$3F                         A:40 X:33 Y:8A P:C5 S:FA PPU:41 ,89  4689
D2F7  85 78     STA $78 = $40                    A:3F X:33 Y:8A P:45 S:FA PPU:41 ,95  4691
D2F9  68        PLA                              A:3F X:33 Y:8A P:45 S:FA PPU:41 ,104 4694
D2FA  20 9A F8  JSR $F89A                        A:40 X:33 Y:8A P:45 S:FB PPU:41 ,116 4698
F89A  B8        CLV                              A:40 X:33 Y:8A P:45 S:F9 PPU:41 ,134 4704
F89B  60        RTS                              A:40 X:33 Y:8A P:05 S:F9 PPU:41 ,140 4706
D2FD  C5 78     CMP $78 = $3F                    A:40 X:33 Y:8A P:05 S:FB PPU:41 ,158 4712
D2FF  20 9C F8  JSR $F89C                        A:40 X:33 Y:8A P:05 S:FB PPU:41 ,167 4715
F89C  F0 07     BEQ $F8A5                        A:40 X:33 Y:8A P:05 S:F9 PPU:41 ,185 4721
F89E  30 05     BMI $F8A5                        A:40 X:33 Y:8A P:05 S:F9 PPU:41 ,191 4723
F8A0  90 03     BCC $F8A5                        A:40 X:33 Y:8A P:05 S:F9 PPU:41 ,197 4725
F8A2  70 01     BVS $F8A5                        A:40 X:33 Y:8A P:05 S:F9 PPU:41 ,203 4727
F8A4  60        RTS                              A:40 X:33 Y:8A P:05 S:F9 PPU:41 ,209 4729
D302  C8        INY                              A:40 X:33 Y:8A P:05 S:FB PPU:41 ,227 4735
D303  48        PHA                              A:40 X:33 Y:8B P:85 S:FB PPU:41 ,233 4737
D304  A9 41     LDA #$41                         A:40 X:33 Y:8B P:85 S:FA PPU:41 ,242 4740
D306  85 78     STA $78 = $3F                    A:41 X:33 Y:8B P:05 S:FA PPU:41 ,248 4742
D308  68        PLA                              A:41 X:33 Y:8B P:05 S:FA PPU:41 ,257 4745
D309  C5 78     CMP $78 = $41                    A:40 X:33 Y:8B P:05 S:FB PPU:41 ,269 4749
D30B  20 A8 F8  JSR $F8A8                        A:40 X:33 Y:8B P:84 S:FB PPU:41 ,278 4752
F8A8  F0 05     BEQ $F8AF                        A:40 X:33 Y:8B P:84 S:F9 PPU:41 ,296 4758
F8AA  10 03     BPL $F8AF                        A:40 X:33 Y:8B P:84 S:F9 PPU:41 ,302 4760
F8AC  10 01     BPL $F8AF                        A:40 X:33 Y:8B P:84 S:F9 PPU:41 ,308 4762
F8AE  60        RTS                              A:40 X:33 Y:8B P:84 S:F9 PPU:41 ,314 4764
D30E  C8        INY                              A:40 X:33 Y:8B P:84 S:FB PPU:41 ,332 4770
D30F  48        PHA                              A:40 X:33 Y:8C P:84 S:FB PPU:41 ,338 4772
D310  A9 00     LDA #$00                         A:40 X:33 Y:8C P:84 S:FA PPU:42 ,6   4775
D312  85 78     STA $78 = $41                    A:00 X:33 Y:8C P:06 S:FA PPU:42 ,12  4777
D314  68        PLA                              A:00 X:33 Y:8C P:06 S:FA PPU:42 ,21  4780
D315  20 B2 F8  JSR $F8B2                        A:40 X:33 Y:8C P:04 S:FB PPU:42 ,33  4784
F8B2  A9 80     LDA #$80                         A:40 X:33 Y:8C P:04 S:F9 PPU:42 ,51  4790
F8B4  60        RTS                              A:80 X:33 Y:8C P:84 S:F9 PPU:42 ,57  4792
D318  C5 78     CMP $78 = $00                    A:80 X:33 Y:8C P:84 S:FB PPU:42 ,75  4798
D31A  20 B5 F8  JSR $F8B5                        A:80 X:33 Y:8C P:85 S:FB PPU:42 ,84  4801
F8B5  F0 05     BEQ $F8BC                        A:80 X:33 Y:8C P:85 S:F9 PPU:42 ,102 4807
F8B7  10 03     BPL $F8BC                        A:80 X:33 Y:8C P:85 S:F9 PPU:42 ,108 4809
F8B9  90 01     BCC $F8BC                        A:80 X:33 Y:8C P:85 S:F9 PPU:42 ,114 4811
F8BB  60        RTS                              A:80 X:33 Y:8C P:85 S:F9 PPU:42 ,120 4813
D31D  C8        INY                              A:80 X:33 Y:8C P:85 S:FB PPU:42 ,138 4819
D31E  48        PHA                              A:80 X:33 Y:8D P:85 S:FB PPU:42 ,144 4821
D31F  A9 80     LDA #$80                         A:80 X:33 Y:8D P:85 S:FA PPU:42 ,153 4824
D321  85 78     STA $78 = $00                    A:80 X:33 Y:8D P:85 S:FA PPU:42 ,159 4826
D323  68        PLA                              A:80 X:33 Y:8D P:85 S:FA PPU:42 ,168 4829
D324  C5 78     CMP $78 = $80                    A:80 X:33 Y:8D P:85 S:FB PPU:42 ,180 4833
D326  20 BF F8  JSR $F8BF                        A:80 X:33 Y:8D P:07 S:FB PPU:42 ,189 4836
F8BF  D0 05     BNE $F8C6                        A:80 X:33 Y:8D P:07 S:F9 PPU:42 ,207 4842
F8C1  30 03     BMI $F8C6                        A:80 X:33 Y:8D P:07 S:F9 PPU:42 ,213 4844
F8C3  90 01     BCC $F8C6                        A:80 X:33 Y:8D P:07 S:F9 PPU:42 ,219 4846
F8C5  60        RTS                              A:80 X:33 Y:8D P:07 S:F9 PPU:42 ,225 4848
D329  C8        INY                              A:80 X:33 Y:8D P:07 S:FB PPU:42 ,243 4854
D32A  48        PHA                              A:80 X:33 Y:8E P:85 S:FB PPU:42 ,249 4856
D32B  A9 81     LDA #$81                         A:80 X:33 Y:8E P:85 S:FA PPU:42 ,258 4859
D32D  85 78     STA $78 = $80                    A:81 X:33 Y:8E P:85 S:FA PPU:42 ,264 4861
D32F  68        PLA                              A:81 X:33 Y:8E P:85 S:FA PPU:42 ,273 4864
D330  C5 78     CMP $78 = $81                    A:80 X:33 Y:8E P:85 S:FB PPU:42 ,285 4868
D332  20 C9 F8  JSR $F8C9                        A:80 X:33 Y:8E P:84 S:FB PPU:42 ,294 4871
F8C9  B0 05     BCS $F8D0                        A:80 X:33 Y:8E P:84 S:F9 PPU:42 ,312 4877
F8CB  F0 03     BEQ $F8D0                        A:80 X:33 Y:8E P:84 S:F9 PPU:42 ,318 4879
F8CD  10 01     BPL $F8D0                        A:80 X:33 Y:8E P:84 S:F9 PPU:42 ,324 4881
F8CF  60        RTS                              A:80 X:33 Y:8E P:84 S:F9 PPU:42 ,330 4883
D335  C8        INY                              A:80 X:33 Y:8E P:84 S:FB PPU:43 ,7   4889
D336  48        PHA                              A:80 X:33 Y:8F P:84 S:FB PPU:43 ,13  4891
D337  A9 7F     LDA #$7F                         A:80 X:33 Y:8F P:84 S:FA PPU:43 ,22  4894
D339  85 78     STA $78 = $81                    A:7F X:33 Y:8F P:04 S:FA PPU:43 ,28  4896
D33B  68        PLA                              A:7F X:33 Y:8F P:04 S:FA PPU:43 ,37  4899
D33C  C5 78     CMP $78 = $7F                    A:80 X:33 Y:8F P:84 S:FB PPU:43 ,49  4903
D33E  20 D3 F8  JSR $F8D3                        A:80 X:33 Y:8F P:05 S:FB PPU:43 ,58  4906
F8D3  90 05     BCC $F8DA                        A:80 X:33 Y:8F P:05 S:F9 PPU:43 ,76  4912
F8D5  F0 03     BEQ $F8DA                        A:80 X:33 Y:8F P:05 S:F9 PPU:43 ,82  4914
F8D7  30 01     BMI $F8DA                        A:80 X:33 Y:8F P:05 S:F9 PPU:43 ,88  4916
F8D9  60        RTS                              A:80 X:33 Y:8F P:05 S:F9 PPU:43 ,94  4918
D341  C8        INY                              A:80 X:33 Y:8F P:05 S:FB PPU:43 ,112 4924
D342  A9 40     LDA #$40                         A:80 X:33 Y:90 P:85 S:FB PPU:43 ,118 4926
D344  85 78     STA $78 = $7F                    A:40 X:33 Y:90 P:05 S:FB PPU:43 ,124 4928
D346  20 31 F9  JSR $F931                        A:40 X:33 Y:90 P:05 S:FB PPU:43 ,133 4931
F931  24 01     BIT $01 = $FF                    A:40 X:33 Y:90 P:05 S:F9 PPU:43 ,151 4937
F933  A9 40     LDA #$40                         A:40 X:33 Y:90 P:C5 S:F9 PPU:43 ,160 4940
F935  38        SEC                              A:40 X:33 Y:90 P:45 S:F9 PPU:43 ,166 4942
F936  60        RTS                              A:40 X:33 Y:90 P:45 S:F9 PPU:43 ,172 4944
D349  E5 78     SBC $78 = $40                    A:40 X:33 Y:90 P:45 S:FB PPU:43 ,190 4950
D34B  20 37 F9  JSR $F937                        A:00 X:33 Y:90 P:07 S:FB PPU:43 ,199 4953
F937  30 0B     BMI $F944                        A:00 X:33 Y:90 P:07 S:F9 PPU:43 ,217 4959
F939  90 09     BCC $F944                        A:00 X:33 Y:90 P:07 S:F9 PPU:43 ,223 4961
F93B  D0 07     BNE $F944                        A:00 X:33 Y:90 P:07 S:F9 PPU:43 ,229 4963
F93D  70 05     BVS $F944                        A:00 X:33 Y:90 P:07 S:F9 PPU:43 ,235 4965
F93F  C9 00     CMP #$00                         A:00 X:33 Y:90 P:07 S:F9 PPU:43 ,241 4967
F941  D0 01     BNE $F944                        A:00 X:33 Y:90 P:07 S:F9 PPU:43 ,247 4969
F943  60        RTS                              A:00 X:33 Y:90 P:07 S:F9 PPU:43 ,253 4971
D34E  C8        INY                              A:00 X:33 Y:90 P:07 S:FB PPU:43 ,271 4977
D34F  A9 3F     LDA #$3F                         A:00 X:33 Y:91 P:85 S:FB PPU:43 ,277 4979
D351  85 78     STA $78 = $40                    A:3F X:33 Y:91 P:05 S:FB PPU:43 ,283 4981
D353  20 47 F9  JSR $F947                        A:3F X:33 Y:91 P:05 S:FB PPU:43 ,292 4984
F947  B8        CLV                              A:3F X:33 Y:91 P:05 S:F9 PPU:43 ,310 4990
F948  38        SEC                              A:3F X:33 Y:91 P:05 S:F9 PPU:43 ,316 4992
F949  A9 40     LDA #$40                         A:3F X:33 Y:91 P:05 S:F9 PPU:43 ,322 4994
F94B  60        RTS                              A:40 X:33 Y:91 P:05 S:F9 PPU:43 ,328 4996
D356  E5 78     SBC $78 = $3F                    A:40 X:33 Y:91 P:05 S:FB PPU:44 ,5   5002
D358  20 4C F9  JSR $F94C                        A:01 X:33 Y:91 P:05 S:FB PPU:44 ,14  5005
F94C  F0 0B     BEQ $F959                        A:01 X:33 Y:91 P:05 S:F9 PPU:44 ,32  5011
F94E  30 09     BMI $F959                        A:01 X:33 Y:91 P:05 S:F9 PPU:44 ,38  5013
F950  90 07     BCC $F959                        A:01 X:33 Y:91 P:05 S:F9 PPU:44 ,44  5015
F952  70 05     BVS $F959                        A:01 X:33 Y:91 P:05 S:F9 PPU:44 ,50  5017
F954  C9 01     CMP #$01                         A:01 X:33 Y:91 P:05 S:F9 PPU:44 ,56  5019
F956  D0 01     BNE $F959                        A:01 X:33 Y:91 P:07 S:F9 PPU:44 ,62  5021
F958  60        RTS                              A:01 X:33 Y:91 P:07 S:F9 PPU:44 ,68  5023
D35B  C8        INY                              A:01 X:33 Y:91 P:07 S:FB PPU:44 ,86  5029
D35C  A9 41     LDA #$41                         A:01 X:33 Y:92 P:85 S:FB PPU:44 ,92  5031
D35E  85 78     STA $78 = $3F                    A:41 X:33 Y:92 P:05 S:FB PPU:44 ,98  5033
D360  20 5C F9  JSR $F95C                        A:41 X:33 Y:92 P:05 S:FB PPU:44 ,107 5036
F95C  A9 40     LDA #$40                         A:41 X:33 Y:92 P:05 S:F9 PPU:44 ,125 5042
F95E  38        SEC                              A:40 X:33 Y:92 P:05 S:F9 PPU:44 ,131 5044
F95F  24 01     BIT $01 = $FF                    A:40 X:33 Y:92 P:05 S:F9 PPU:44 ,137 5046
F961  60        RTS                              A:40 X:33 Y:92 P:C5 S:F9 PPU:44 ,146 5049
D363  E5 78     SBC $78 = $41                    A:40 X:33 Y:92 P:C5 S:FB PPU:44 ,164 5055
D365  20 62 F9  JSR $F962                        A:FF X:33 Y:92 P:84 S:FB PPU:44 ,173 5058
F962  B0 0B     BCS $F96F                        A:FF X:33 Y:92 P:84 S:F9 PPU:44 ,191 5064
F964  F0 09     BEQ $F96F                        A:FF X:33 Y:92 P:84 S:F9 PPU:44 ,197 5066
F966  10 07     BPL $F96F                        A:FF X:33 Y:92 P:84 S:F9 PPU:44 ,203 5068
F968  70 05     BVS $F96F                        A:FF X:33 Y:92 P:84 S:F9 PPU:44 ,209 5070
F96A  C9 FF     CMP #$FF                         A:FF X:33 Y:92 P:84 S:F9 PPU:44 ,215 5072
F96C  D0 01     BNE $F96F                        A:FF X:33 Y:92 P:07 S:F9 PPU:44 ,221 5074
F96E  60        RTS                              A:FF X:33 Y:92 P:07 S:F9 PPU:44 ,227 5076
D368  C8        INY                              A:FF X:33 Y:92 P:07 S:FB PPU:44 ,245 5082
D369  A9 00     LDA #$00                         A:FF X:33 Y:93 P:85 S:FB PPU:44 ,251 5084
D36B  85 78     STA $78 = $41                    A:00 X:33 Y:93 P:07 S:FB PPU:44 ,257 5086
D36D  20 72 F9  JSR $F972                        A:00 X:33 Y:93 P:07 S:FB PPU:44 ,266 5089
F972  18        CLC                              A:00 X:33 Y:93 P:07 S:F9 PPU:44 ,284 5095
F973  A9 80     LDA #$80                         A:00 X:33 Y:93 P:06 S:F9 PPU:44 ,290 5097
F975  60        RTS                              A:80 X:33 Y:93 P:84 S:F9 PPU:44 ,296 5099
D370  E5 78     SBC $78 = $00                    A:80 X:33 Y:93 P:84 S:FB PPU:44 ,314 5105
D372  20 76 F9  JSR $F976                        A:7F X:33 Y:93 P:45 S:FB PPU:44 ,323 5108
F976  90 05     BCC $F97D                        A:7F X:33 Y:93 P:45 S:F9 PPU:45 ,0   5114
F978  C9 7F     CMP #$7F                         A:7F X:33 Y:93 P:45 S:F9 PPU:45 ,6   5116
F97A  D0 01     BNE $F97D                        A:7F X:33 Y:93 P:47 S:F9 PPU:45 ,12  5118
F97C  60        RTS                              A:7F X:33 Y:93 P:47 S:F9 PPU:45 ,18  5120
D375  C8        INY                              A:7F X:33 Y:93 P:47 S:FB PPU:45 ,36  5126
D376  A9 7F     LDA #$7F                         A:7F X:33 Y:94 P:C5 S:FB PPU:45 ,42  5128
D378  85 78     STA $78 = $00                    A:7F X:33 Y:94 P:45 S:FB PPU:45 ,48  5130
D37A  20 80 F9  JSR $F980                        A:7F X:33 Y:94 P:45 S:FB PPU:45 ,57  5133
F980  38        SEC                              A:7F X:33 Y:94 P:45 S:F9 PPU:45 ,75  5139
F981  A9 81     LDA #$81                         A:7F X:33 Y:94 P:45 S:F9 PPU:45 ,81  5141
F983  60        RTS                              A:81 X:33 Y:94 P:C5 S:F9 PPU:45 ,87  5143
D37D  E5 78     SBC $78 = $7F                    A:81 X:33 Y:94 P:C5 S:FB PPU:45 ,105 5149
D37F  20 84 F9  JSR $F984                        A:02 X:33 Y:94 P:45 S:FB PPU:45 ,114 5152
F984  50 07     BVC $F98D                        A:02 X:33 Y:94 P:45 S:F9 PPU:45 ,132 5158
F986  90 05     BCC $F98D                        A:02 X:33 Y:94 P:45 S:F9 PPU:45 ,138 5160
F988  C9 02     CMP #$02                         A:02 X:33 Y:94 P:45 S:F9 PPU:45 ,144 5162
F98A  D0 01     BNE $F98D                        A:02 X:33 Y:94 P:47 S:F9 PPU:45 ,150 5164
F98C  60        RTS                              A:02 X:33 Y:94 P:47 S:F9 PPU:45 ,156 5166
D382  C8        INY                              A:02 X:33 Y:94 P:47 S:FB PPU:45 ,174 5172
D383  A9 40     LDA #$40                         A:02 X:33 Y:95 P:C5 S:FB PPU:45 ,180 5174
D385  85 78     STA $78 = $7F                    A:40 X:33 Y:95 P:45 S:FB PPU:45 ,186 5176
D387  20 89 F8  JSR $F889                        A:40 X:33 Y:95 P:45 S:FB PPU:45 ,195 5179
F889  24 01     BIT $01 = $FF                    A:40 X:33 Y:95 P:45 S:F9 PPU:45 ,213 5185
F88B  A9 40     LDA #$40                         A:40 X:33 Y:95 P:C5 S:F9 PPU:45 ,222 5188
F88D  60        RTS                              A:40 X:33 Y:95 P:45 S:F9 PPU:45 ,228 5190
D38A  AA        TAX                              A:40 X:33 Y:95 P:45 S:FB PPU:45 ,246 5196
D38B  E4 78     CPX $78 = $40                    A:40 X:40 Y:95 P:45 S:FB PPU:45 ,252 5198
D38D  20 8E F8  JSR $F88E                        A:40 X:40 Y:95 P:47 S:FB PPU:45 ,261 5201
F88E  30 07     BMI $F897                        A:40 X:40 Y:95 P:47 S:F9 PPU:45 ,279 5207
F890  90 05     BCC $F897                        A:40 X:40 Y:95 P:47 S:F9 PPU:45 ,285 5209
F892  D0 03     BNE $F897                        A:40 X:40 Y:95 P:47 S:F9 PPU:45 ,291 5211
F894  50 01     BVC $F897                        A:40 X:40 Y:95 P:47 S:F9 PPU:45 ,297 5213
F896  60        RTS                              A:40 X:40 Y:95 P:47 S:F9 PPU:45 ,303 5215
D390  C8        INY                              A:40 X:40 Y:95 P:47 S:FB PPU:45 ,321 5221
D391  A9 3F     LDA #$3F                         A:40 X:40 Y:96 P:C5 S:FB PPU:45 ,327 5223
D393  85 78     STA $78 = $40                    A:3F X:40 Y:96 P:45 S:FB PPU:45 ,333 5225
D395  20 9A F8  JSR $F89A                        A:3F X:40 Y:96 P:45 S:FB PPU:46 ,1   5228
F89A  B8        CLV                              A:3F X:40 Y:96 P:45 S:F9 PPU:46 ,19  5234
F89B  60        RTS                              A:3F X:40 Y:96 P:05 S:F9 PPU:46 ,25  5236
D398  E4 78     CPX $78 = $3F                    A:3F X:40 Y:96 P:05 S:FB PPU:46 ,43  5242
D39A  20 9C F8  JSR $F89C                        A:3F X:40 Y:96 P:05 S:FB PPU:46 ,52  5245
F89C  F0 07     BEQ $F8A5                        A:3F X:40 Y:96 P:05 S:F9 PPU:46 ,70  5251
F89E  30 05     BMI $F8A5                        A:3F X:40 Y:96 P:05 S:F9 PPU:46 ,76  5253
F8A0  90 03     BCC $F8A5                        A:3F X:40 Y:96 P:05 S:F9 PPU:46 ,82  5255
F8A2  70 01     BVS $F8A5                        A:3F X:40 Y:96 P:05 S:F9 PPU:46 ,88  5257
F8A4  60        RTS                              A:3F X:40 Y:96 P:05 S:F9 PPU:46 ,94  5259
D39D  C8        INY                              A:3F X:40 Y:96 P:05 S:FB PPU:46 ,112 5265
D39E  A9 41     LDA #$41                         A:3F X:40 Y:97 P:85 S:FB PPU:46 ,118 5267
D3A0  85 78     STA $78 = $3F                    A:41 X:40 Y:97 P:05 S:FB PPU:46 ,124 5269
D3A2  E4 78     CPX $78 = $41                    A:41 X:40 Y:97 P:05 S:FB PPU:46 ,133 5272
D3A4  20 A8 F8  JSR $F8A8                        A:41 X:40 Y:97 P:84 S:FB PPU:46 ,142 5275
F8A8  F0 05     BEQ $F8AF                        A:41 X:40 Y:97 P:84 S:F9 PPU:46 ,160 5281
F8AA  10 03     BPL $F8AF                        A:41 X:40 Y:97 P:84 S:F9 PPU:46 ,166 5283
F8AC  10 01     BPL $F8AF                        A:41 X:40 Y:97 P:84 S:F9 PPU:46 ,172 5285
F8AE  60        RTS                              A:41 X:40 Y:97 P:84 S:F9 PPU:46 ,178 5287
D3A7  C8        INY                              A:41 X:40 Y:97 P:84 S:FB PPU:46 ,196 5293
D3A8  A9 00     LDA #$00                         A:41 X:40 Y:98 P:84 S:FB PPU:46 ,202 5295
D3AA  85 78     STA $78 = $41                    A:00 X:40 Y:98 P:06 S:FB PPU:46 ,208 5297
D3AC  20 B2 F8  JSR $F8B2                        A:00 X:40 Y:98 P:06 S:FB PPU:46 ,217 5300
F8B2  A9 80     LDA #$80                         A:00 X:40 Y:98 P:06 S:F9 PPU:46 ,235 5306
F8B4  60        RTS                              A:80 X:40 Y:98 P:84 S:F9 PPU:46 ,241 5308
D3AF  AA        TAX                              A:80 X:40 Y:98 P:84 S:FB PPU:46 ,259 5314
D3B0  E4 78     CPX $78 = $00                    A:80 X:80 Y:98 P:84 S:FB PPU:46 ,265 5316
D3B2  20 B5 F8  JSR $F8B5                        A:80 X:80 Y:98 P:85 S:FB PPU:46 ,274 5319
F8B5  F0 05     BEQ $F8BC                        A:80 X:80 Y:98 P:85 S:F9 PPU:46 ,292 5325
F8B7  10 03     BPL $F8BC                        A:80 X:80 Y:98 P:85 S:F9 PPU:46 ,298 5327
F8B9  90 01     BCC $F8BC                        A:80 X:80 Y:98 P:85 S:F9 PPU:46 ,304 5329
F8BB  60        RTS                              A:80 X:80 Y:98 P:85 S:F9 PPU:46 ,310 5331
D3B5  C8        INY                              A:80 X:80 Y:98 P:85 S:FB PPU:46 ,328 5337
D3B6  A9 80     LDA #$80                         A:80 X:80 Y:99 P:85 S:FB PPU:46 ,334 5339
D3B8  85 78     STA $78 = $00                    A:80 X:80 Y:99 P:85 S:FB PPU:46 ,340 5341
D3BA  E4 78     CPX $78 = $80                    A:80 X:80 Y:99 P:85 S:FB PPU:47 ,8   5344
D3BC  20 BF F8  JSR $F8BF                        A:80 X:80 Y:99 P:07 S:FB PPU:47 ,17  5347
F8BF  D0 05     BNE $F8C6                        A:80 X:80 Y:99 P:07 S:F9 PPU:47 ,35  5353
F8C1  30 03     BMI $F8C6                        A:80 X:80 Y:99 P:07 S:F9 PPU:47 ,41  5355
F8C3  90 01     BCC $F8C6                        A:80 X:80 Y:99 P:07 S:F9 PPU:47 ,47  5357
F8C5  60        RTS                              A:80 X:80 Y:99 P:07 S:F9 PPU:47 ,53  5359
D3BF  C8        INY                              A:80 X:80 Y:99 P:07 S:FB PPU:47 ,71  5365
D3C0  A9 81     LDA #$81                         A:80 X:80 Y:9A P:85 S:FB PPU:47 ,77  5367
D3C2  85 78     STA $78 = $80                    A:81 X:80 Y:9A P:85 S:FB PPU:47 ,83  5369
D3C4  E4 78     CPX $78 = $81                    A:81 X:80 Y:9A P:85 S:FB PPU:47 ,92  5372
D3C6  20 C9 F8  JSR $F8C9                        A:81 X:80 Y:9A P:84 S:FB PPU:47 ,101 5375
F8C9  B0 05     BCS $F8D0                        A:81 X:80 Y:9A P:84 S:F9 PPU:47 ,119 5381
F8CB  F0 03     BEQ $F8D0                        A:81 X:80 Y:9A P:84 S:F9 PPU:47 ,125 5383
F8CD  10 01     BPL $F8D0                        A:81 X:80 Y:9A P:84 S:F9 PPU:47 ,131 5385
F8CF  60        RTS                              A:81 X:80 Y:9A P:84 S:F9 PPU:47 ,137 5387
D3C9  C8        INY                              A:81 X:80 Y:9A P:84 S:FB PPU:47 ,155 5393
D3CA  A9 7F     LDA #$7F                         A:81 X:80 Y:9B P:84 S:FB PPU:47 ,161 5395
D3CC  85 78     STA $78 = $81                    A:7F X:80 Y:9B P:04 S:FB PPU:47 ,167 5397
D3CE  E4 78     CPX $78 = $7F                    A:7F X:80 Y:9B P:04 S:FB PPU:47 ,176 5400
D3D0  20 D3 F8  JSR $F8D3                        A:7F X:80 Y:9B P:05 S:FB PPU:47 ,185 5403
F8D3  90 05     BCC $F8DA                        A:7F X:80 Y:9B P:05 S:F9 PPU:47 ,203 5409
F8D5  F0 03     BEQ $F8DA                        A:7F X:80 Y:9B P:05 S:F9 PPU:47 ,209 5411
F8D7  30 01     BMI $F8DA                        A:7F X:80 Y:9B P:05 S:F9 PPU:47 ,215 5413
F8D9  60        RTS                              A:7F X:80 Y:9B P:05 S:F9 PPU:47 ,221 5415
D3D3  C8        INY                              A:7F X:80 Y:9B P:05 S:FB PPU:47 ,239 5421
D3D4  98        TYA                              A:7F X:80 Y:9C P:85 S:FB PPU:47 ,245 5423
D3D5  AA        TAX                              A:9C X:80 Y:9C P:85 S:FB PPU:47 ,251 5425
D3D6  A9 40     LDA #$40                         A:9C X:9C Y:9C P:85 S:FB PPU:47 ,257 5427
D3D8  85 78     STA $78 = $7F                    A:40 X:9C Y:9C P:05 S:FB PPU:47 ,263 5429
D3DA  20 DD F8  JSR $F8DD                        A:40 X:9C Y:9C P:05 S:FB PPU:47 ,272 5432
F8DD  24 01     BIT $01 = $FF                    A:40 X:9C Y:9C P:05 S:F9 PPU:47 ,290 5438
F8DF  A0 40     LDY #$40                         A:40 X:9C Y:9C P:C5 S:F9 PPU:47 ,299 5441
F8E1  60        RTS                              A:40 X:9C Y:40 P:45 S:F9 PPU:47 ,305 5443
D3DD  C4 78     CPY $78 = $40                    A:40 X:9C Y:40 P:45 S:FB PPU:47 ,323 5449
D3DF  20 E2 F8  JSR $F8E2                        A:40 X:9C Y:40 P:47 S:FB PPU:47 ,332 5452
F8E2  30 07     BMI $F8EB                        A:40 X:9C Y:40 P:47 S:F9 PPU:48 ,9   5458
F8E4  90 05     BCC $F8EB                        A:40 X:9C Y:40 P:47 S:F9 PPU:48 ,15  5460
F8E6  D0 03     BNE $F8EB                        A:40 X:9C Y:40 P:47 S:F9 PPU:48 ,21  5462
F8E8  50 01     BVC $F8EB                        A:40 X:9C Y:40 P:47 S:F9 PPU:48 ,27  5464
F8EA  60        RTS                              A:40 X:9C Y:40 P:47 S:F9 PPU:48 ,33  5466
D3E2  E8        INX                              A:40 X:9C Y:40 P:47 S:FB PPU:48 ,51  5472
D3E3  A9 3F     LDA #$3F                         A:40 X:9D Y:40 P:C5 S:FB PPU:48 ,57  5474
D3E5  85 78     STA $78 = $40                    A:3F X:9D Y:40 P:45 S:FB PPU:48 ,63  5476
D3E7  20 EE F8  JSR $F8EE                        A:3F X:9D Y:40 P:45 S:FB PPU:48 ,72  5479
F8EE  B8        CLV                              A:3F X:9D Y:40 P:45 S:F9 PPU:48 ,90  5485
F8EF  60        RTS                              A:3F X:9D Y:40 P:05 S:F9 PPU:48 ,96  5487
D3EA  C4 78     CPY $78 = $3F                    A:3F X:9D Y:40 P:05 S:FB PPU:48 ,114 5493
D3EC  20 F0 F8  JSR $F8F0                        A:3F X:9D Y:40 P:05 S:FB PPU:48 ,123 5496
F8F0  F0 07     BEQ $F8F9                        A:3F X:9D Y:40 P:05 S:F9 PPU:48 ,141 5502
F8F2  30 05     BMI $F8F9                        A:3F X:9D Y:40 P:05 S:F9 PPU:48 ,147 5504
F8F4  90 03     BCC $F8F9                        A:3F X:9D Y:40 P:05 S:F9 PPU:48 ,153 5506
F8F6  70 01     BVS $F8F9                        A:3F X:9D Y:40 P:05 S:F9 PPU:48 ,159 5508
F8F8  60        RTS                              A:3F X:9D Y:40 P:05 S:F9 PPU:48 ,165 5510
D3EF  E8        INX                              A:3F X:9D Y:40 P:05 S:FB PPU:48 ,183 5516
D3F0  A9 41     LDA #$41                         A:3F X:9E Y:40 P:85 S:FB PPU:48 ,189 5518
D3F2  85 78     STA $78 = $3F                    A:41 X:9E Y:40 P:05 S:FB PPU:48 ,195 5520
D3F4  C4 78     CPY $78 = $41                    A:41 X:9E Y:40 P:05 S:FB PPU:48 ,204 5523
D3F6  20 FC F8  JSR $F8FC                        A:41 X:9E Y:40 P:84 S:FB PPU:48 ,213 5526
F8FC  F0 05     BEQ $F903                        A:41 X:9E Y:40 P:84 S:F9 PPU:48 ,231 5532
F8FE  10 03     BPL $F903                        A:41 X:9E Y:40 P:84 S:F9 PPU:48 ,237 5534
F900  10 01     BPL $F903                        A:41 X:9E Y:40 P:84 S:F9 PPU:48 ,243 5536
F902  60        RTS                              A:41 X:9E Y:40 P:84 S:F9 PPU:48 ,249 5538
D3F9  E8        INX                              A:41 X:9E Y:40 P:84 S:FB PPU:48 ,267 5544
D3FA  A9 00     LDA #$00                         A:41 X:9F Y:40 P:84 S:FB PPU:48 ,273 5546
D3FC  85 78     STA $78 = $41                    A:00 X:9F Y:40 P:06 S:FB PPU:48 ,279 5548
D3FE  20 06 F9  JSR $F906                        A:00 X:9F Y:40 P:06 S:FB PPU:48 ,288 5551
F906  A0 80     LDY #$80                         A:00 X:9F Y:40 P:06 S:F9 PPU:48 ,306 5557
F908  60        RTS                              A:00 X:9F Y:80 P:84 S:F9 PPU:48 ,312 5559
D401  C4 78     CPY $78 = $00                    A:00 X:9F Y:80 P:84 S:FB PPU:48 ,330 5565
D403  20 09 F9  JSR $F909                        A:00 X:9F Y:80 P:85 S:FB PPU:48 ,339 5568
F909  F0 05     BEQ $F910                        A:00 X:9F Y:80 P:85 S:F9 PPU:49 ,16  5574
F90B  10 03     BPL $F910                        A:00 X:9F Y:80 P:85 S:F9 PPU:49 ,22  5576
F90D  90 01     BCC $F910                        A:00 X:9F Y:80 P:85 S:F9 PPU:49 ,28  5578
F90F  60        RTS                              A:00 X:9F Y:80 P:85 S:F9 PPU:49 ,34  5580
D406  E8        INX                              A:00 X:9F Y:80 P:85 S:FB PPU:49 ,52  5586
D407  A9 80     LDA #$80                         A:00 X:A0 Y:80 P:85 S:FB PPU:49 ,58  5588
D409  85 78     STA $78 = $00                    A:80 X:A0 Y:80 P:85 S:FB PPU:49 ,64  5590
D40B  C4 78     CPY $78 = $80                    A:80 X:A0 Y:80 P:85 S:FB PPU:49 ,73  5593
D40D  20 13 F9  JSR $F913                        A:80 X:A0 Y:80 P:07 S:FB PPU:49 ,82  5596
F913  D0 05     BNE $F91A                        A:80 X:A0 Y:80 P:07 S:F9 PPU:49 ,100 5602
F915  30 03     BMI $F91A                        A:80 X:A0 Y:80 P:07 S:F9 PPU:49 ,106 5604
F917  90 01     BCC $F91A                        A:80 X:A0 Y:80 P:07 S:F9 PPU:49 ,112 5606
F919  60        RTS                              A:80 X:A0 Y:80 P:07 S:F9 PPU:49 ,118 5608
D410  E8        INX                              A:80 X:A0 Y:80 P:07 S:FB PPU:49 ,136 5614
D411  A9 81     LDA #$81                         A:80 X:A1 Y:80 P:85 S:FB PPU:49 ,142 5616
D413  85 78     STA $78 = $80                    A:81 X:A1 Y:80 P:85 S:FB PPU:49 ,148 5618
D415  C4 78     CPY $78 = $81                    A:81 X:A1 Y:80 P:85 S:FB PPU:49 ,157 5621
D417  20 1D F9  JSR $F91D                        A:81 X:A1 Y:80 P:84 S:FB PPU:49 ,166 5624
F91D  B0 05     BCS $F924                        A:81 X:A1 Y:80 P:84 S:F9 PPU:49 ,184 5630
F91F  F0 03     BEQ $F924                        A:81 X:A1 Y:80 P:84 S:F9 PPU:49 ,190 5632
F921  10 01     BPL $F924                        A:81 X:A1 Y:80 P:84 S:F9 PPU:49 ,196 5634
F923  60        RTS                              A:81 X:A1 Y:80 P:84 S:F9 PPU:49 ,202 5636
D41A  E8        INX                              A:81 X:A1 Y:80 P:84 S:FB PPU:49 ,220 5642
D41B  A9 7F     LDA #$7F                         A:81 X:A2 Y:80 P:84 S:FB PPU:49 ,226 5644
D41D  85 78     STA $78 = $81                    A:7F X:A2 Y:80 P:04 S:FB PPU:49 ,232 5646
D41F  C4 78     CPY $78 = $7F                    A:7F X:A2 Y:80 P:04 S:FB PPU:49 ,241 5649
D421  20 27 F9  JSR $F927                        A:7F X:A2 Y:80 P:05 S:FB PPU:49 ,250 5652
F927  90 05     BCC $F92E                        A:7F X:A2 Y:80 P:05 S:F9 PPU:49 ,268 5658
F929  F0 03     BEQ $F92E                        A:7F X:A2 Y:80 P:05 S:F9 PPU:49 ,274 5660
F92B  30 01     BMI $F92E                        A:7F X:A2 Y:80 P:05 S:F9 PPU:49 ,280 5662
F92D  60        RTS                              A:7F X:A2 Y:80 P:05 S:F9 PPU:49 ,286 5664
D424  E8        INX                              A:7F X:A2 Y:80 P:05 S:FB PPU:49 ,304 5670
D425  8A        TXA                              A:7F X:A3 Y:80 P:85 S:FB PPU:49 ,310 5672
D426  A8        TAY                              A:A3 X:A3 Y:80 P:85 S:FB PPU:49 ,316 5674
D427  20 90 F9  JSR $F990                        A:A3 X:A3 Y:A3 P:85 S:FB PPU:49 ,322 5676
F990  A2 55     LDX #$55                         A:A3 X:A3 Y:A3 P:85 S:F9 PPU:49 ,340 5682
F992  A9 FF     LDA #$FF                         A:A3 X:55 Y:A3 P:05 S:F9 PPU:50 ,5   5684
F994  85 01     STA $01 = $FF                    A:FF X:55 Y:A3 P:85 S:F9 PPU:50 ,11  5686
F996  EA        NOP                              A:FF X:55 Y:A3 P:85 S:F9 PPU:50 ,20  5689
F997  24 01     BIT $01 = $FF                    A:FF X:55 Y:A3 P:85 S:F9 PPU:50 ,26  5691
F999  38        SEC                              A:FF X:55 Y:A3 P:C5 S:F9 PPU:50 ,35  5694
F99A  A9 01     LDA #$01                         A:FF X:55 Y:A3 P:C5 S:F9 PPU:50 ,41  5696
F99C  60        RTS                              A:01 X:55 Y:A3 P:45 S:F9 PPU:50 ,47  5698
D42A  85 78     STA $78 = $7F                    A:01 X:55 Y:A3 P:45 S:FB PPU:50 ,65  5704
D42C  46 78     LSR $78 = $01                    A:01 X:55 Y:A3 P:45 S:FB PPU:50 ,74  5707
D42E  A5 78     LDA $78 = $00                    A:01 X:55 Y:A3 P:47 S:FB PPU:50 ,89  5712
D430  20 9D F9  JSR $F99D                        A:00 X:55 Y:A3 P:47 S:FB PPU:50 ,98  5715
F99D  90 1B     BCC $F9BA                        A:00 X:55 Y:A3 P:47 S:F9 PPU:50 ,116 5721
F99F  D0 19     BNE $F9BA                        A:00 X:55 Y:A3 P:47 S:F9 PPU:50 ,122 5723
F9A1  30 17     BMI $F9BA                        A:00 X:55 Y:A3 P:47 S:F9 PPU:50 ,128 5725
F9A3  50 15     BVC $F9BA                        A:00 X:55 Y:A3 P:47 S:F9 PPU:50 ,134 5727
F9A5  C9 00     CMP #$00                         A:00 X:55 Y:A3 P:47 S:F9 PPU:50 ,140 5729
F9A7  D0 11     BNE $F9BA                        A:00 X:55 Y:A3 P:47 S:F9 PPU:50 ,146 5731
F9A9  B8        CLV                              A:00 X:55 Y:A3 P:47 S:F9 PPU:50 ,152 5733
F9AA  A9 AA     LDA #$AA                         A:00 X:55 Y:A3 P:07 S:F9 PPU:50 ,158 5735
F9AC  60        RTS                              A:AA X:55 Y:A3 P:85 S:F9 PPU:50 ,164 5737
D433  C8        INY                              A:AA X:55 Y:A3 P:85 S:FB PPU:50 ,182 5743
D434  85 78     STA $78 = $00                    A:AA X:55 Y:A4 P:85 S:FB PPU:50 ,188 5745
D436  46 78     LSR $78 = $AA                    A:AA X:55 Y:A4 P:85 S:FB PPU:50 ,197 5748
D438  A5 78     LDA $78 = $55                    A:AA X:55 Y:A4 P:04 S:FB PPU:50 ,212 5753
D43A  20 AD F9  JSR $F9AD                        A:55 X:55 Y:A4 P:04 S:FB PPU:50 ,221 5756
F9AD  B0 0B     BCS $F9BA                        A:55 X:55 Y:A4 P:04 S:F9 PPU:50 ,239 5762
F9AF  F0 09     BEQ $F9BA                        A:55 X:55 Y:A4 P:04 S:F9 PPU:50 ,245 5764
F9B1  30 07     BMI $F9BA                        A:55 X:55 Y:A4 P:04 S:F9 PPU:50 ,251 5766
F9B3  70 05     BVS $F9BA                        A:55 X:55 Y:A4 P:04 S:F9 PPU:50 ,257 5768
F9B5  C9 55     CMP #$55                         A:55 X:55 Y:A4 P:04 S:F9 PPU:50 ,263 5770
F9B7  D0 01     BNE $F9BA                        A:55 X:55 Y:A4 P:07 S:F9 PPU:50 ,269 5772
F9B9  60        RTS                              A:55 X:55 Y:A4 P:07 S:F9 PPU:50 ,275 5774
D43D  C8        INY                              A:55 X:55 Y:A4 P:07 S:FB PPU:50 ,293 5780
D43E  20 BD F9  JSR $F9BD                        A:55 X:55 Y:A5 P:85 S:FB PPU:50 ,299 5782
F9BD  24 01     BIT $01 = $FF                    A:55 X:55 Y:A5 P:85 S:F9 PPU:50 ,317 5788
F9BF  38        SEC                              A:55 X:55 Y:A5 P:C5 S:F9 PPU:50 ,326 5791
F9C0  A9 80     LDA #$80                         A:55 X:55 Y:A5 P:C5 S:F9 PPU:50 ,332 5793
F9C2  60        RTS                              A:80 X:55 Y:A5 P:C5 S:F9 PPU:50 ,338 5795
D441  85 78     STA $78 = $55                    A:80 X:55 Y:A5 P:C5 S:FB PPU:51 ,15  5801
D443  06 78     ASL $78 = $80                    A:80 X:55 Y:A5 P:C5 S:FB PPU:51 ,24  5804
D445  A5 78     LDA $78 = $00                    A:80 X:55 Y:A5 P:47 S:FB PPU:51 ,39  5809
D447  20 C3 F9  JSR $F9C3                        A:00 X:55 Y:A5 P:47 S:FB PPU:51 ,48  5812
F9C3  90 1C     BCC $F9E1                        A:00 X:55 Y:A5 P:47 S:F9 PPU:51 ,66  5818
F9C5  D0 1A     BNE $F9E1                        A:00 X:55 Y:A5 P:47 S:F9 PPU:51 ,72  5820
F9C7  30 18     BMI $F9E1                        A:00 X:55 Y:A5 P:47 S:F9 PPU:51 ,78  5822
F9C9  50 16     BVC $F9E1                        A:00 X:55 Y:A5 P:47 S:F9 PPU:51 ,84  5824
F9CB  C9 00     CMP #$00                         A:00 X:55 Y:A5 P:47 S:F9 PPU:51 ,90  5826
F9CD  D0 12     BNE $F9E1                        A:00 X:55 Y:A5 P:47 S:F9 PPU:51 ,96  5828
F9CF  B8        CLV                              A:00 X:55 Y:A5 P:47 S:F9 PPU:51 ,102 5830
F9D0  A9 55     LDA #$55                         A:00 X:55 Y:A5 P:07 S:F9 PPU:51 ,108 5832
F9D2  38        SEC                              A:55 X:55 Y:A5 P:05 S:F9 PPU:51 ,114 5834
F9D3  60        RTS                              A:55 X:55 Y:A5 P:05 S:F9 PPU:51 ,120 5836
D44A  C8        INY                              A:55 X:55 Y:A5 P:05 S:FB PPU:51 ,138 5842
D44B  85 78     STA $78 = $00                    A:55 X:55 Y:A6 P:85 S:FB PPU:51 ,144 5844
D44D  06 78     ASL $78 = $55                    A:55 X:55 Y:A6 P:85 S:FB PPU:51 ,153 5847
D44F  A5 78     LDA $78 = $AA                    A:55 X:55 Y:A6 P:84 S:FB PPU:51 ,168 5852
D451  20 D4 F9  JSR $F9D4                        A:AA X:55 Y:A6 P:84 S:FB PPU:51 ,177 5855
F9D4  B0 0B     BCS $F9E1                        A:AA X:55 Y:A6 P:84 S:F9 PPU:51 ,195 5861
F9D6  F0 09     BEQ $F9E1                        A:AA X:55 Y:A6 P:84 S:F9 PPU:51 ,201 5863
F9D8  10 07     BPL $F9E1                        A:AA X:55 Y:A6 P:84 S:F9 PPU:51 ,207 5865
F9DA  70 05     BVS $F9E1                        A:AA X:55 Y:A6 P:84 S:F9 PPU:51 ,213 5867
F9DC  C9 AA     CMP #$AA                         A:AA X:55 Y:A6 P:84 S:F9 PPU:51 ,219 5869
F9DE  D0 01     BNE $F9E1                        A:AA X:55 Y:A6 P:07 S:F9 PPU:51 ,225 5871
F9E0  60        RTS                              A:AA X:55 Y:A6 P:07 S:F9 PPU:51 ,231 5873
D454  C8        INY                              A:AA X:55 Y:A6 P:07 S:FB PPU:51 ,249 5879
D455  20 E4 F9  JSR $F9E4                        A:AA X:55 Y:A7 P:85 S:FB PPU:51 ,255 5881
F9E4  24 01     BIT $01 = $FF                    A:AA X:55 Y:A7 P:85 S:F9 PPU:51 ,273 5887
F9E6  38        SEC                              A:AA X:55 Y:A7 P:C5 S:F9 PPU:51 ,282 5890
F9E7  A9 01     LDA #$01                         A:AA X:55 Y:A7 P:C5 S:F9 PPU:51 ,288 5892
F9E9  60        RTS                              A:01 X:55 Y:A7 P:45 S:F9 PPU:51 ,294 5894
D458  85 78     STA $78 = $AA                    A:01 X:55 Y:A7 P:45 S:FB PPU:51 ,312 5900
D45A  66 78     ROR $78 = $01                    A:01 X:55 Y:A7 P:45 S:FB PPU:51 ,321 5903
D45C  A5 78     LDA $78 = $80                    A:01 X:55 Y:A7 P:C5 S:FB PPU:51 ,336 5908
D45E  20 EA F9  JSR $F9EA                        A:80 X:55 Y:A7 P:C5 S:FB PPU:52 ,4   5911
F9EA  90 1C     BCC $FA08                        A:80 X:55 Y:A7 P:C5 S:F9 PPU:52 ,22  5917
F9EC  F0 1A     BEQ $FA08                        A:80 X:55 Y:A7 P:C5 S:F9 PPU:52 ,28  5919
F9EE  10 18     BPL $FA08                        A:80 X:55 Y:A7 P:C5 S:F9 PPU:52 ,34  5921
F9F0  50 16     BVC $FA08                        A:80 X:55 Y:A7 P:C5 S:F9 PPU:52 ,40  5923
F9F2  C9 80     CMP #$80                         A:80 X:55 Y:A7 P:C5 S:F9 PPU:52 ,46  5925
F9F4  D0 12     BNE $FA08                        A:80 X:55 Y:A7 P:47 S:F9 PPU:52 ,52  5927
F9F6  B8        CLV                              A:80 X:55 Y:A7 P:47 S:F9 PPU:52 ,58  5929
F9F7  18        CLC                              A:80 X:55 Y:A7 P:07 S:F9 PPU:52 ,64  5931
F9F8  A9 55     LDA #$55                         A:80 X:55 Y:A7 P:06 S:F9 PPU:52 ,70  5933
F9FA  60        RTS                              A:55 X:55 Y:A7 P:04 S:F9 PPU:52 ,76  5935
D461  C8        INY                              A:55 X:55 Y:A7 P:04 S:FB PPU:52 ,94  5941
D462  85 78     STA $78 = $80                    A:55 X:55 Y:A8 P:84 S:FB PPU:52 ,100 5943
D464  66 78     ROR $78 = $55                    A:55 X:55 Y:A8 P:84 S:FB PPU:52 ,109 5946
D466  A5 78     LDA $78 = $2A                    A:55 X:55 Y:A8 P:05 S:FB PPU:52 ,124 5951
D468  20 FB F9  JSR $F9FB                        A:2A X:55 Y:A8 P:05 S:FB PPU:52 ,133 5954
F9FB  90 0B     BCC $FA08                        A:2A X:55 Y:A8 P:05 S:F9 PPU:52 ,151 5960
F9FD  F0 09     BEQ $FA08                        A:2A X:55 Y:A8 P:05 S:F9 PPU:52 ,157 5962
F9FF  30 07     BMI $FA08                        A:2A X:55 Y:A8 P:05 S:F9 PPU:52 ,163 5964
FA01  70 05     BVS $FA08                        A:2A X:55 Y:A8 P:05 S:F9 PPU:52 ,169 5966
FA03  C9 2A     CMP #$2A                         A:2A X:55 Y:A8 P:05 S:F9 PPU:52 ,175 5968
FA05  D0 01     BNE $FA08                        A:2A X:55 Y:A8 P:07 S:F9 PPU:52 ,181 5970
FA07  60        RTS                              A:2A X:55 Y:A8 P:07 S:F9 PPU:52 ,187 5972
D46B  C8        INY                              A:2A X:55 Y:A8 P:07 S:FB PPU:52 ,205 5978
D46C  20 0A FA  JSR $FA0A                        A:2A X:55 Y:A9 P:85 S:FB PPU:52 ,211 5980
FA0A  24 01     BIT $01 = $FF                    A:2A X:55 Y:A9 P:85 S:F9 PPU:52 ,229 5986
FA0C  38        SEC                              A:2A X:55 Y:A9 P:C5 S:F9 PPU:52 ,238 5989
FA0D  A9 80     LDA #$80                         A:2A X:55 Y:A9 P:C5 S:F9 PPU:52 ,244 5991
FA0F  60        RTS                              A:80 X:55 Y:A9 P:C5 S:F9 PPU:52 ,250 5993
D46F  85 78     STA $78 = $2A                    A:80 X:55 Y:A9 P:C5 S:FB PPU:52 ,268 5999
D471  26 78     ROL $78 = $80                    A:80 X:55 Y:A9 P:C5 S:FB PPU:52 ,277 6002
D473  A5 78     LDA $78 = $01                    A:80 X:55 Y:A9 P:45 S:FB PPU:52 ,292 6007
D475  20 10 FA  JSR $FA10                        A:01 X:55 Y:A9 P:45 S:FB PPU:52 ,301 6010
FA10  90 1C     BCC $FA2E                        A:01 X:55 Y:A9 P:45 S:F9 PPU:52 ,319 6016
FA12  F0 1A     BEQ $FA2E                        A:01 X:55 Y:A9 P:45 S:F9 PPU:52 ,325 6018
FA14  30 18     BMI $FA2E                        A:01 X:55 Y:A9 P:45 S:F9 PPU:52 ,331 6020
FA16  50 16     BVC $FA2E                        A:01 X:55 Y:A9 P:45 S:F9 PPU:52 ,337 6022
FA18  C9 01     CMP #$01                         A:01 X:55 Y:A9 P:45 S:F9 PPU:53 ,2   6024
FA1A  D0 12     BNE $FA2E                        A:01 X:55 Y:A9 P:47 S:F9 PPU:53 ,8   6026
FA1C  B8        CLV                              A:01 X:55 Y:A9 P:47 S:F9 PPU:53 ,14  6028
FA1D  18        CLC                              A:01 X:55 Y:A9 P:07 S:F9 PPU:53 ,20  6030
FA1E  A9 55     LDA #$55                         A:01 X:55 Y:A9 P:06 S:F9 PPU:53 ,26  6032
FA20  60        RTS                              A:55 X:55 Y:A9 P:04 S:F9 PPU:53 ,32  6034
D478  C8        INY                              A:55 X:55 Y:A9 P:04 S:FB PPU:53 ,50  6040
D479  85 78     STA $78 = $01                    A:55 X:55 Y:AA P:84 S:FB PPU:53 ,56  6042
D47B  26 78     ROL $78 = $55                    A:55 X:55 Y:AA P:84 S:FB PPU:53 ,65  6045
D47D  A5 78     LDA $78 = $AA                    A:55 X:55 Y:AA P:84 S:FB PPU:53 ,80  6050
D47F  20 21 FA  JSR $FA21                        A:AA X:55 Y:AA P:84 S:FB PPU:53 ,89  6053
FA21  B0 0B     BCS $FA2E                        A:AA X:55 Y:AA P:84 S:F9 PPU:53 ,107 6059
FA23  F0 09     BEQ $FA2E                        A:AA X:55 Y:AA P:84 S:F9 PPU:53 ,113 6061
FA25  10 07     BPL $FA2E                        A:AA X:55 Y:AA P:84 S:F9 PPU:53 ,119 6063
FA27  70 05     BVS $FA2E                        A:AA X:55 Y:AA P:84 S:F9 PPU:53 ,125 6065
FA29  C9 AA     CMP #$AA                         A:AA X:55 Y:AA P:84 S:F9 PPU:53 ,131 6067
FA2B  D0 01     BNE $FA2E                        A:AA X:55 Y:AA P:07 S:F9 PPU:53 ,137 6069
FA2D  60        RTS                              A:AA X:55 Y:AA P:07 S:F9 PPU:53 ,143 6071
D482  A9 FF     LDA #$FF                         A:AA X:55 Y:AA P:07 S:FB PPU:53 ,161 6077
D484  85 78     STA $78 = $AA                    A:FF X:55 Y:AA P:85 S:FB PPU:53 ,167 6079
D486  85 01     STA $01 = $FF                    A:FF X:55 Y:AA P:85 S:FB PPU:53 ,176 6082
D488  24 01     BIT $01 = $FF                    A:FF X:55 Y:AA P:85 S:FB PPU:53 ,185 6085
D48A  38        SEC                              A:FF X:55 Y:AA P:C5 S:FB PPU:53 ,194 6088
D48B  E6 78     INC $78 = $FF                    A:FF X:55 Y:AA P:C5 S:FB PPU:53 ,200 6090
D48D  D0 0C     BNE $D49B                        A:FF X:55 Y:AA P:47 S:FB PPU:53 ,215 6095
D48F  30 0A     BMI $D49B                        A:FF X:55 Y:AA P:47 S:FB PPU:53 ,221 6097
D491  50 08     BVC $D49B                        A:FF X:55 Y:AA P:47 S:FB PPU:53 ,227 6099
D493  90 06     BCC $D49B                        A:FF X:55 Y:AA P:47 S:FB PPU:53 ,233 6101
D495  A5 78     LDA $78 = $00                    A:FF X:55 Y:AA P:47 S:FB PPU:53 ,239 6103
D497  C9 00     CMP #$00                         A:00 X:55 Y:AA P:47 S:FB PPU:53 ,248 6106
D499  F0 04     BEQ $D49F                        A:00 X:55 Y:AA P:47 S:FB PPU:53 ,254 6108
D49F  A9 7F     LDA #$7F                         A:00 X:55 Y:AA P:47 S:FB PPU:53 ,263 6111
D4A1  85 78     STA $78 = $00                    A:7F X:55 Y:AA P:45 S:FB PPU:53 ,269 6113
D4A3  B8        CLV                              A:7F X:55 Y:AA P:45 S:FB PPU:53 ,278 6116
D4A4  18        CLC                              A:7F X:55 Y:AA P:05 S:FB PPU:53 ,284 6118
D4A5  E6 78     INC $78 = $7F                    A:7F X:55 Y:AA P:04 S:FB PPU:53 ,290 6120
D4A7  F0 0C     BEQ $D4B5                        A:7F X:55 Y:AA P:84 S:FB PPU:53 ,305 6125
D4A9  10 0A     BPL $D4B5                        A:7F X:55 Y:AA P:84 S:FB PPU:53 ,311 6127
D4AB  70 08     BVS $D4B5                        A:7F X:55 Y:AA P:84 S:FB PPU:53 ,317 6129
D4AD  B0 06     BCS $D4B5                        A:7F X:55 Y:AA P:84 S:FB PPU:53 ,323 6131
D4AF  A5 78     LDA $78 = $80                    A:7F X:55 Y:AA P:84 S:FB PPU:53 ,329 6133
D4B1  C9 80     CMP #$80                         A:80 X:55 Y:AA P:84 S:FB PPU:53 ,338 6136
D4B3  F0 04     BEQ $D4B9                        A:80 X:55 Y:AA P:07 S:FB PPU:54 ,3   6138
D4B9  A9 00     LDA #$00                         A:80 X:55 Y:AA P:07 S:FB PPU:54 ,12  6141
D4BB  85 78     STA $78 = $80                    A:00 X:55 Y:AA P:07 S:FB PPU:54 ,18  6143
D4BD  24 01     BIT $01 = $FF                    A:00 X:55 Y:AA P:07 S:FB PPU:54 ,27  6146
D4BF  38        SEC                              A:00 X:55 Y:AA P:C7 S:FB PPU:54 ,36  6149
D4C0  C6 78     DEC $78 = $00                    A:00 X:55 Y:AA P:C7 S:FB PPU:54 ,42  6151
D4C2  F0 0C     BEQ $D4D0                        A:00 X:55 Y:AA P:C5 S:FB PPU:54 ,57  6156
D4C4  10 0A     BPL $D4D0                        A:00 X:55 Y:AA P:C5 S:FB PPU:54 ,63  6158
D4C6  50 08     BVC $D4D0                        A:00 X:55 Y:AA P:C5 S:FB PPU:54 ,69  6160
D4C8  90 06     BCC $D4D0                        A:00 X:55 Y:AA P:C5 S:FB PPU:54 ,75  6162
D4CA  A5 78     LDA $78 = $FF                    A:00 X:55 Y:AA P:C5 S:FB PPU:54 ,81  6164
D4CC  C9 FF     CMP #$FF                         A:FF X:55 Y:AA P:C5 S:FB PPU:54 ,90  6167
D4CE  F0 04     BEQ $D4D4                        A:FF X:55 Y:AA P:47 S:FB PPU:54 ,96  6169
D4D4  A9 80     LDA #$80                         A:FF X:55 Y:AA P:47 S:FB PPU:54 ,105 6172
D4D6  85 78     STA $78 = $FF                    A:80 X:55 Y:AA P:C5 S:FB PPU:54 ,111 6174
D4D8  B8        CLV                              A:80 X:55 Y:AA P:C5 S:FB PPU:54 ,120 6177
D4D9  18        CLC                              A:80 X:55 Y:AA P:85 S:FB PPU:54 ,126 6179
D4DA  C6 78     DEC $78 = $80                    A:80 X:55 Y:AA P:84 S:FB PPU:54 ,132 6181
D4DC  F0 0C     BEQ $D4EA                        A:80 X:55 Y:AA P:04 S:FB PPU:54 ,147 6186
D4DE  30 0A     BMI $D4EA                        A:80 X:55 Y:AA P:04 S:FB PPU:54 ,153 6188
D4E0  70 08     BVS $D4EA                        A:80 X:55 Y:AA P:04 S:FB PPU:54 ,159 6190
D4E2  B0 06     BCS $D4EA                        A:80 X:55 Y:AA P:04 S:FB PPU:54 ,165 6192
D4E4  A5 78     LDA $78 = $7F                    A:80 X:55 Y:AA P:04 S:FB PPU:54 ,171 6194
D4E6  C9 7F     CMP #$7F                         A:7F X:55 Y:AA P:04 S:FB PPU:54 ,180 6197
D4E8  F0 04     BEQ $D4EE                        A:7F X:55 Y:AA P:07 S:FB PPU:54 ,186 6199
D4EE  A9 01     LDA #$01                         A:7F X:55 Y:AA P:07 S:FB PPU:54 ,195 6202
D4F0  85 78     STA $78 = $7F                    A:01 X:55 Y:AA P:05 S:FB PPU:54 ,201 6204
D4F2  C6 78     DEC $78 = $01                    A:01 X:55 Y:AA P:05 S:FB PPU:54 ,210 6207
D4F4  F0 04     BEQ $D4FA                        A:01 X:55 Y:AA P:07 S:FB PPU:54 ,225 6212
D4FA  60        RTS                              A:01 X:55 Y:AA P:07 S:FB PPU:54 ,234 6215
C615  20 FB D4  JSR $D4FB                        A:01 X:55 Y:AA P:07 S:FD PPU:54 ,252 6221
D4FB  A9 55     LDA #$55                         A:01 X:55 Y:AA P:07 S:FB PPU:54 ,270 6227
D4FD  8D 78 06  STA $0678 = $00                  A:55 X:55 Y:AA P:05 S:FB PPU:54 ,276 6229
D500  A9 FF     LDA #$FF                         A:55 X:55 Y:AA P:05 S:FB PPU:54 ,288 6233
D502  85 01     STA $01 = $FF                    A:FF X:55 Y:AA P:85 S:FB PPU:54 ,294 6235
D504  24 01     BIT $01 = $FF                    A:FF X:55 Y:AA P:85 S:FB PPU:54 ,303 6238
D506  A0 11     LDY #$11                         A:FF X:55 Y:AA P:C5 S:FB PPU:54 ,312 6241
D508  A2 23     LDX #$23                         A:FF X:55 Y:11 P:45 S:FB PPU:54 ,318 6243
D50A  A9 00     LDA #$00                         A:FF X:23 Y:11 P:45 S:FB PPU:54 ,324 6245
D50C  AD 78 06  LDA $0678 = $55                  A:00 X:23 Y:11 P:47 S:FB PPU:54 ,330 6247
D50F  F0 10     BEQ $D521                        A:55 X:23 Y:11 P:45 S:FB PPU:55 ,1   6251
D511  30 0E     BMI $D521                        A:55 X:23 Y:11 P:45 S:FB PPU:55 ,7   6253
D513  C9 55     CMP #$55                         A:55 X:23 Y:11 P:45 S:FB PPU:55 ,13  6255
D515  D0 0A     BNE $D521                        A:55 X:23 Y:11 P:47 S:FB PPU:55 ,19  6257
D517  C0 11     CPY #$11                         A:55 X:23 Y:11 P:47 S:FB PPU:55 ,25  6259
D519  D0 06     BNE $D521                        A:55 X:23 Y:11 P:47 S:FB PPU:55 ,31  6261
D51B  E0 23     CPX #$23                         A:55 X:23 Y:11 P:47 S:FB PPU:55 ,37  6263
D51D  50 02     BVC $D521                        A:55 X:23 Y:11 P:47 S:FB PPU:55 ,43  6265
D51F  F0 04     BEQ $D525                        A:55 X:23 Y:11 P:47 S:FB PPU:55 ,49  6267
D525  A9 46     LDA #$46                         A:55 X:23 Y:11 P:47 S:FB PPU:55 ,58  6270
D527  24 01     BIT $01 = $FF                    A:46 X:23 Y:11 P:45 S:FB PPU:55 ,64  6272
D529  8D 78 06  STA $0678 = $55                  A:46 X:23 Y:11 P:C5 S:FB PPU:55 ,73  6275
D52C  F0 0B     BEQ $D539                        A:46 X:23 Y:11 P:C5 S:FB PPU:55 ,85  6279
D52E  10 09     BPL $D539                        A:46 X:23 Y:11 P:C5 S:FB PPU:55 ,91  6281
D530  50 07     BVC $D539                        A:46 X:23 Y:11 P:C5 S:FB PPU:55 ,97  6283
D532  AD 78 06  LDA $0678 = $46                  A:46 X:23 Y:11 P:C5 S:FB PPU:55 ,103 6285
D535  C9 46     CMP #$46                         A:46 X:23 Y:11 P:45 S:FB PPU:55 ,115 6289
D537  F0 04     BEQ $D53D                        A:46 X:23 Y:11 P:47 S:FB PPU:55 ,121 6291
D53D  A9 55     LDA #$55                         A:46 X:23 Y:11 P:47 S:FB PPU:55 ,130 6294
D53F  8D 78 06  STA $0678 = $46                  A:55 X:23 Y:11 P:45 S:FB PPU:55 ,136 6296
D542  24 01     BIT $01 = $FF                    A:55 X:23 Y:11 P:45 S:FB PPU:55 ,148 6300
D544  A9 11     LDA #$11                         A:55 X:23 Y:11 P:C5 S:FB PPU:55 ,157 6303
D546  A2 23     LDX #$23                         A:11 X:23 Y:11 P:45 S:FB PPU:55 ,163 6305
D548  A0 00     LDY #$00                         A:11 X:23 Y:11 P:45 S:FB PPU:55 ,169 6307
D54A  AC 78 06  LDY $0678 = $55                  A:11 X:23 Y:00 P:47 S:FB PPU:55 ,175 6309
D54D  F0 10     BEQ $D55F                        A:11 X:23 Y:55 P:45 S:FB PPU:55 ,187 6313
D54F  30 0E     BMI $D55F                        A:11 X:23 Y:55 P:45 S:FB PPU:55 ,193 6315
D551  C0 55     CPY #$55                         A:11 X:23 Y:55 P:45 S:FB PPU:55 ,199 6317
D553  D0 0A     BNE $D55F                        A:11 X:23 Y:55 P:47 S:FB PPU:55 ,205 6319
D555  C9 11     CMP #$11                         A:11 X:23 Y:55 P:47 S:FB PPU:55 ,211 6321
D557  D0 06     BNE $D55F                        A:11 X:23 Y:55 P:47 S:FB PPU:55 ,217 6323
D559  E0 23     CPX #$23                         A:11 X:23 Y:55 P:47 S:FB PPU:55 ,223 6325
D55B  50 02     BVC $D55F                        A:11 X:23 Y:55 P:47 S:FB PPU:55 ,229 6327
D55D  F0 04     BEQ $D563                        A:11 X:23 Y:55 P:47 S:FB PPU:55 ,235 6329
D563  A0 46     LDY #$46                         A:11 X:23 Y:55 P:47 S:FB PPU:55 ,244 6332
D565  24 01     BIT $01 = $FF                    A:11 X:23 Y:46 P:45 S:FB PPU:55 ,250 6334
D567  8C 78 06  STY $0678 = $55                  A:11 X:23 Y:46 P:C5 S:FB PPU:55 ,259 6337
D56A  F0 0B     BEQ $D577                        A:11 X:23 Y:46 P:C5 S:FB PPU:55 ,271 6341
D56C  10 09     BPL $D577                        A:11 X:23 Y:46 P:C5 S:FB PPU:55 ,277 6343
D56E  50 07     BVC $D577                        A:11 X:23 Y:46 P:C5 S:FB PPU:55 ,283 6345
D570  AC 78 06  LDY $0678 = $46                  A:11 X:23 Y:46 P:C5 S:FB PPU:55 ,289 6347
D573  C0 46     CPY #$46                         A:11 X:23 Y:46 P:45 S:FB PPU:55 ,301 6351
D575  F0 04     BEQ $D57B                        A:11 X:23 Y:46 P:47 S:FB PPU:55 ,307 6353
D57B  24 01     BIT $01 = $FF                    A:11 X:23 Y:46 P:47 S:FB PPU:55 ,316 6356
D57D  A9 55     LDA #$55                         A:11 X:23 Y:46 P:C5 S:FB PPU:55 ,325 6359
D57F  8D 78 06  STA $0678 = $46                  A:55 X:23 Y:46 P:45 S:FB PPU:55 ,331 6361
D582  A0 11     LDY #$11                         A:55 X:23 Y:46 P:45 S:FB PPU:56 ,2   6365
D584  A9 23     LDA #$23                         A:55 X:23 Y:11 P:45 S:FB PPU:56 ,8   6367
D586  A2 00     LDX #$00                         A:23 X:23 Y:11 P:45 S:FB PPU:56 ,14  6369
D588  AE 78 06  LDX $0678 = $55                  A:23 X:00 Y:11 P:47 S:FB PPU:56 ,20  6371
D58B  F0 10     BEQ $D59D                        A:23 X:55 Y:11 P:45 S:FB PPU:56 ,32  6375
D58D  30 0E     BMI $D59D                        A:23 X:55 Y:11 P:45 S:FB PPU:56 ,38  6377
D58F  E0 55     CPX #$55                         A:23 X:55 Y:11 P:45 S:FB PPU:56 ,44  6379
D591  D0 0A     BNE $D59D                        A:23 X:55 Y:11 P:47 S:FB PPU:56 ,50  6381
D593  C0 11     CPY #$11                         A:23 X:55 Y:11 P:47 S:FB PPU:56 ,56  6383
D595  D0 06     BNE $D59D                        A:23 X:55 Y:11 P:47 S:FB PPU:56 ,62  6385
D597  C9 23     CMP #$23                         A:23 X:55 Y:11 P:47 S:FB PPU:56 ,68  6387
D599  50 02     BVC $D59D                        A:23 X:55 Y:11 P:47 S:FB PPU:56 ,74  6389
D59B  F0 04     BEQ $D5A1                        A:23 X:55 Y:11 P:47 S:FB PPU:56 ,80  6391
D5A1  A2 46     LDX #$46                         A:23 X:55 Y:11 P:47 S:FB PPU:56 ,89  6394
D5A3  24 01     BIT $01 = $FF                    A:23 X:46 Y:11 P:45 S:FB PPU:56 ,95  6396
D5A5  8E 78 06  STX $0678 = $55                  A:23 X:46 Y:11 P:C5 S:FB PPU:56 ,104 6399
D5A8  F0 0B     BEQ $D5B5                        A:23 X:46 Y:11 P:C5 S:FB PPU:56 ,116 6403
D5AA  10 09     BPL $D5B5                        A:23 X:46 Y:11 P:C5 S:FB PPU:56 ,122 6405
D5AC  50 07     BVC $D5B5                        A:23 X:46 Y:11 P:C5 S:FB PPU:56 ,128 6407
D5AE  AE 78 06  LDX $0678 = $46                  A:23 X:46 Y:11 P:C5 S:FB PPU:56 ,134 6409
D5B1  E0 46     CPX #$46                         A:23 X:46 Y:11 P:45 S:FB PPU:56 ,146 6413
D5B3  F0 04     BEQ $D5B9                        A:23 X:46 Y:11 P:47 S:FB PPU:56 ,152 6415
D5B9  A9 C0     LDA #$C0                         A:23 X:46 Y:11 P:47 S:FB PPU:56 ,161 6418
D5BB  8D 78 06  STA $0678 = $46                  A:C0 X:46 Y:11 P:C5 S:FB PPU:56 ,167 6420
D5BE  A2 33     LDX #$33                         A:C0 X:46 Y:11 P:C5 S:FB PPU:56 ,179 6424
D5C0  A0 88     LDY #$88                         A:C0 X:33 Y:11 P:45 S:FB PPU:56 ,185 6426
D5C2  A9 05     LDA #$05                         A:C0 X:33 Y:88 P:C5 S:FB PPU:56 ,191 6428
D5C4  2C 78 06  BIT $0678 = $C0                  A:05 X:33 Y:88 P:45 S:FB PPU:56 ,197 6430
D5C7  10 10     BPL $D5D9                        A:05 X:33 Y:88 P:C7 S:FB PPU:56 ,209 6434
D5C9  50 0E     BVC $D5D9                        A:05 X:33 Y:88 P:C7 S:FB PPU:56 ,215 6436
D5CB  D0 0C     BNE $D5D9                        A:05 X:33 Y:88 P:C7 S:FB PPU:56 ,221 6438
D5CD  C9 05     CMP #$05                         A:05 X:33 Y:88 P:C7 S:FB PPU:56 ,227 6440
D5CF  D0 08     BNE $D5D9                        A:05 X:33 Y:88 P:47 S:FB PPU:56 ,233 6442
D5D1  E0 33     CPX #$33                         A:05 X:33 Y:88 P:47 S:FB PPU:56 ,239 6444
D5D3  D0 04     BNE $D5D9                        A:05 X:33 Y:88 P:47 S:FB PPU:56 ,245 6446
D5D5  C0 88     CPY #$88                         A:05 X:33 Y:88 P:47 S:FB PPU:56 ,251 6448
D5D7  F0 04     BEQ $D5DD                        A:05 X:33 Y:88 P:47 S:FB PPU:56 ,257 6450
D5DD  A9 03     LDA #$03                         A:05 X:33 Y:88 P:47 S:FB PPU:56 ,266 6453
D5DF  8D 78 06  STA $0678 = $C0                  A:03 X:33 Y:88 P:45 S:FB PPU:56 ,272 6455
D5E2  A9 01     LDA #$01                         A:03 X:33 Y:88 P:45 S:FB PPU:56 ,284 6459
D5E4  2C 78 06  BIT $0678 = $03                  A:01 X:33 Y:88 P:45 S:FB PPU:56 ,290 6461
D5E7  30 08     BMI $D5F1                        A:01 X:33 Y:88 P:05 S:FB PPU:56 ,302 6465
D5E9  70 06     BVS $D5F1                        A:01 X:33 Y:88 P:05 S:FB PPU:56 ,308 6467
D5EB  F0 04     BEQ $D5F1                        A:01 X:33 Y:88 P:05 S:FB PPU:56 ,314 6469
D5ED  C9 01     CMP #$01                         A:01 X:33 Y:88 P:05 S:FB PPU:56 ,320 6471
D5EF  F0 04     BEQ $D5F5                        A:01 X:33 Y:88 P:07 S:FB PPU:56 ,326 6473
D5F5  A0 B8     LDY #$B8                         A:01 X:33 Y:88 P:07 S:FB PPU:56 ,335 6476
D5F7  A9 AA     LDA #$AA                         A:01 X:33 Y:B8 P:85 S:FB PPU:57 ,0   6478
D5F9  8D 78 06  STA $0678 = $03                  A:AA X:33 Y:B8 P:85 S:FB PPU:57 ,6   6480
D5FC  20 B6 F7  JSR $F7B6                        A:AA X:33 Y:B8 P:85 S:FB PPU:57 ,18  6484
F7B6  18        CLC                              A:AA X:33 Y:B8 P:85 S:F9 PPU:57 ,36  6490
F7B7  A9 FF     LDA #$FF                         A:AA X:33 Y:B8 P:84 S:F9 PPU:57 ,42  6492
F7B9  85 01     STA $01 = $FF                    A:FF X:33 Y:B8 P:84 S:F9 PPU:57 ,48  6494
F7BB  24 01     BIT $01 = $FF                    A:FF X:33 Y:B8 P:84 S:F9 PPU:57 ,57  6497
F7BD  A9 55     LDA #$55                         A:FF X:33 Y:B8 P:C4 S:F9 PPU:57 ,66  6500
F7BF  60        RTS                              A:55 X:33 Y:B8 P:44 S:F9 PPU:57 ,72  6502
D5FF  0D 78 06  ORA $0678 = $AA                  A:55 X:33 Y:B8 P:44 S:FB PPU:57 ,90  6508
D602  20 C0 F7  JSR $F7C0                        A:FF X:33 Y:B8 P:C4 S:FB PPU:57 ,102 6512
F7C0  B0 09     BCS $F7CB                        A:FF X:33 Y:B8 P:C4 S:F9 PPU:57 ,120 6518
F7C2  10 07     BPL $F7CB                        A:FF X:33 Y:B8 P:C4 S:F9 PPU:57 ,126 6520
F7C4  C9 FF     CMP #$FF                         A:FF X:33 Y:B8 P:C4 S:F9 PPU:57 ,132 6522
F7C6  D0 03     BNE $F7CB                        A:FF X:33 Y:B8 P:47 S:F9 PPU:57 ,138 6524
F7C8  50 01     BVC $F7CB                        A:FF X:33 Y:B8 P:47 S:F9 PPU:57 ,144 6526
F7CA  60        RTS                              A:FF X:33 Y:B8 P:47 S:F9 PPU:57 ,150 6528
D605  C8        INY                              A:FF X:33 Y:B8 P:47 S:FB PPU:57 ,168 6534
D606  A9 00     LDA #$00                         A:FF X:33 Y:B9 P:C5 S:FB PPU:57 ,174 6536
D608  8D 78 06  STA $0678 = $AA                  A:00 X:33 Y:B9 P:47 S:FB PPU:57 ,180 6538
D60B  20 CE F7  JSR $F7CE                        A:00 X:33 Y:B9 P:47 S:FB PPU:57 ,192 6542
F7CE  38        SEC                              A:00 X:33 Y:B9 P:47 S:F9 PPU:57 ,210 6548
F7CF  B8        CLV                              A:00 X:33 Y:B9 P:47 S:F9 PPU:57 ,216 6550
F7D0  A9 00     LDA #$00                         A:00 X:33 Y:B9 P:07 S:F9 PPU:57 ,222 6552
F7D2  60        RTS                              A:00 X:33 Y:B9 P:07 S:F9 PPU:57 ,228 6554
D60E  0D 78 06  ORA $0678 = $00                  A:00 X:33 Y:B9 P:07 S:FB PPU:57 ,246 6560
D611  20 D3 F7  JSR $F7D3                        A:00 X:33 Y:B9 P:07 S:FB PPU:57 ,258 6564
F7D3  D0 07     BNE $F7DC                        A:00 X:33 Y:B9 P:07 S:F9 PPU:57 ,276 6570
F7D5  70 05     BVS $F7DC                        A:00 X:33 Y:B9 P:07 S:F9 PPU:57 ,282 6572
F7D7  90 03     BCC $F7DC                        A:00 X:33 Y:B9 P:07 S:F9 PPU:57 ,288 6574
F7D9  30 01     BMI $F7DC                        A:00 X:33 Y:B9 P:07 S:F9 PPU:57 ,294 6576
F7DB  60        RTS                              A:00 X:33 Y:B9 P:07 S:F9 PPU:57 ,300 6578
D614  C8        INY                              A:00 X:33 Y:B9 P:07 S:FB PPU:57 ,318 6584
D615  A9 AA     LDA #$AA                         A:00 X:33 Y:BA P:85 S:FB PPU:57 ,324 6586
D617  8D 78 06  STA $0678 = $00                  A:AA X:33 Y:BA P:85 S:FB PPU:57 ,330 6588
D61A  20 DF F7  JSR $F7DF                        A:AA X:33 Y:BA P:85 S:FB PPU:58 ,1   6592
F7DF  18        CLC                              A:AA X:33 Y:BA P:85 S:F9 PPU:58 ,19  6598
F7E0  24 01     BIT $01 = $FF                    A:AA X:33 Y:BA P:84 S:F9 PPU:58 ,25  6600
F7E2  A9 55     LDA #$55                         A:AA X:33 Y:BA P:C4 S:F9 PPU:58 ,34  6603
F7E4  60        RTS                              A:55 X:33 Y:BA P:44 S:F9 PPU:58 ,40  6605
D61D  2D 78 06  AND $0678 = $AA                  A:55 X:33 Y:BA P:44 S:FB PPU:58 ,58  6611
D620  20 E5 F7  JSR $F7E5                        A:00 X:33 Y:BA P:46 S:FB PPU:58 ,70  6615
F7E5  D0 07     BNE $F7EE                        A:00 X:33 Y:BA P:46 S:F9 PPU:58 ,88  6621
F7E7  50 05     BVC $F7EE                        A:00 X:33 Y:BA P:46 S:F9 PPU:58 ,94  6623
F7E9  B0 03     BCS $F7EE                        A:00 X:33 Y:BA P:46 S:F9 PPU:58 ,100 6625
F7EB  30 01     BMI $F7EE                        A:00 X:33 Y:BA P:46 S:F9 PPU:58 ,106 6627
F7ED  60        RTS                              A:00 X:33 Y:BA P:46 S:F9 PPU:58 ,112 6629
D623  C8        INY                              A:00 X:33 Y:BA P:46 S:FB PPU:58 ,130 6635
D624  A9 EF     LDA #$EF                         A:00 X:33 Y:BB P:C4 S:FB PPU:58 ,136 6637
D626  8D 78 06  STA $0678 = $AA                  A:EF X:33 Y:BB P:C4 S:FB PPU:58 ,142 6639
D629  20 F1 F7  JSR $F7F1                        A:EF X:33 Y:BB P:C4 S:FB PPU:58 ,154 6643
F7F1  38        SEC                              A:EF X:33 Y:BB P:C4 S:F9 PPU:58 ,172 6649
F7F2  B8        CLV                              A:EF X:33 Y:BB P:C5 S:F9 PPU:58 ,178 6651
F7F3  A9 F8     LDA #$F8                         A:EF X:33 Y:BB P:85 S:F9 PPU:58 ,184 6653
F7F5  60        RTS                              A:F8 X:33 Y:BB P:85 S:F9 PPU:58 ,190 6655
D62C  2D 78 06  AND $0678 = $EF                  A:F8 X:33 Y:BB P:85 S:FB PPU:58 ,208 6661
D62F  20 F6 F7  JSR $F7F6                        A:E8 X:33 Y:BB P:85 S:FB PPU:58 ,220 6665
F7F6  90 09     BCC $F801                        A:E8 X:33 Y:BB P:85 S:F9 PPU:58 ,238 6671
F7F8  10 07     BPL $F801                        A:E8 X:33 Y:BB P:85 S:F9 PPU:58 ,244 6673
F7FA  C9 E8     CMP #$E8                         A:E8 X:33 Y:BB P:85 S:F9 PPU:58 ,250 6675
F7FC  D0 03     BNE $F801                        A:E8 X:33 Y:BB P:07 S:F9 PPU:58 ,256 6677
F7FE  70 01     BVS $F801                        A:E8 X:33 Y:BB P:07 S:F9 PPU:58 ,262 6679
F800  60        RTS                              A:E8 X:33 Y:BB P:07 S:F9 PPU:58 ,268 6681
D632  C8        INY                              A:E8 X:33 Y:BB P:07 S:FB PPU:58 ,286 6687
D633  A9 AA     LDA #$AA                         A:E8 X:33 Y:BC P:85 S:FB PPU:58 ,292 6689
D635  8D 78 06  STA $0678 = $EF                  A:AA X:33 Y:BC P:85 S:FB PPU:58 ,298 6691
D638  20 04 F8  JSR $F804                        A:AA X:33 Y:BC P:85 S:FB PPU:58 ,310 6695
F804  18        CLC                              A:AA X:33 Y:BC P:85 S:F9 PPU:58 ,328 6701
F805  24 01     BIT $01 = $FF                    A:AA X:33 Y:BC P:84 S:F9 PPU:58 ,334 6703
F807  A9 5F     LDA #$5F                         A:AA X:33 Y:BC P:C4 S:F9 PPU:59 ,2   6706
F809  60        RTS                              A:5F X:33 Y:BC P:44 S:F9 PPU:59 ,8   6708
D63B  4D 78 06  EOR $0678 = $AA                  A:5F X:33 Y:BC P:44 S:FB PPU:59 ,26  6714
D63E  20 0A F8  JSR $F80A                        A:F5 X:33 Y:BC P:C4 S:FB PPU:59 ,38  6718
F80A  B0 09     BCS $F815                        A:F5 X:33 Y:BC P:C4 S:F9 PPU:59 ,56  6724
F80C  10 07     BPL $F815                        A:F5 X:33 Y:BC P:C4 S:F9 PPU:59 ,62  6726
F80E  C9 F5     CMP #$F5                         A:F5 X:33 Y:BC P:C4 S:F9 PPU:59 ,68  6728
F810  D0 03     BNE $F815                        A:F5 X:33 Y:BC P:47 S:F9 PPU:59 ,74  6730
F812  50 01     BVC $F815                        A:F5 X:33 Y:BC P:47 S:F9 PPU:59 ,80  6732
F814  60        RTS                              A:F5 X:33 Y:BC P:47 S:F9 PPU:59 ,86  6734
D641  C8        INY                              A:F5 X:33 Y:BC P:47 S:FB PPU:59 ,104 6740
D642  A9 70     LDA #$70                         A:F5 X:33 Y:BD P:C5 S:FB PPU:59 ,110 6742
D644  8D 78 06  STA $0678 = $AA                  A:70 X:33 Y:BD P:45 S:FB PPU:59 ,116 6744
D647  20 18 F8  JSR $F818                        A:70 X:33 Y:BD P:45 S:FB PPU:59 ,128 6748
F818  38        SEC                              A:70 X:33 Y:BD P:45 S:F9 PPU:59 ,146 6754
F819  B8        CLV                              A:70 X:33 Y:BD P:45 S:F9 PPU:59 ,152 6756
F81A  A9 70     LDA #$70                         A:70 X:33 Y:BD P:05 S:F9 PPU:59 ,158 6758
F81C  60        RTS                              A:70 X:33 Y:BD P:05 S:F9 PPU:59 ,164 6760
D64A  4D 78 06  EOR $0678 = $70                  A:70 X:33 Y:BD P:05 S:FB PPU:59 ,182 6766
D64D  20 1D F8  JSR $F81D                        A:00 X:33 Y:BD P:07 S:FB PPU:59 ,194 6770
F81D  D0 07     BNE $F826                        A:00 X:33 Y:BD P:07 S:F9 PPU:59 ,212 6776
F81F  70 05     BVS $F826                        A:00 X:33 Y:BD P:07 S:F9 PPU:59 ,218 6778
F821  90 03     BCC $F826                        A:00 X:33 Y:BD P:07 S:F9 PPU:59 ,224 6780
F823  30 01     BMI $F826                        A:00 X:33 Y:BD P:07 S:F9 PPU:59 ,230 6782
F825  60        RTS                              A:00 X:33 Y:BD P:07 S:F9 PPU:59 ,236 6784
D650  C8        INY                              A:00 X:33 Y:BD P:07 S:FB PPU:59 ,254 6790
D651  A9 69     LDA #$69                         A:00 X:33 Y:BE P:85 S:FB PPU:59 ,260 6792
D653  8D 78 06  STA $0678 = $70                  A:69 X:33 Y:BE P:05 S:FB PPU:59 ,266 6794
D656  20 29 F8  JSR $F829                        A:69 X:33 Y:BE P:05 S:FB PPU:59 ,278 6798
F829  18        CLC                              A:69 X:33 Y:BE P:05 S:F9 PPU:59 ,296 6804
F82A  24 01     BIT $01 = $FF                    A:69 X:33 Y:BE P:04 S:F9 PPU:59 ,302 6806
F82C  A9 00     LDA #$00                         A:69 X:33 Y:BE P:C4 S:F9 PPU:59 ,311 6809
F82E  60        RTS                              A:00 X:33 Y:BE P:46 S:F9 PPU:59 ,317 6811
D659  6D 78 06  ADC $0678 = $69                  A:00 X:33 Y:BE P:46 S:FB PPU:59 ,335 6817
D65C  20 2F F8  JSR $F82F                        A:69 X:33 Y:BE P:04 S:FB PPU:60 ,6   6821
F82F  30 09     BMI $F83A                        A:69 X:33 Y:BE P:04 S:F9 PPU:60 ,24  6827
F831  B0 07     BCS $F83A                        A:69 X:33 Y:BE P:04 S:F9 PPU:60 ,30  6829
F833  C9 69     CMP #$69                         A:69 X:33 Y:BE P:04 S:F9 PPU:60 ,36  6831
F835  D0 03     BNE $F83A                        A:69 X:33 Y:BE P:07 S:F9 PPU:60 ,42  6833
F837  70 01     BVS $F83A                        A:69 X:33 Y:BE P:07 S:F9 PPU:60 ,48  6835
F839  60        RTS                              A:69 X:33 Y:BE P:07 S:F9 PPU:60 ,54  6837
D65F  C8        INY                              A:69 X:33 Y:BE P:07 S:FB PPU:60 ,72  6843
D660  20 3D F8  JSR $F83D                        A:69 X:33 Y:BF P:85 S:FB PPU:60 ,78  6845
F83D  38        SEC                              A:69 X:33 Y:BF P:85 S:F9 PPU:60 ,96  6851
F83E  24 01     BIT $01 = $FF                    A:69 X:33 Y:BF P:85 S:F9 PPU:60 ,102 6853
F840  A9 00     LDA #$00                         A:69 X:33 Y:BF P:C5 S:F9 PPU:60 ,111 6856
F842  60        RTS                              A:00 X:33 Y:BF P:47 S:F9 PPU:60 ,117 6858
D663  6D 78 06  ADC $0678 = $69                  A:00 X:33 Y:BF P:47 S:FB PPU:60 ,135 6864
D666  20 43 F8  JSR $F843                        A:6A X:33 Y:BF P:04 S:FB PPU:60 ,147 6868
F843  30 09     BMI $F84E                        A:6A X:33 Y:BF P:04 S:F9 PPU:60 ,165 6874
F845  B0 07     BCS $F84E                        A:6A X:33 Y:BF P:04 S:F9 PPU:60 ,171 6876
F847  C9 6A     CMP #$6A                         A:6A X:33 Y:BF P:04 S:F9 PPU:60 ,177 6878
F849  D0 03     BNE $F84E                        A:6A X:33 Y:BF P:07 S:F9 PPU:60 ,183 6880
F84B  70 01     BVS $F84E                        A:6A X:33 Y:BF P:07 S:F9 PPU:60 ,189 6882
F84D  60        RTS                              A:6A X:33 Y:BF P:07 S:F9 PPU:60 ,195 6884
D669  C8        INY                              A:6A X:33 Y:BF P:07 S:FB PPU:60 ,213 6890
D66A  A9 7F     LDA #$7F                         A:6A X:33 Y:C0 P:85 S:FB PPU:60 ,219 6892
D66C  8D 78 06  STA $0678 = $69                  A:7F X:33 Y:C0 P:05 S:FB PPU:60 ,225 6894
D66F  20 51 F8  JSR $F851                        A:7F X:33 Y:C0 P:05 S:FB PPU:60 ,237 6898
F851  38        SEC                              A:7F X:33 Y:C0 P:05 S:F9 PPU:60 ,255 6904
F852  B8        CLV                              A:7F X:33 Y:C0 P:05 S:F9 PPU:60 ,261 6906
F853  A9 7F     LDA #$7F                         A:7F X:33 Y:C0 P:05 S:F9 PPU:60 ,267 6908
F855  60        RTS                              A:7F X:33 Y:C0 P:05 S:F9 PPU:60 ,273 6910
D672  6D 78 06  ADC $0678 = $7F                  A:7F X:33 Y:C0 P:05 S:FB PPU:60 ,291 6916
D675  20 56 F8  JSR $F856                        A:FF X:33 Y:C0 P:C4 S:FB PPU:60 ,303 6920
F856  10 09     BPL $F861                        A:FF X:33 Y:C0 P:C4 S:F9 PPU:60 ,321 6926
F858  B0 07     BCS $F861                        A:FF X:33 Y:C0 P:C4 S:F9 PPU:60 ,327 6928
F85A  C9 FF     CMP #$FF                         A:FF X:33 Y:C0 P:C4 S:F9 PPU:60 ,333 6930
F85C  D0 03     BNE $F861                        A:FF X:33 Y:C0 P:47 S:F9 PPU:60 ,339 6932
F85E  50 01     BVC $F861                        A:FF X:33 Y:C0 P:47 S:F9 PPU:61 ,4   6934
F860  60        RTS                              A:FF X:33 Y:C0 P:47 S:F9 PPU:61 ,10  6936
D678  C8        INY                              A:FF X:33 Y:C0 P:47 S:FB PPU:61 ,28  6942
D679  A9 80     LDA #$80                         A:FF X:33 Y:C1 P:C5 S:FB PPU:61 ,34  6944
D67B  8D 78 06  STA $0678 = $7F                  A:80 X:33 Y:C1 P:C5 S:FB PPU:61 ,40  6946
D67E  20 64 F8  JSR $F864                        A:80 X:33 Y:C1 P:C5 S:FB PPU:61 ,52  6950
F864  18        CLC                              A:80 X:33 Y:C1 P:C5 S:F9 PPU:61 ,70  6956
F865  24 01     BIT $01 = $FF                    A:80 X:33 Y:C1 P:C4 S:F9 PPU:61 ,76  6958
F867  A9 7F     LDA #$7F                         A:80 X:33 Y:C1 P:C4 S:F9 PPU:61 ,85  6961
F869  60        RTS                              A:7F X:33 Y:C1 P:44 S:F9 PPU:61 ,91  6963
D681  6D 78 06  ADC $0678 = $80                  A:7F X:33 Y:C1 P:44 S:FB PPU:61 ,109 6969
D684  20 6A F8  JSR $F86A                        A:FF X:33 Y:C1 P:84 S:FB PPU:61 ,121 6973
F86A  10 09     BPL $F875                        A:FF X:33 Y:C1 P:84 S:F9 PPU:61 ,139 6979
F86C  B0 07     BCS $F875                        A:FF X:33 Y:C1 P:84 S:F9 PPU:61 ,145 6981
F86E  C9 FF     CMP #$FF                         A:FF X:33 Y:C1 P:84 S:F9 PPU:61 ,151 6983
F870  D0 03     BNE $F875                        A:FF X:33 Y:C1 P:07 S:F9 PPU:61 ,157 6985
F872  70 01     BVS $F875                        A:FF X:33 Y:C1 P:07 S:F9 PPU:61 ,163 6987
F874  60        RTS                              A:FF X:33 Y:C1 P:07 S:F9 PPU:61 ,169 6989
D687  C8        INY                              A:FF X:33 Y:C1 P:07 S:FB PPU:61 ,187 6995
D688  20 78 F8  JSR $F878                        A:FF X:33 Y:C2 P:85 S:FB PPU:61 ,193 6997
F878  38        SEC                              A:FF X:33 Y:C2 P:85 S:F9 PPU:61 ,211 7003
F879  B8        CLV                              A:FF X:33 Y:C2 P:85 S:F9 PPU:61 ,217 7005
F87A  A9 7F     LDA #$7F                         A:FF X:33 Y:C2 P:85 S:F9 PPU:61 ,223 7007
F87C  60        RTS                              A:7F X:33 Y:C2 P:05 S:F9 PPU:61 ,229 7009
D68B  6D 78 06  ADC $0678 = $80                  A:7F X:33 Y:C2 P:05 S:FB PPU:61 ,247 7015
D68E  20 7D F8  JSR $F87D                        A:00 X:33 Y:C2 P:07 S:FB PPU:61 ,259 7019
F87D  D0 07     BNE $F886                        A:00 X:33 Y:C2 P:07 S:F9 PPU:61 ,277 7025
F87F  30 05     BMI $F886                        A:00 X:33 Y:C2 P:07 S:F9 PPU:61 ,283 7027
F881  70 03     BVS $F886                        A:00 X:33 Y:C2 P:07 S:F9 PPU:61 ,289 7029
F883  90 01     BCC $F886                        A:00 X:33 Y:C2 P:07 S:F9 PPU:61 ,295 7031
F885  60        RTS                              A:00 X:33 Y:C2 P:07 S:F9 PPU:61 ,301 7033
D691  C8        INY                              A:00 X:33 Y:C2 P:07 S:FB PPU:61 ,319 7039
D692  A9 40     LDA #$40                         A:00 X:33 Y:C3 P:85 S:FB PPU:61 ,325 7041
D694  8D 78 06  STA $0678 = $80                  A:40 X:33 Y:C3 P:05 S:FB PPU:61 ,331 7043
D697  20 89 F8  JSR $F889                        A:40 X:33 Y:C3 P:05 S:FB PPU:62 ,2   7047
F889  24 01     BIT $01 = $FF                    A:40 X:33 Y:C3 P:05 S:F9 PPU:62 ,20  7053
F88B  A9 40     LDA #$40                         A:40 X:33 Y:C3 P:C5 S:F9 PPU:62 ,29  7056
F88D  60        RTS                              A:40 X:33 Y:C3 P:45 S:F9 PPU:62 ,35  7058
D69A  CD 78 06  CMP $0678 = $40                  A:40 X:33 Y:C3 P:45 S:FB PPU:62 ,53  7064
D69D  20 8E F8  JSR $F88E                        A:40 X:33 Y:C3 P:47 S:FB PPU:62 ,65  7068
F88E  30 07     BMI $F897                        A:40 X:33 Y:C3 P:47 S:F9 PPU:62 ,83  7074
F890  90 05     BCC $F897                        A:40 X:33 Y:C3 P:47 S:F9 PPU:62 ,89  7076
F892  D0 03     BNE $F897                        A:40 X:33 Y:C3 P:47 S:F9 PPU:62 ,95  7078
F894  50 01     BVC $F897                        A:40 X:33 Y:C3 P:47 S:F9 PPU:62 ,101 7080
F896  60        RTS                              A:40 X:33 Y:C3 P:47 S:F9 PPU:62 ,107 7082
D6A0  C8        INY                              A:40 X:33 Y:C3 P:47 S:FB PPU:62 ,125 7088
D6A1  48        PHA                              A:40 X:33 Y:C4 P:C5 S:FB PPU:62 ,131 7090
D6A2  A9 3F     LDA #$3F                         A:40 X:33 Y:C4 P:C5 S:FA PPU:62 ,140 7093
D6A4  8D 78 06  STA $0678 = $40                  A:3F X:33 Y:C4 P:45 S:FA PPU:62 ,146 7095
D6A7  68        PLA                              A:3F X:33 Y:C4 P:45 S:FA PPU:62 ,158 7099
D6A8  20 9A F8  JSR $F89A                        A:40 X:33 Y:C4 P:45 S:FB PPU:62 ,170 7103
F89A  B8        CLV                              A:40 X:33 Y:C4 P:45 S:F9 PPU:62 ,188 7109
F89B  60        RTS                              A:40 X:33 Y:C4 P:05 S:F9 PPU:62 ,194 7111
D6AB  CD 78 06  CMP $0678 = $3F                  A:40 X:33 Y:C4 P:05 S:FB PPU:62 ,212 7117
D6AE  20 9C F8  JSR $F89C                        A:40 X:33 Y:C4 P:05 S:FB PPU:62 ,224 7121
F89C  F0 07     BEQ $F8A5                        A:40 X:33 Y:C4 P:05 S:F9 PPU:62 ,242 7127
F89E  30 05     BMI $F8A5                        A:40 X:33 Y:C4 P:05 S:F9 PPU:62 ,248 7129
F8A0  90 03     BCC $F8A5                        A:40 X:33 Y:C4 P:05 S:F9 PPU:62 ,254 7131
F8A2  70 01     BVS $F8A5                        A:40 X:33 Y:C4 P:05 S:F9 PPU:62 ,260 7133
F8A4  60        RTS                              A:40 X:33 Y:C4 P:05 S:F9 PPU:62 ,266 7135
D6B1  C8        INY                              A:40 X:33 Y:C4 P:05 S:FB PPU:62 ,284 7141
D6B2  48        PHA                              A:40 X:33 Y:C5 P:85 S:FB PPU:62 ,290 7143
D6B3  A9 41     LDA #$41                         A:40 X:33 Y:C5 P:85 S:FA PPU:62 ,299 7146
D6B5  8D 78 06  STA $0678 = $3F                  A:41 X:33 Y:C5 P:05 S:FA PPU:62 ,305 7148
D6B8  68        PLA                              A:41 X:33 Y:C5 P:05 S:FA PPU:62 ,317 7152
D6B9  CD 78 06  CMP $0678 = $41                  A:40 X:33 Y:C5 P:05 S:FB PPU:62 ,329 7156
D6BC  20 A8 F8  JSR $F8A8                        A:40 X:33 Y:C5 P:84 S:FB PPU:63 ,0   7160
F8A8  F0 05     BEQ $F8AF                        A:40 X:33 Y:C5 P:84 S:F9 PPU:63 ,18  7166
F8AA  10 03     BPL $F8AF                        A:40 X:33 Y:C5 P:84 S:F9 PPU:63 ,24  7168
F8AC  10 01     BPL $F8AF                        A:40 X:33 Y:C5 P:84 S:F9 PPU:63 ,30  7170
F8AE  60        RTS                              A:40 X:33 Y:C5 P:84 S:F9 PPU:63 ,36  7172
D6BF  C8        INY                              A:40 X:33 Y:C5 P:84 S:FB PPU:63 ,54  7178
D6C0  48        PHA                              A:40 X:33 Y:C6 P:84 S:FB PPU:63 ,60  7180
D6C1  A9 00     LDA #$00                         A:40 X:33 Y:C6 P:84 S:FA PPU:63 ,69  7183
D6C3  8D 78 06  STA $0678 = $41                  A:00 X:33 Y:C6 P:06 S:FA PPU:63 ,75  7185
D6C6  68        PLA                              A:00 X:33 Y:C6 P:06 S:FA PPU:63 ,87  7189
D6C7  20 B2 F8  JSR $F8B2                        A:40 X:33 Y:C6 P:04 S:FB PPU:63 ,99  7193
F8B2  A9 80     LDA #$80                         A:40 X:33 Y:C6 P:04 S:F9 PPU:63 ,117 7199
F8B4  60        RTS                              A:80 X:33 Y:C6 P:84 S:F9 PPU:63 ,123 7201
D6CA  CD 78 06  CMP $0678 = $00                  A:80 X:33 Y:C6 P:84 S:FB PPU:63 ,141 7207
D6CD  20 B5 F8  JSR $F8B5                        A:80 X:33 Y:C6 P:85 S:FB PPU:63 ,153 7211
F8B5  F0 05     BEQ $F8BC                        A:80 X:33 Y:C6 P:85 S:F9 PPU:63 ,171 7217
F8B7  10 03     BPL $F8BC                        A:80 X:33 Y:C6 P:85 S:F9 PPU:63 ,177 7219
F8B9  90 01     BCC $F8BC                        A:80 X:33 Y:C6 P:85 S:F9 PPU:63 ,183 7221
F8BB  60        RTS                              A:80 X:33 Y:C6 P:85 S:F9 PPU:63 ,189 7223
D6D0  C8        INY                              A:80 X:33 Y:C6 P:85 S:FB PPU:63 ,207 7229
D6D1  48        PHA                              A:80 X:33 Y:C7 P:85 S:FB PPU:63 ,213 7231
D6D2  A9 80     LDA #$80                         A:80 X:33 Y:C7 P:85 S:FA PPU:63 ,222 7234
D6D4  8D 78 06  STA $0678 = $00                  A:80 X:33 Y:C7 P:85 S:FA PPU:63 ,228 7236
D6D7  68        PLA                              A:80 X:33 Y:C7 P:85 S:FA PPU:63 ,240 7240
D6D8  CD 78 06  CMP $0678 = $80                  A:80 X:33 Y:C7 P:85 S:FB PPU:63 ,252 7244
D6DB  20 BF F8  JSR $F8BF                        A:80 X:33 Y:C7 P:07 S:FB PPU:63 ,264 7248
F8BF  D0 05     BNE $F8C6                        A:80 X:33 Y:C7 P:07 S:F9 PPU:63 ,282 7254
F8C1  30 03     BMI $F8C6                        A:80 X:33 Y:C7 P:07 S:F9 PPU:63 ,288 7256
F8C3  90 01     BCC $F8C6                        A:80 X:33 Y:C7 P:07 S:F9 PPU:63 ,294 7258
F8C5  60        RTS                              A:80 X:33 Y:C7 P:07 S:F9 PPU:63 ,300 7260
D6DE  C8        INY                              A:80 X:33 Y:C7 P:07 S:FB PPU:63 ,318 7266
D6DF  48        PHA                              A:80 X:33 Y:C8 P:85 S:FB PPU:63 ,324 7268
D6E0  A9 81     LDA #$81                         A:80 X:33 Y:C8 P:85 S:FA PPU:63 ,333 7271
D6E2  8D 78 06  STA $0678 = $80                  A:81 X:33 Y:C8 P:85 S:FA PPU:63 ,339 7273
D6E5  68        PLA                              A:81 X:33 Y:C8 P:85 S:FA PPU:64 ,10  7277
D6E6  CD 78 06  CMP $0678 = $81                  A:80 X:33 Y:C8 P:85 S:FB PPU:64 ,22  7281
D6E9  20 C9 F8  JSR $F8C9                        A:80 X:33 Y:C8 P:84 S:FB PPU:64 ,34  7285
F8C9  B0 05     BCS $F8D0                        A:80 X:33 Y:C8 P:84 S:F9 PPU:64 ,52  7291
F8CB  F0 03     BEQ $F8D0                        A:80 X:33 Y:C8 P:84 S:F9 PPU:64 ,58  7293
F8CD  10 01     BPL $F8D0                        A:80 X:33 Y:C8 P:84 S:F9 PPU:64 ,64  7295
F8CF  60        RTS                              A:80 X:33 Y:C8 P:84 S:F9 PPU:64 ,70  7297
D6EC  C8        INY                              A:80 X:33 Y:C8 P:84 S:FB PPU:64 ,88  7303
D6ED  48        PHA                              A:80 X:33 Y:C9 P:84 S:FB PPU:64 ,94  7305
D6EE  A9 7F     LDA #$7F                         A:80 X:33 Y:C9 P:84 S:FA PPU:64 ,103 7308
D6F0  8D 78 06  STA $0678 = $81                  A:7F X:33 Y:C9 P:04 S:FA PPU:64 ,109 7310
D6F3  68        PLA                              A:7F X:33 Y:C9 P:04 S:FA PPU:64 ,121 7314
D6F4  CD 78 06  CMP $0678 = $7F                  A:80 X:33 Y:C9 P:84 S:FB PPU:64 ,133 7318
D6F7  20 D3 F8  JSR $F8D3                        A:80 X:33 Y:C9 P:05 S:FB PPU:64 ,145 7322
F8D3  90 05     BCC $F8DA                        A:80 X:33 Y:C9 P:05 S:F9 PPU:64 ,163 7328
F8D5  F0 03     BEQ $F8DA                        A:80 X:33 Y:C9 P:05 S:F9 PPU:64 ,169 7330
F8D7  30 01     BMI $F8DA                        A:80 X:33 Y:C9 P:05 S:F9 PPU:64 ,175 7332
F8D9  60        RTS                              A:80 X:33 Y:C9 P:05 S:F9 PPU:64 ,181 7334
D6FA  C8        INY                              A:80 X:33 Y:C9 P:05 S:FB PPU:64 ,199 7340
D6FB  A9 40     LDA #$40                         A:80 X:33 Y:CA P:85 S:FB PPU:64 ,205 7342
D6FD  8D 78 06  STA $0678 = $7F                  A:40 X:33 Y:CA P:05 S:FB PPU:64 ,211 7344
D700  20 31 F9  JSR $F931                        A:40 X:33 Y:CA P:05 S:FB PPU:64 ,223 7348
F931  24 01     BIT $01 = $FF                    A:40 X:33 Y:CA P:05 S:F9 PPU:64 ,241 7354
F933  A9 40     LDA #$40                         A:40 X:33 Y:CA P:C5 S:F9 PPU:64 ,250 7357
F935  38        SEC                              A:40 X:33 Y:CA P:45 S:F9 PPU:64 ,256 7359
F936  60        RTS                              A:40 X:33 Y:CA P:45 S:F9 PPU:64 ,262 7361
D703  ED 78 06  SBC $0678 = $40                  A:40 X:33 Y:CA P:45 S:FB PPU:64 ,280 7367
D706  20 37 F9  JSR $F937                        A:00 X:33 Y:CA P:07 S:FB PPU:64 ,292 7371
F937  30 0B     BMI $F944                        A:00 X:33 Y:CA P:07 S:F9 PPU:64 ,310 7377
F939  90 09     BCC $F944                        A:00 X:33 Y:CA P:07 S:F9 PPU:64 ,316 7379
F93B  D0 07     BNE $F944                        A:00 X:33 Y:CA P:07 S:F9 PPU:64 ,322 7381
F93D  70 05     BVS $F944                        A:00 X:33 Y:CA P:07 S:F9 PPU:64 ,328 7383
F93F  C9 00     CMP #$00                         A:00 X:33 Y:CA P:07 S:F9 PPU:64 ,334 7385
F941  D0 01     BNE $F944                        A:00 X:33 Y:CA P:07 S:F9 PPU:64 ,340 7387
F943  60        RTS                              A:00 X:33 Y:CA P:07 S:F9 PPU:65 ,5   7389
D709  C8        INY                              A:00 X:33 Y:CA P:07 S:FB PPU:65 ,23  7395
D70A  A9 3F     LDA #$3F                         A:00 X:33 Y:CB P:85 S:FB PPU:65 ,29  7397
D70C  8D 78 06  STA $0678 = $40                  A:3F X:33 Y:CB P:05 S:FB PPU:65 ,35  7399
D70F  20 47 F9  JSR $F947                        A:3F X:33 Y:CB P:05 S:FB PPU:65 ,47  7403
F947  B8        CLV                              A:3F X:33 Y:CB P:05 S:F9 PPU:65 ,65  7409
F948  38        SEC                              A:3F X:33 Y:CB P:05 S:F9 PPU:65 ,71  7411
F949  A9 40     LDA #$40                         A:3F X:33 Y:CB P:05 S:F9 PPU:65 ,77  7413
F94B  60        RTS                              A:40 X:33 Y:CB P:05 S:F9 PPU:65 ,83  7415
D712  ED 78 06  SBC $0678 = $3F                  A:40 X:33 Y:CB P:05 S:FB PPU:65 ,101 7421
D715  20 4C F9  JSR $F94C                        A:01 X:33 Y:CB P:05 S:FB PPU:65 ,113 7425
F94C  F0 0B     BEQ $F959                        A:01 X:33 Y:CB P:05 S:F9 PPU:65 ,131 7431
F94E  30 09     BMI $F959                        A:01 X:33 Y:CB P:05 S:F9 PPU:65 ,137 7433
F950  90 07     BCC $F959                        A:01 X:33 Y:CB P:05 S:F9 PPU:65 ,143 7435
F952  70 05     BVS $F959                        A:01 X:33 Y:CB P:05 S:F9 PPU:65 ,149 7437
F954  C9 01     CMP #$01                         A:01 X:33 Y:CB P:05 S:F9 PPU:65 ,155 7439
F956  D0 01     BNE $F959                        A:01 X:33 Y:CB P:07 S:F9 PPU:65 ,161 7441
F958  60        RTS                              A:01 X:33 Y:CB P:07 S:F9 PPU:65 ,167 7443
D718  C8        INY                              A:01 X:33 Y:CB P:07 S:FB PPU:65 ,185 7449
D719  A9 41     LDA #$41                         A:01 X:33 Y:CC P:85 S:FB PPU:65 ,191 7451
D71B  8D 78 06  STA $0678 = $3F                  A:41 X:33 Y:CC P:05 S:FB PPU:65 ,197 7453
D71E  20 5C F9  JSR $F95C                        A:41 X:33 Y:CC P:05 S:FB PPU:65 ,209 7457
F95C  A9 40     LDA #$40                         A:41 X:33 Y:CC P:05 S:F9 PPU:65 ,227 7463
F95E  38        SEC                              A:40 X:33 Y:CC P:05 S:F9 PPU:65 ,233 7465
F95F  24 01     BIT $01 = $FF                    A:40 X:33 Y:CC P:05 S:F9 PPU:65 ,239 7467
F961  60        RTS                              A:40 X:33 Y:CC P:C5 S:F9 PPU:65 ,248 7470
D721  ED 78 06  SBC $0678 = $41                  A:40 X:33 Y:CC P:C5 S:FB PPU:65 ,266 7476
D724  20 62 F9  JSR $F962                        A:FF X:33 Y:CC P:84 S:FB PPU:65 ,278 7480
F962  B0 0B     BCS $F96F                        A:FF X:33 Y:CC P:84 S:F9 PPU:65 ,296 7486
F964  F0 09     BEQ $F96F                        A:FF X:33 Y:CC P:84 S:F9 PPU:65 ,302 7488
F966  10 07     BPL $F96F                        A:FF X:33 Y:CC P:84 S:F9 PPU:65 ,308 7490
F968  70 05     BVS $F96F                        A:FF X:33 Y:CC P:84 S:F9 PPU:65 ,314 7492
F96A  C9 FF     CMP #$FF                         A:FF X:33 Y:CC P:84 S:F9 PPU:65 ,320 7494
F96C  D0 01     BNE $F96F                        A:FF X:33 Y:CC P:07 S:F9 PPU:65 ,326 7496
F96E  60        RTS                              A:FF X:33 Y:CC P:07 S:F9 PPU:65 ,332 7498
D727  C8        INY                              A:FF X:33 Y:CC P:07 S:FB PPU:66 ,9   7504
D728  A9 00     LDA #$00                         A:FF X:33 Y:CD P:85 S:FB PPU:66 ,15  7506
D72A  8D 78 06  STA $0678 = $41                  A:00 X:33 Y:CD P:07 S:FB PPU:66 ,21  7508
D72D  20 72 F9  JSR $F972                        A:00 X:33 Y:CD P:07 S:FB PPU:66 ,33  7512
F972  18        CLC                              A:00 X:33 Y:CD P:07 S:F9 PPU:66 ,51  7518
F973  A9 80     LDA #$80                         A:00 X:33 Y:CD P:06 S:F9 PPU:66 ,57  7520
F975  60        RTS                              A:80 X:33 Y:CD P:84 S:F9 PPU:66 ,63  7522
D730  ED 78 06  SBC $0678 = $00                  A:80 X:33 Y:CD P:84 S:FB PPU:66 ,81  7528
D733  20 76 F9  JSR $F976                        A:7F X:33 Y:CD P:45 S:FB PPU:66 ,93  7532
F976  90 05     BCC $F97D                        A:7F X:33 Y:CD P:45 S:F9 PPU:66 ,111 7538
F978  C9 7F     CMP #$7F                         A:7F X:33 Y:CD P:45 S:F9 PPU:66 ,117 7540
F97A  D0 01     BNE $F97D                        A:7F X:33 Y:CD P:47 S:F9 PPU:66 ,123 7542
F97C  60        RTS                              A:7F X:33 Y:CD P:47 S:F9 PPU:66 ,129 7544
D736  C8        INY                              A:7F X:33 Y:CD P:47 S:FB PPU:66 ,147 7550
D737  A9 7F     LDA #$7F                         A:7F X:33 Y:CE P:C5 S:FB PPU:66 ,153 7552
D739  8D 78 06  STA $0678 = $00                  A:7F X:33 Y:CE P:45 S:FB PPU:66 ,159 7554
D73C  20 80 F9  JSR $F980                        A:7F X:33 Y:CE P:45 S:FB PPU:66 ,171 7558
F980  38        SEC                              A:7F X:33 Y:CE P:45 S:F9 PPU:66 ,189 7564
F981  A9 81     LDA #$81                         A:7F X:33 Y:CE P:45 S:F9 PPU:66 ,195 7566
F983  60        RTS                              A:81 X:33 Y:CE P:C5 S:F9 PPU:66 ,201 7568
D73F  ED 78 06  SBC $0678 = $7F                  A:81 X:33 Y:CE P:C5 S:FB PPU:66 ,219 7574
D742  20 84 F9  JSR $F984                        A:02 X:33 Y:CE P:45 S:FB PPU:66 ,231 7578
F984  50 07     BVC $F98D                        A:02 X:33 Y:CE P:45 S:F9 PPU:66 ,249 7584
F986  90 05     BCC $F98D                        A:02 X:33 Y:CE P:45 S:F9 PPU:66 ,255 7586
F988  C9 02     CMP #$02                         A:02 X:33 Y:CE P:45 S:F9 PPU:66 ,261 7588
F98A  D0 01     BNE $F98D                        A:02 X:33 Y:CE P:47 S:F9 PPU:66 ,267 7590
F98C  60        RTS                              A:02 X:33 Y:CE P:47 S:F9 PPU:66 ,273 7592
D745  C8        INY                              A:02 X:33 Y:CE P:47 S:FB PPU:66 ,291 7598
D746  A9 40     LDA #$40                         A:02 X:33 Y:CF P:C5 S:FB PPU:66 ,297 7600
D748  8D 78 06  STA $0678 = $7F                  A:40 X:33 Y:CF P:45 S:FB PPU:66 ,303 7602
D74B  20 89 F8  JSR $F889                        A:40 X:33 Y:CF P:45 S:FB PPU:66 ,315 7606
F889  24 01     BIT $01 = $FF                    A:40 X:33 Y:CF P:45 S:F9 PPU:66 ,333 7612
F88B  A9 40     LDA #$40                         A:40 X:33 Y:CF P:C5 S:F9 PPU:67 ,1   7615
F88D  60        RTS                              A:40 X:33 Y:CF P:45 S:F9 PPU:67 ,7   7617
D74E  AA        TAX                              A:40 X:33 Y:CF P:45 S:FB PPU:67 ,25  7623
D74F  EC 78 06  CPX $0678 = $40                  A:40 X:40 Y:CF P:45 S:FB PPU:67 ,31  7625
D752  20 8E F8  JSR $F88E                        A:40 X:40 Y:CF P:47 S:FB PPU:67 ,43  7629
F88E  30 07     BMI $F897                        A:40 X:40 Y:CF P:47 S:F9 PPU:67 ,61  7635
F890  90 05     BCC $F897                        A:40 X:40 Y:CF P:47 S:F9 PPU:67 ,67  7637
F892  D0 03     BNE $F897                        A:40 X:40 Y:CF P:47 S:F9 PPU:67 ,73  7639
F894  50 01     BVC $F897                        A:40 X:40 Y:CF P:47 S:F9 PPU:67 ,79  7641
F896  60        RTS                              A:40 X:40 Y:CF P:47 S:F9 PPU:67 ,85  7643
D755  C8        INY                              A:40 X:40 Y:CF P:47 S:FB PPU:67 ,103 7649
D756  A9 3F     LDA #$3F                         A:40 X:40 Y:D0 P:C5 S:FB PPU:67 ,109 7651
D758  8D 78 06  STA $0678 = $40                  A:3F X:40 Y:D0 P:45 S:FB PPU:67 ,115 7653
D75B  20 9A F8  JSR $F89A                        A:3F X:40 Y:D0 P:45 S:FB PPU:67 ,127 7657
F89A  B8        CLV                              A:3F X:40 Y:D0 P:45 S:F9 PPU:67 ,145 7663
F89B  60        RTS                              A:3F X:40 Y:D0 P:05 S:F9 PPU:67 ,151 7665
D75E  EC 78 06  CPX $0678 = $3F                  A:3F X:40 Y:D0 P:05 S:FB PPU:67 ,169 7671
D761  20 9C F8  JSR $F89C                        A:3F X:40 Y:D0 P:05 S:FB PPU:67 ,181 7675
F89C  F0 07     BEQ $F8A5                        A:3F X:40 Y:D0 P:05 S:F9 PPU:67 ,199 7681
F89E  30 05     BMI $F8A5                        A:3F X:40 Y:D0 P:05 S:F9 PPU:67 ,205 7683
F8A0  90 03     BCC $F8A5                        A:3F X:40 Y:D0 P:05 S:F9 PPU:67 ,211 7685
F8A2  70 01     BVS $F8A5                        A:3F X:40 Y:D0 P:05 S:F9 PPU:67 ,217 7687
F8A4  60        RTS                              A:3F X:40 Y:D0 P:05 S:F9 PPU:67 ,223 7689
D764  C8        INY                              A:3F X:40 Y:D0 P:05 S:FB PPU:67 ,241 7695
D765  A9 41     LDA #$41                         A:3F X:40 Y:D1 P:85 S:FB PPU:67 ,247 7697
D767  8D 78 06  STA $0678 = $3F                  A:41 X:40 Y:D1 P:05 S:FB PPU:67 ,253 7699
D76A  EC 78 06  CPX $0678 = $41                  A:41 X:40 Y:D1 P:05 S:FB PPU:67 ,265 7703
D76D  20 A8 F8  JSR $F8A8                        A:41 X:40 Y:D1 P:84 S:FB PPU:67 ,277 7707
F8A8  F0 05     BEQ $F8AF                        A:41 X:40 Y:D1 P:84 S:F9 PPU:67 ,295 7713
F8AA  10 03     BPL $F8AF                        A:41 X:40 Y:D1 P:84 S:F9 PPU:67 ,301 7715
F8AC  10 01     BPL $F8AF                        A:41 X:40 Y:D1 P:84 S:F9 PPU:67 ,307 7717
F8AE  60        RTS                              A:41 X:40 Y:D1 P:84 S:F9 PPU:67 ,313 7719
D770  C8        INY                              A:41 X:40 Y:D1 P:84 S:FB PPU:67 ,331 7725
D771  A9 00     LDA #$00                         A:41 X:40 Y:D2 P:84 S:FB PPU:67 ,337 7727
D773  8D 78 06  STA $0678 = $41                  A:00 X:40 Y:D2 P:06 S:FB PPU:68 ,2   7729
D776  20 B2 F8  JSR $F8B2                        A:00 X:40 Y:D2 P:06 S:FB PPU:68 ,14  7733
F8B2  A9 80     LDA #$80                         A:00 X:40 Y:D2 P:06 S:F9 PPU:68 ,32  7739
F8B4  60        RTS                              A:80 X:40 Y:D2 P:84 S:F9 PPU:68 ,38  7741
D779  AA        TAX                              A:80 X:40 Y:D2 P:84 S:FB PPU:68 ,56  7747
D77A  EC 78 06  CPX $0678 = $00                  A:80 X:80 Y:D2 P:84 S:FB PPU:68 ,62  7749
D77D  20 B5 F8  JSR $F8B5                        A:80 X:80 Y:D2 P:85 S:FB PPU:68 ,74  7753
F8B5  F0 05     BEQ $F8BC                        A:80 X:80 Y:D2 P:85 S:F9 PPU:68 ,92  7759
F8B7  10 03     BPL $F8BC                        A:80 X:80 Y:D2 P:85 S:F9 PPU:68 ,98  7761
F8B9  90 01     BCC $F8BC                        A:80 X:80 Y:D2 P:85 S:F9 PPU:68 ,104 7763
F8BB  60        RTS                              A:80 X:80 Y:D2 P:85 S:F9 PPU:68 ,110 7765
D780  C8        INY                              A:80 X:80 Y:D2 P:85 S:FB PPU:68 ,128 7771
D781  A9 80     LDA #$80                         A:80 X:80 Y:D3 P:85 S:FB PPU:68 ,134 7773
D783  8D 78 06  STA $0678 = $00                  A:80 X:80 Y:D3 P:85 S:FB PPU:68 ,140 7775
D786  EC 78 06  CPX $0678 = $80                  A:80 X:80 Y:D3 P:85 S:FB PPU:68 ,152 7779
D789  20 BF F8  JSR $F8BF                        A:80 X:80 Y:D3 P:07 S:FB PPU:68 ,164 7783
F8BF  D0 05     BNE $F8C6                        A:80 X:80 Y:D3 P:07 S:F9 PPU:68 ,182 7789
F8C1  30 03     BMI $F8C6                        A:80 X:80 Y:D3 P:07 S:F9 PPU:68 ,188 7791
F8C3  90 01     BCC $F8C6                        A:80 X:80 Y:D3 P:07 S:F9 PPU:68 ,194 7793
F8C5  60        RTS                              A:80 X:80 Y:D3 P:07 S:F9 PPU:68 ,200 7795
D78C  C8        INY                              A:80 X:80 Y:D3 P:07 S:FB PPU:68 ,218 7801
D78D  A9 81     LDA #$81                         A:80 X:80 Y:D4 P:85 S:FB PPU:68 ,224 7803
D78F  8D 78 06  STA $0678 = $80                  A:81 X:80 Y:D4 P:85 S:FB PPU:68 ,230 7805
D792  EC 78 06  CPX $0678 = $81                  A:81 X:80 Y:D4 P:85 S:FB PPU:68 ,242 7809
D795  20 C9 F8  JSR $F8C9                        A:81 X:80 Y:D4 P:84 S:FB PPU:68 ,254 7813
F8C9  B0 05     BCS $F8D0                        A:81 X:80 Y:D4 P:84 S:F9 PPU:68 ,272 7819
F8CB  F0 03     BEQ $F8D0                        A:81 X:80 Y:D4 P:84 S:F9 PPU:68 ,278 7821
F8CD  10 01     BPL $F8D0                        A:81 X:80 Y:D4 P:84 S:F9 PPU:68 ,284 7823
F8CF  60        RTS                              A:81 X:80 Y:D4 P:84 S:F9 PPU:68 ,290 7825
D798  C8        INY                              A:81 X:80 Y:D4 P:84 S:FB PPU:68 ,308 7831
D799  A9 7F     LDA #$7F                         A:81 X:80 Y:D5 P:84 S:FB PPU:68 ,314 7833
D79B  8D 78 06  STA $0678 = $81                  A:7F X:80 Y:D5 P:04 S:FB PPU:68 ,320 7835
D79E  EC 78 06  CPX $0678 = $7F                  A:7F X:80 Y:D5 P:04 S:FB PPU:68 ,332 7839
D7A1  20 D3 F8  JSR $F8D3                        A:7F X:80 Y:D5 P:05 S:FB PPU:69 ,3   7843
F8D3  90 05     BCC $F8DA                        A:7F X:80 Y:D5 P:05 S:F9 PPU:69 ,21  7849
F8D5  F0 03     BEQ $F8DA                        A:7F X:80 Y:D5 P:05 S:F9 PPU:69 ,27  7851
F8D7  30 01     BMI $F8DA                        A:7F X:80 Y:D5 P:05 S:F9 PPU:69 ,33  7853
F8D9  60        RTS                              A:7F X:80 Y:D5 P:05 S:F9 PPU:69 ,39  7855
D7A4  C8        INY                              A:7F X:80 Y:D5 P:05 S:FB PPU:69 ,57  7861
D7A5  98        TYA                              A:7F X:80 Y:D6 P:85 S:FB PPU:69 ,63  7863
D7A6  AA        TAX                              A:D6 X:80 Y:D6 P:85 S:FB PPU:69 ,69  7865
D7A7  A9 40     LDA #$40                         A:D6 X:D6 Y:D6 P:85 S:FB PPU:69 ,75  7867
D7A9  8D 78 06  STA $0678 = $7F                  A:40 X:D6 Y:D6 P:05 S:FB PPU:69 ,81  7869
D7AC  20 DD F8  JSR $F8DD                        A:40 X:D6 Y:D6 P:05 S:FB PPU:69 ,93  7873
F8DD  24 01     BIT $01 = $FF                    A:40 X:D6 Y:D6 P:05 S:F9 PPU:69 ,111 7879
F8DF  A0 40     LDY #$40                         A:40 X:D6 Y:D6 P:C5 S:F9 PPU:69 ,120 7882
F8E1  60        RTS                              A:40 X:D6 Y:40 P:45 S:F9 PPU:69 ,126 7884
D7AF  CC 78 06  CPY $0678 = $40                  A:40 X:D6 Y:40 P:45 S:FB PPU:69 ,144 7890
D7B2  20 E2 F8  JSR $F8E2                        A:40 X:D6 Y:40 P:47 S:FB PPU:69 ,156 7894
F8E2  30 07     BMI $F8EB                        A:40 X:D6 Y:40 P:47 S:F9 PPU:69 ,174 7900
F8E4  90 05     BCC $F8EB                        A:40 X:D6 Y:40 P:47 S:F9 PPU:69 ,180 7902
F8E6  D0 03     BNE $F8EB                        A:40 X:D6 Y:40 P:47 S:F9 PPU:69 ,186 7904
F8E8  50 01     BVC $F8EB                        A:40 X:D6 Y:40 P:47 S:F9 PPU:69 ,192 7906
F8EA  60        RTS                              A:40 X:D6 Y:40 P:47 S:F9 PPU:69 ,198 7908
D7B5  E8        INX                              A:40 X:D6 Y:40 P:47 S:FB PPU:69 ,216 7914
D7B6  A9 3F     LDA #$3F                         A:40 X:D7 Y:40 P:C5 S:FB PPU:69 ,222 7916
D7B8  8D 78 06  STA $0678 = $40                  A:3F X:D7 Y:40 P:45 S:FB PPU:69 ,228 7918
D7BB  20 EE F8  JSR $F8EE                        A:3F X:D7 Y:40 P:45 S:FB PPU:69 ,240 7922
F8EE  B8        CLV                              A:3F X:D7 Y:40 P:45 S:F9 PPU:69 ,258 7928
F8EF  60        RTS                              A:3F X:D7 Y:40 P:05 S:F9 PPU:69 ,264 7930
D7BE  CC 78 06  CPY $0678 = $3F                  A:3F X:D7 Y:40 P:05 S:FB PPU:69 ,282 7936
D7C1  20 F0 F8  JSR $F8F0                        A:3F X:D7 Y:40 P:05 S:FB PPU:69 ,294 7940
F8F0  F0 07     BEQ $F8F9                        A:3F X:D7 Y:40 P:05 S:F9 PPU:69 ,312 7946
F8F2  30 05     BMI $F8F9                        A:3F X:D7 Y:40 P:05 S:F9 PPU:69 ,318 7948
F8F4  90 03     BCC $F8F9                        A:3F X:D7 Y:40 P:05 S:F9 PPU:69 ,324 7950
F8F6  70 01     BVS $F8F9                        A:3F X:D7 Y:40 P:05 S:F9 PPU:69 ,330 7952
F8F8  60        RTS                              A:3F X:D7 Y:40 P:05 S:F9 PPU:69 ,336 7954
D7C4  E8        INX                              A:3F X:D7 Y:40 P:05 S:FB PPU:70 ,13  7960
D7C5  A9 41     LDA #$41                         A:3F X:D8 Y:40 P:85 S:FB PPU:70 ,19  7962
D7C7  8D 78 06  STA $0678 = $3F                  A:41 X:D8 Y:40 P:05 S:FB PPU:70 ,25  7964
D7CA  CC 78 06  CPY $0678 = $41                  A:41 X:D8 Y:40 P:05 S:FB PPU:70 ,37  7968
D7CD  20 FC F8  JSR $F8FC                        A:41 X:D8 Y:40 P:84 S:FB PPU:70 ,49  7972
F8FC  F0 05     BEQ $F903                        A:41 X:D8 Y:40 P:84 S:F9 PPU:70 ,67  7978
F8FE  10 03     BPL $F903                        A:41 X:D8 Y:40 P:84 S:F9 PPU:70 ,73  7980
F900  10 01     BPL $F903                        A:41 X:D8 Y:40 P:84 S:F9 PPU:70 ,79  7982
F902  60        RTS                              A:41 X:D8 Y:40 P:84 S:F9 PPU:70 ,85  7984
D7D0  E8        INX                              A:41 X:D8 Y:40 P:84 S:FB PPU:70 ,103 7990
D7D1  A9 00     LDA #$00                         A:41 X:D9 Y:40 P:84 S:FB PPU:70 ,109 7992
D7D3  8D 78 06  STA $0678 = $41                  A:00 X:D9 Y:40 P:06 S:FB PPU:70 ,115 7994
D7D6  20 06 F9  JSR $F906                        A:00 X:D9 Y:40 P:06 S:FB PPU:70 ,127 7998
F906  A0 80     LDY #$80                         A:00 X:D9 Y:40 P:06 S:F9 PPU:70 ,145 8004
F908  60        RTS                              A:00 X:D9 Y:80 P:84 S:F9 PPU:70 ,151 8006
D7D9  CC 78 06  CPY $0678 = $00                  A:00 X:D9 Y:80 P:84 S:FB PPU:70 ,169 8012
D7DC  20 09 F9  JSR $F909                        A:00 X:D9 Y:80 P:85 S:FB PPU:70 ,181 8016
F909  F0 05     BEQ $F910                        A:00 X:D9 Y:80 P:85 S:F9 PPU:70 ,199 8022
F90B  10 03     BPL $F910                        A:00 X:D9 Y:80 P:85 S:F9 PPU:70 ,205 8024
F90D  90 01     BCC $F910                        A:00 X:D9 Y:80 P:85 S:F9 PPU:70 ,211 8026
F90F  60        RTS                              A:00 X:D9 Y:80 P:85 S:F9 PPU:70 ,217 8028
D7DF  E8        INX                              A:00 X:D9 Y:80 P:85 S:FB PPU:70 ,235 8034
D7E0  A9 80     LDA #$80                         A:00 X:DA Y:80 P:85 S:FB PPU:70 ,241 8036
D7E2  8D 78 06  STA $0678 = $00                  A:80 X:DA Y:80 P:85 S:FB PPU:70 ,247 8038
D7E5  CC 78 06  CPY $0678 = $80                  A:80 X:DA Y:80 P:85 S:FB PPU:70 ,259 8042
D7E8  20 13 F9  JSR $F913                        A:80 X:DA Y:80 P:07 S:FB PPU:70 ,271 8046
F913  D0 05     BNE $F91A                        A:80 X:DA Y:80 P:07 S:F9 PPU:70 ,289 8052
F915  30 03     BMI $F91A                        A:80 X:DA Y:80 P:07 S:F9 PPU:70 ,295 8054
F917  90 01     BCC $F91A                        A:80 X:DA Y:80 P:07 S:F9 PPU:70 ,301 8056
F919  60        RTS                              A:80 X:DA Y:80 P:07 S:F9 PPU:70 ,307 8058
D7EB  E8        INX                              A:80 X:DA Y:80 P:07 S:FB PPU:70 ,325 8064
D7EC  A9 81     LDA #$81                         A:80 X:DB Y:80 P:85 S:FB PPU:70 ,331 8066
D7EE  8D 78 06  STA $0678 = $80                  A:81 X:DB Y:80 P:85 S:FB PPU:70 ,337 8068
D7F1  CC 78 06  CPY $0678 = $81                  A:81 X:DB Y:80 P:85 S:FB PPU:71 ,8   8072
D7F4  20 1D F9  JSR $F91D                        A:81 X:DB Y:80 P:84 S:FB PPU:71 ,20  8076
F91D  B0 05     BCS $F924                        A:81 X:DB Y:80 P:84 S:F9 PPU:71 ,38  8082
F91F  F0 03     BEQ $F924                        A:81 X:DB Y:80 P:84 S:F9 PPU:71 ,44  8084
F921  10 01     BPL $F924                        A:81 X:DB Y:80 P:84 S:F9 PPU:71 ,50  8086
F923  60        RTS                              A:81 X:DB Y:80 P:84 S:F9 PPU:71 ,56  8088
D7F7  E8        INX                              A:81 X:DB Y:80 P:84 S:FB PPU:71 ,74  8094
D7F8  A9 7F     LDA #$7F                         A:81 X:DC Y:80 P:84 S:FB PPU:71 ,80  8096
D7FA  8D 78 06  STA $0678 = $81                  A:7F X:DC Y:80 P:04 S:FB PPU:71 ,86  8098
D7FD  CC 78 06  CPY $0678 = $7F                  A:7F X:DC Y:80 P:04 S:FB PPU:71 ,98  8102
D800  20 27 F9  JSR $F927                        A:7F X:DC Y:80 P:05 S:FB PPU:71 ,110 8106
F927  90 05     BCC $F92E                        A:7F X:DC Y:80 P:05 S:F9 PPU:71 ,128 8112
F929  F0 03     BEQ $F92E                        A:7F X:DC Y:80 P:05 S:F9 PPU:71 ,134 8114
F92B  30 01     BMI $F92E                        A:7F X:DC Y:80 P:05 S:F9 PPU:71 ,140 8116
F92D  60        RTS                              A:7F X:DC Y:80 P:05 S:F9 PPU:71 ,146 8118
D803  E8        INX                              A:7F X:DC Y:80 P:05 S:FB PPU:71 ,164 8124
D804  8A        TXA                              A:7F X:DD Y:80 P:85 S:FB PPU:71 ,170 8126
D805  A8        TAY                              A:DD X:DD Y:80 P:85 S:FB PPU:71 ,176 8128
D806  20 90 F9  JSR $F990                        A:DD X:DD Y:DD P:85 S:FB PPU:71 ,182 8130
F990  A2 55     LDX #$55                         A:DD X:DD Y:DD P:85 S:F9 PPU:71 ,200 8136
F992  A9 FF     LDA #$FF                         A:DD X:55 Y:DD P:05 S:F9 PPU:71 ,206 8138
F994  85 01     STA $01 = $FF                    A:FF X:55 Y:DD P:85 S:F9 PPU:71 ,212 8140
F996  EA        NOP                              A:FF X:55 Y:DD P:85 S:F9 PPU:71 ,221 8143
F997  24 01     BIT $01 = $FF                    A:FF X:55 Y:DD P:85 S:F9 PPU:71 ,227 8145
F999  38        SEC                              A:FF X:55 Y:DD P:C5 S:F9 PPU:71 ,236 8148
F99A  A9 01     LDA #$01                         A:FF X:55 Y:DD P:C5 S:F9 PPU:71 ,242 8150
F99C  60        RTS                              A:01 X:55 Y:DD P:45 S:F9 PPU:71 ,248 8152
D809  8D 78 06  STA $0678 = $7F                  A:01 X:55 Y:DD P:45 S:FB PPU:71 ,266 8158
D80C  4E 78 06  LSR $0678 = $01                  A:01 X:55 Y:DD P:45 S:FB PPU:71 ,278 8162
D80F  AD 78 06  LDA $0678 = $00                  A:01 X:55 Y:DD P:47 S:FB PPU:71 ,296 8168
D812  20 9D F9  JSR $F99D                        A:00 X:55 Y:DD P:47 S:FB PPU:71 ,308 8172
F99D  90 1B     BCC $F9BA                        A:00 X:55 Y:DD P:47 S:F9 PPU:71 ,326 8178
F99F  D0 19     BNE $F9BA                        A:00 X:55 Y:DD P:47 S:F9 PPU:71 ,332 8180
F9A1  30 17     BMI $F9BA                        A:00 X:55 Y:DD P:47 S:F9 PPU:71 ,338 8182
F9A3  50 15     BVC $F9BA                        A:00 X:55 Y:DD P:47 S:F9 PPU:72 ,3   8184
F9A5  C9 00     CMP #$00                         A:00 X:55 Y:DD P:47 S:F9 PPU:72 ,9   8186
F9A7  D0 11     BNE $F9BA                        A:00 X:55 Y:DD P:47 S:F9 PPU:72 ,15  8188
F9A9  B8        CLV                              A:00 X:55 Y:DD P:47 S:F9 PPU:72 ,21  8190
F9AA  A9 AA     LDA #$AA                         A:00 X:55 Y:DD P:07 S:F9 PPU:72 ,27  8192
F9AC  60        RTS                              A:AA X:55 Y:DD P:85 S:F9 PPU:72 ,33  8194
D815  C8        INY                              A:AA X:55 Y:DD P:85 S:FB PPU:72 ,51  8200
D816  8D 78 06  STA $0678 = $00                  A:AA X:55 Y:DE P:85 S:FB PPU:72 ,57  8202
D819  4E 78 06  LSR $0678 = $AA                  A:AA X:55 Y:DE P:85 S:FB PPU:72 ,69  8206
D81C  AD 78 06  LDA $0678 = $55                  A:AA X:55 Y:DE P:04 S:FB PPU:72 ,87  8212
D81F  20 AD F9  JSR $F9AD                        A:55 X:55 Y:DE P:04 S:FB PPU:72 ,99  8216
F9AD  B0 0B     BCS $F9BA                        A:55 X:55 Y:DE P:04 S:F9 PPU:72 ,117 8222
F9AF  F0 09     BEQ $F9BA                        A:55 X:55 Y:DE P:04 S:F9 PPU:72 ,123 8224
F9B1  30 07     BMI $F9BA                        A:55 X:55 Y:DE P:04 S:F9 PPU:72 ,129 8226
F9B3  70 05     BVS $F9BA                        A:55 X:55 Y:DE P:04 S:F9 PPU:72 ,135 8228
F9B5  C9 55     CMP #$55                         A:55 X:55 Y:DE P:04 S:F9 PPU:72 ,141 8230
F9B7  D0 01     BNE $F9BA                        A:55 X:55 Y:DE P:07 S:F9 PPU:72 ,147 8232
F9B9  60        RTS                              A:55 X:55 Y:DE P:07 S:F9 PPU:72 ,153 8234
D822  C8        INY                              A:55 X:55 Y:DE P:07 S:FB PPU:72 ,171 8240
D823  20 BD F9  JSR $F9BD                        A:55 X:55 Y:DF P:85 S:FB PPU:72 ,177 8242
F9BD  24 01     BIT $01 = $FF                    A:55 X:55 Y:DF P:85 S:F9 PPU:72 ,195 8248
F9BF  38        SEC                              A:55 X:55 Y:DF P:C5 S:F9 PPU:72 ,204 8251
F9C0  A9 80     LDA #$80                         A:55 X:55 Y:DF P:C5 S:F9 PPU:72 ,210 8253
F9C2  60        RTS                              A:80 X:55 Y:DF P:C5 S:F9 PPU:72 ,216 8255
D826  8D 78 06  STA $0678 = $55                  A:80 X:55 Y:DF P:C5 S:FB PPU:72 ,234 8261
D829  0E 78 06  ASL $0678 = $80                  A:80 X:55 Y:DF P:C5 S:FB PPU:72 ,246 8265
D82C  AD 78 06  LDA $0678 = $00                  A:80 X:55 Y:DF P:47 S:FB PPU:72 ,264 8271
D82F  20 C3 F9  JSR $F9C3                        A:00 X:55 Y:DF P:47 S:FB PPU:72 ,276 8275
F9C3  90 1C     BCC $F9E1                        A:00 X:55 Y:DF P:47 S:F9 PPU:72 ,294 8281
F9C5  D0 1A     BNE $F9E1                        A:00 X:55 Y:DF P:47 S:F9 PPU:72 ,300 8283
F9C7  30 18     BMI $F9E1                        A:00 X:55 Y:DF P:47 S:F9 PPU:72 ,306 8285
F9C9  50 16     BVC $F9E1                        A:00 X:55 Y:DF P:47 S:F9 PPU:72 ,312 8287
F9CB  C9 00     CMP #$00                         A:00 X:55 Y:DF P:47 S:F9 PPU:72 ,318 8289
F9CD  D0 12     BNE $F9E1                        A:00 X:55 Y:DF P:47 S:F9 PPU:72 ,324 8291
F9CF  B8        CLV                              A:00 X:55 Y:DF P:47 S:F9 PPU:72 ,330 8293
F9D0  A9 55     LDA #$55                         A:00 X:55 Y:DF P:07 S:F9 PPU:72 ,336 8295
F9D2  38        SEC                              A:55 X:55 Y:DF P:05 S:F9 PPU:73 ,1   8297
F9D3  60        RTS                              A:55 X:55 Y:DF P:05 S:F9 PPU:73 ,7   8299
D832  C8        INY                              A:55 X:55 Y:DF P:05 S:FB PPU:73 ,25  8305
D833  8D 78 06  STA $0678 = $00                  A:55 X:55 Y:E0 P:85 S:FB PPU:73 ,31  8307
D836  0E 78 06  ASL $0678 = $55                  A:55 X:55 Y:E0 P:85 S:FB PPU:73 ,43  8311
D839  AD 78 06  LDA $0678 = $AA                  A:55 X:55 Y:E0 P:84 S:FB PPU:73 ,61  8317
D83C  20 D4 F9  JSR $F9D4                        A:AA X:55 Y:E0 P:84 S:FB PPU:73 ,73  8321
F9D4  B0 0B     BCS $F9E1                        A:AA X:55 Y:E0 P:84 S:F9 PPU:73 ,91  8327
F9D6  F0 09     BEQ $F9E1                        A:AA X:55 Y:E0 P:84 S:F9 PPU:73 ,97  8329
F9D8  10 07     BPL $F9E1                        A:AA X:55 Y:E0 P:84 S:F9 PPU:73 ,103 8331
F9DA  70 05     BVS $F9E1                        A:AA X:55 Y:E0 P:84 S:F9 PPU:73 ,109 8333
F9DC  C9 AA     CMP #$AA                         A:AA X:55 Y:E0 P:84 S:F9 PPU:73 ,115 8335
F9DE  D0 01     BNE $F9E1                        A:AA X:55 Y:E0 P:07 S:F9 PPU:73 ,121 8337
F9E0  60        RTS                              A:AA X:55 Y:E0 P:07 S:F9 PPU:73 ,127 8339
D83F  C8        INY                              A:AA X:55 Y:E0 P:07 S:FB PPU:73 ,145 8345
D840  20 E4 F9  JSR $F9E4                        A:AA X:55 Y:E1 P:85 S:FB PPU:73 ,151 8347
F9E4  24 01     BIT $01 = $FF                    A:AA X:55 Y:E1 P:85 S:F9 PPU:73 ,169 8353
F9E6  38        SEC                              A:AA X:55 Y:E1 P:C5 S:F9 PPU:73 ,178 8356
F9E7  A9 01     LDA #$01                         A:AA X:55 Y:E1 P:C5 S:F9 PPU:73 ,184 8358
F9E9  60        RTS                              A:01 X:55 Y:E1 P:45 S:F9 PPU:73 ,190 8360
D843  8D 78 06  STA $0678 = $AA                  A:01 X:55 Y:E1 P:45 S:FB PPU:73 ,208 8366
D846  6E 78 06  ROR $0678 = $01                  A:01 X:55 Y:E1 P:45 S:FB PPU:73 ,220 8370
D849  AD 78 06  LDA $0678 = $80                  A:01 X:55 Y:E1 P:C5 S:FB PPU:73 ,238 8376
D84C  20 EA F9  JSR $F9EA                        A:80 X:55 Y:E1 P:C5 S:FB PPU:73 ,250 8380
F9EA  90 1C     BCC $FA08                        A:80 X:55 Y:E1 P:C5 S:F9 PPU:73 ,268 8386
F9EC  F0 1A     BEQ $FA08                        A:80 X:55 Y:E1 P:C5 S:F9 PPU:73 ,274 8388
F9EE  10 18     BPL $FA08                        A:80 X:55 Y:E1 P:C5 S:F9 PPU:73 ,280 8390
F9F0  50 16     BVC $FA08                        A:80 X:55 Y:E1 P:C5 S:F9 PPU:73 ,286 8392
F9F2  C9 80     CMP #$80                         A:80 X:55 Y:E1 P:C5 S:F9 PPU:73 ,292 8394
F9F4  D0 12     BNE $FA08                        A:80 X:55 Y:E1 P:47 S:F9 PPU:73 ,298 8396
F9F6  B8        CLV                              A:80 X:55 Y:E1 P:47 S:F9 PPU:73 ,304 8398
F9F7  18        CLC                              A:80 X:55 Y:E1 P:07 S:F9 PPU:73 ,310 8400
F9F8  A9 55     LDA #$55                         A:80 X:55 Y:E1 P:06 S:F9 PPU:73 ,316 8402
F9FA  60        RTS                              A:55 X:55 Y:E1 P:04 S:F9 PPU:73 ,322 8404
D84F  C8        INY                              A:55 X:55 Y:E1 P:04 S:FB PPU:73 ,340 8410
D850  8D 78 06  STA $0678 = $80                  A:55 X:55 Y:E2 P:84 S:FB PPU:74 ,5   8412
D853  6E 78 06  ROR $0678 = $55                  A:55 X:55 Y:E2 P:84 S:FB PPU:74 ,17  8416
D856  AD 78 06  LDA $0678 = $2A                  A:55 X:55 Y:E2 P:05 S:FB PPU:74 ,35  8422
D859  20 FB F9  JSR $F9FB                        A:2A X:55 Y:E2 P:05 S:FB PPU:74 ,47  8426
F9FB  90 0B     BCC $FA08                        A:2A X:55 Y:E2 P:05 S:F9 PPU:74 ,65  8432
F9FD  F0 09     BEQ $FA08                        A:2A X:55 Y:E2 P:05 S:F9 PPU:74 ,71  8434
F9FF  30 07     BMI $FA08                        A:2A X:55 Y:E2 P:05 S:F9 PPU:74 ,77  8436
FA01  70 05     BVS $FA08                        A:2A X:55 Y:E2 P:05 S:F9 PPU:74 ,83  8438
FA03  C9 2A     CMP #$2A                         A:2A X:55 Y:E2 P:05 S:F9 PPU:74 ,89  8440
FA05  D0 01     BNE $FA08                        A:2A X:55 Y:E2 P:07 S:F9 PPU:74 ,95  8442
FA07  60        RTS                              A:2A X:55 Y:E2 P:07 S:F9 PPU:74 ,101 8444
D85C  C8        INY                              A:2A X:55 Y:E2 P:07 S:FB PPU:74 ,119 8450
D85D  20 0A FA  JSR $FA0A                        A:2A X:55 Y:E3 P:85 S:FB PPU:74 ,125 8452
FA0A  24 01     BIT $01 = $FF                    A:2A X:55 Y:E3 P:85 S:F9 PPU:74 ,143 8458
FA0C  38        SEC                              A:2A X:55 Y:E3 P:C5 S:F9 PPU:74 ,152 8461
FA0D  A9 80     LDA #$80                         A:2A X:55 Y:E3 P:C5 S:F9 PPU:74 ,158 8463
FA0F  60        RTS                              A:80 X:55 Y:E3 P:C5 S:F9 PPU:74 ,164 8465
D860  8D 78 06  STA $0678 = $2A                  A:80 X:55 Y:E3 P:C5 S:FB PPU:74 ,182 8471
D863  2E 78 06  ROL $0678 = $80                  A:80 X:55 Y:E3 P:C5 S:FB PPU:74 ,194 8475
D866  AD 78 06  LDA $0678 = $01                  A:80 X:55 Y:E3 P:45 S:FB PPU:74 ,212 8481
D869  20 10 FA  JSR $FA10                        A:01 X:55 Y:E3 P:45 S:FB PPU:74 ,224 8485
FA10  90 1C     BCC $FA2E                        A:01 X:55 Y:E3 P:45 S:F9 PPU:74 ,242 8491
FA12  F0 1A     BEQ $FA2E                        A:01 X:55 Y:E3 P:45 S:F9 PPU:74 ,248 8493
FA14  30 18     BMI $FA2E                        A:01 X:55 Y:E3 P:45 S:F9 PPU:74 ,254 8495
FA16  50 16     BVC $FA2E                        A:01 X:55 Y:E3 P:45 S:F9 PPU:74 ,260 8497
FA18  C9 01     CMP #$01                         A:01 X:55 Y:E3 P:45 S:F9 PPU:74 ,266 8499
FA1A  D0 12     BNE $FA2E                        A:01 X:55 Y:E3 P:47 S:F9 PPU:74 ,272 8501
FA1C  B8        CLV                              A:01 X:55 Y:E3 P:47 S:F9 PPU:74 ,278 8503
FA1D  18        CLC                              A:01 X:55 Y:E3 P:07 S:F9 PPU:74 ,284 8505
FA1E  A9 55     LDA #$55                         A:01 X:55 Y:E3 P:06 S:F9 PPU:74 ,290 8507
FA20  60        RTS                              A:55 X:55 Y:E3 P:04 S:F9 PPU:74 ,296 8509
D86C  C8        INY                              A:55 X:55 Y:E3 P:04 S:FB PPU:74 ,314 8515
D86D  8D 78 06  STA $0678 = $01                  A:55 X:55 Y:E4 P:84 S:FB PPU:74 ,320 8517
D870  2E 78 06  ROL $0678 = $55                  A:55 X:55 Y:E4 P:84 S:FB PPU:74 ,332 8521
D873  AD 78 06  LDA $0678 = $AA                  A:55 X:55 Y:E4 P:84 S:FB PPU:75 ,9   8527
D876  20 21 FA  JSR $FA21                        A:AA X:55 Y:E4 P:84 S:FB PPU:75 ,21  8531
FA21  B0 0B     BCS $FA2E                        A:AA X:55 Y:E4 P:84 S:F9 PPU:75 ,39  8537
FA23  F0 09     BEQ $FA2E                        A:AA X:55 Y:E4 P:84 S:F9 PPU:75 ,45  8539
FA25  10 07     BPL $FA2E                        A:AA X:55 Y:E4 P:84 S:F9 PPU:75 ,51  8541
FA27  70 05     BVS $FA2E                        A:AA X:55 Y:E4 P:84 S:F9 PPU:75 ,57  8543
FA29  C9 AA     CMP #$AA                         A:AA X:55 Y:E4 P:84 S:F9 PPU:75 ,63  8545
FA2B  D0 01     BNE $FA2E                        A:AA X:55 Y:E4 P:07 S:F9 PPU:75 ,69  8547
FA2D  60        RTS                              A:AA X:55 Y:E4 P:07 S:F9 PPU:75 ,75  8549
D879  A9 FF     LDA #$FF                         A:AA X:55 Y:E4 P:07 S:FB PPU:75 ,93  8555
D87B  8D 78 06  STA $0678 = $AA                  A:FF X:55 Y:E4 P:85 S:FB PPU:75 ,99  8557
D87E  85 01     STA $01 = $FF                    A:FF X:55 Y:E4 P:85 S:FB PPU:75 ,111 8561
D880  24 01     BIT $01 = $FF                    A:FF X:55 Y:E4 P:85 S:FB PPU:75 ,120 8564
D882  38        SEC                              A:FF X:55 Y:E4 P:C5 S:FB PPU:75 ,129 8567
D883  EE 78 06  INC $0678 = $FF                  A:FF X:55 Y:E4 P:C5 S:FB PPU:75 ,135 8569
D886  D0 0D     BNE $D895                        A:FF X:55 Y:E4 P:47 S:FB PPU:75 ,153 8575
D888  30 0B     BMI $D895                        A:FF X:55 Y:E4 P:47 S:FB PPU:75 ,159 8577
D88A  50 09     BVC $D895                        A:FF X:55 Y:E4 P:47 S:FB PPU:75 ,165 8579
D88C  90 07     BCC $D895                        A:FF X:55 Y:E4 P:47 S:FB PPU:75 ,171 8581
D88E  AD 78 06  LDA $0678 = $00                  A:FF X:55 Y:E4 P:47 S:FB PPU:75 ,177 8583
D891  C9 00     CMP #$00                         A:00 X:55 Y:E4 P:47 S:FB PPU:75 ,189 8587
D893  F0 04     BEQ $D899                        A:00 X:55 Y:E4 P:47 S:FB PPU:75 ,195 8589
D899  A9 7F     LDA #$7F                         A:00 X:55 Y:E4 P:47 S:FB PPU:75 ,204 8592
D89B  8D 78 06  STA $0678 = $00                  A:7F X:55 Y:E4 P:45 S:FB PPU:75 ,210 8594
D89E  B8        CLV                              A:7F X:55 Y:E4 P:45 S:FB PPU:75 ,222 8598
D89F  18        CLC                              A:7F X:55 Y:E4 P:05 S:FB PPU:75 ,228 8600
D8A0  EE 78 06  INC $0678 = $7F                  A:7F X:55 Y:E4 P:04 S:FB PPU:75 ,234 8602
D8A3  F0 0D     BEQ $D8B2                        A:7F X:55 Y:E4 P:84 S:FB PPU:75 ,252 8608
D8A5  10 0B     BPL $D8B2                        A:7F X:55 Y:E4 P:84 S:FB PPU:75 ,258 8610
D8A7  70 09     BVS $D8B2                        A:7F X:55 Y:E4 P:84 S:FB PPU:75 ,264 8612
D8A9  B0 07     BCS $D8B2                        A:7F X:55 Y:E4 P:84 S:FB PPU:75 ,270 8614
D8AB  AD 78 06  LDA $0678 = $80                  A:7F X:55 Y:E4 P:84 S:FB PPU:75 ,276 8616
D8AE  C9 80     CMP #$80                         A:80 X:55 Y:E4 P:84 S:FB PPU:75 ,288 8620
D8B0  F0 04     BEQ $D8B6                        A:80 X:55 Y:E4 P:07 S:FB PPU:75 ,294 8622
D8B6  A9 00     LDA #$00                         A:80 X:55 Y:E4 P:07 S:FB PPU:75 ,303 8625
D8B8  8D 78 06  STA $0678 = $80                  A:00 X:55 Y:E4 P:07 S:FB PPU:75 ,309 8627
D8BB  24 01     BIT $01 = $FF                    A:00 X:55 Y:E4 P:07 S:FB PPU:75 ,321 8631
D8BD  38        SEC                              A:00 X:55 Y:E4 P:C7 S:FB PPU:75 ,330 8634
D8BE  CE 78 06  DEC $0678 = $00                  A:00 X:55 Y:E4 P:C7 S:FB PPU:75 ,336 8636
D8C1  F0 0D     BEQ $D8D0                        A:00 X:55 Y:E4 P:C5 S:FB PPU:76 ,13  8642
D8C3  10 0B     BPL $D8D0                        A:00 X:55 Y:E4 P:C5 S:FB PPU:76 ,19  8644
D8C5  50 09     BVC $D8D0                        A:00 X:55 Y:E4 P:C5 S:FB PPU:76 ,25  8646
D8C7  90 07     BCC $D8D0                        A:00 X:55 Y:E4 P:C5 S:FB PPU:76 ,31  8648
D8C9  AD 78 06  LDA $0678 = $FF                  A:00 X:55 Y:E4 P:C5 S:FB PPU:76 ,37  8650
D8CC  C9 FF     CMP #$FF                         A:FF X:55 Y:E4 P:C5 S:FB PPU:76 ,49  8654
D8CE  F0 04     BEQ $D8D4                        A:FF X:55 Y:E4 P:47 S:FB PPU:76 ,55  8656
D8D4  A9 80     LDA #$80                         A:FF X:55 Y:E4 P:47 S:FB PPU:76 ,64  8659
D8D6  8D 78 06  STA $0678 = $FF                  A:80 X:55 Y:E4 P:C5 S:FB PPU:76 ,70  8661
D8D9  B8        CLV                              A:80 X:55 Y:E4 P:C5 S:FB PPU:76 ,82  8665
D8DA  18        CLC                              A:80 X:55 Y:E4 P:85 S:FB PPU:76 ,88  8667
D8DB  CE 78 06  DEC $0678 = $80                  A:80 X:55 Y:E4 P:84 S:FB PPU:76 ,94  8669
D8DE  F0 0D     BEQ $D8ED                        A:80 X:55 Y:E4 P:04 S:FB PPU:76 ,112 8675
D8E0  30 0B     BMI $D8ED                        A:80 X:55 Y:E4 P:04 S:FB PPU:76 ,118 8677
D8E2  70 09     BVS $D8ED                        A:80 X:55 Y:E4 P:04 S:FB PPU:76 ,124 8679
D8E4  B0 07     BCS $D8ED                        A:80 X:55 Y:E4 P:04 S:FB PPU:76 ,130 8681
D8E6  AD 78 06  LDA $0678 = $7F                  A:80 X:55 Y:E4 P:04 S:FB PPU:76 ,136 8683
D8E9  C9 7F     CMP #$7F                         A:7F X:55 Y:E4 P:04 S:FB PPU:76 ,148 8687
D8EB  F0 04     BEQ $D8F1                        A:7F X:55 Y:E4 P:07 S:FB PPU:76 ,154 8689
D8F1  A9 01     LDA #$01                         A:7F X:55 Y:E4 P:07 S:FB PPU:76 ,163 8692
D8F3  8D 78 06  STA $0678 = $7F                  A:01 X:55 Y:E4 P:05 S:FB PPU:76 ,169 8694
D8F6  CE 78 06  DEC $0678 = $01                  A:01 X:55 Y:E4 P:05 S:FB PPU:76 ,181 8698
D8F9  F0 04     BEQ $D8FF                        A:01 X:55 Y:E4 P:07 S:FB PPU:76 ,199 8704
D8FF  60        RTS                              A:01 X:55 Y:E4 P:07 S:FB PPU:76 ,208 8707
C618  20 00 D9  JSR $D900                        A:01 X:55 Y:E4 P:07 S:FD PPU:76 ,226 8713
D900  A9 A3     LDA #$A3                         A:01 X:55 Y:E4 P:07 S:FB PPU:76 ,244 8719
D902  85 33     STA $33 = $00                    A:A3 X:55 Y:E4 P:85 S:FB PPU:76 ,250 8721
D904  A9 89     LDA #$89                         A:A3 X:55 Y:E4 P:85 S:FB PPU:76 ,259 8724
D906  8D 00 03  STA $0300 = $70                  A:89 X:55 Y:E4 P:85 S:FB PPU:76 ,265 8726
D909  A9 12     LDA #$12                         A:89 X:55 Y:E4 P:85 S:FB PPU:76 ,277 8730
D90B  8D 45 02  STA $0245 = $00                  A:12 X:55 Y:E4 P:05 S:FB PPU:76 ,283 8732
D90E  A9 FF     LDA #$FF                         A:12 X:55 Y:E4 P:05 S:FB PPU:76 ,295 8736
D910  85 01     STA $01 = $FF                    A:FF X:55 Y:E4 P:85 S:FB PPU:76 ,301 8738
D912  A2 65     LDX #$65                         A:FF X:55 Y:E4 P:85 S:FB PPU:76 ,310 8741
D914  A9 00     LDA #$00                         A:FF X:65 Y:E4 P:05 S:FB PPU:76 ,316 8743
D916  85 89     STA $89 = $00                    A:00 X:65 Y:E4 P:07 S:FB PPU:76 ,322 8745
D918  A9 03     LDA #$03                         A:00 X:65 Y:E4 P:07 S:FB PPU:76 ,331 8748
D91A  85 8A     STA $8A = $00                    A:03 X:65 Y:E4 P:05 S:FB PPU:76 ,337 8750
D91C  A0 00     LDY #$00                         A:03 X:65 Y:E4 P:05 S:FB PPU:77 ,5   8753
D91E  38        SEC                              A:03 X:65 Y:00 P:07 S:FB PPU:77 ,11  8755
D91F  A9 00     LDA #$00                         A:03 X:65 Y:00 P:07 S:FB PPU:77 ,17  8757
D921  B8        CLV                              A:00 X:65 Y:00 P:07 S:FB PPU:77 ,23  8759
D922  B1 89     LDA ($89),Y = $89                A:00 X:65 Y:00 P:07 S:FB PPU:77 ,29  8761
D924  F0 0C     BEQ $D932                        A:89 X:65 Y:00 P:85 S:FB PPU:77 ,44  8766
D926  90 0A     BCC $D932                        A:89 X:65 Y:00 P:85 S:FB PPU:77 ,50  8768
D928  70 08     BVS $D932                        A:89 X:65 Y:00 P:85 S:FB PPU:77 ,56  8770
D92A  C9 89     CMP #$89                         A:89 X:65 Y:00 P:85 S:FB PPU:77 ,62  8772
D92C  D0 04     BNE $D932                        A:89 X:65 Y:00 P:07 S:FB PPU:77 ,68  8774
D92E  E0 65     CPX #$65                         A:89 X:65 Y:00 P:07 S:FB PPU:77 ,74  8776
D930  F0 04     BEQ $D936                        A:89 X:65 Y:00 P:07 S:FB PPU:77 ,80  8778
D936  A9 FF     LDA #$FF                         A:89 X:65 Y:00 P:07 S:FB PPU:77 ,89  8781
D938  85 97     STA $97 = $00                    A:FF X:65 Y:00 P:85 S:FB PPU:77 ,95  8783
D93A  85 98     STA $98 = $00                    A:FF X:65 Y:00 P:85 S:FB PPU:77 ,104 8786
D93C  24 98     BIT $98 = $FF                    A:FF X:65 Y:00 P:85 S:FB PPU:77 ,113 8789
D93E  A0 34     LDY #$34                         A:FF X:65 Y:00 P:C5 S:FB PPU:77 ,122 8792
D940  B1 97     LDA ($97),Y = $A3                A:FF X:65 Y:34 P:45 S:FB PPU:77 ,128 8794
D942  C9 A3     CMP #$A3                         A:A3 X:65 Y:34 P:C5 S:FB PPU:77 ,146 8800
D944  D0 02     BNE $D948                        A:A3 X:65 Y:34 P:47 S:FB PPU:77 ,152 8802
D946  B0 04     BCS $D94C                        A:A3 X:65 Y:34 P:47 S:FB PPU:77 ,158 8804
D94C  A5 00     LDA $00 = $00                    A:A3 X:65 Y:34 P:47 S:FB PPU:77 ,167 8807
D94E  48        PHA                              A:00 X:65 Y:34 P:47 S:FB PPU:77 ,176 8810
D94F  A9 46     LDA #$46                         A:00 X:65 Y:34 P:47 S:FA PPU:77 ,185 8813
D951  85 FF     STA $FF = $00                    A:46 X:65 Y:34 P:45 S:FA PPU:77 ,191 8815
D953  A9 01     LDA #$01                         A:46 X:65 Y:34 P:45 S:FA PPU:77 ,200 8818
D955  85 00     STA $00 = $00                    A:01 X:65 Y:34 P:45 S:FA PPU:77 ,206 8820
D957  A0 FF     LDY #$FF                         A:01 X:65 Y:34 P:45 S:FA PPU:77 ,215 8823
D959  B1 FF     LDA ($FF),Y = $12                A:01 X:65 Y:FF P:C5 S:FA PPU:77 ,221 8825
D95B  C9 12     CMP #$12                         A:12 X:65 Y:FF P:45 S:FA PPU:77 ,239 8831
D95D  F0 04     BEQ $D963                        A:12 X:65 Y:FF P:47 S:FA PPU:77 ,245 8833
D963  68        PLA                              A:12 X:65 Y:FF P:47 S:FA PPU:77 ,254 8836
D964  85 00     STA $00 = $01                    A:00 X:65 Y:FF P:47 S:FB PPU:77 ,266 8840
D966  A2 ED     LDX #$ED                         A:00 X:65 Y:FF P:47 S:FB PPU:77 ,275 8843
D968  A9 00     LDA #$00                         A:00 X:ED Y:FF P:C5 S:FB PPU:77 ,281 8845
D96A  85 33     STA $33 = $A3                    A:00 X:ED Y:FF P:47 S:FB PPU:77 ,287 8847
D96C  A9 04     LDA #$04                         A:00 X:ED Y:FF P:47 S:FB PPU:77 ,296 8850
D96E  85 34     STA $34 = $00                    A:04 X:ED Y:FF P:45 S:FB PPU:77 ,302 8852
D970  A0 00     LDY #$00                         A:04 X:ED Y:FF P:45 S:FB PPU:77 ,311 8855
D972  18        CLC                              A:04 X:ED Y:00 P:47 S:FB PPU:77 ,317 8857
D973  A9 FF     LDA #$FF                         A:04 X:ED Y:00 P:46 S:FB PPU:77 ,323 8859
D975  85 01     STA $01 = $FF                    A:FF X:ED Y:00 P:C4 S:FB PPU:77 ,329 8861
D977  24 01     BIT $01 = $FF                    A:FF X:ED Y:00 P:C4 S:FB PPU:77 ,338 8864
D979  A9 AA     LDA #$AA                         A:FF X:ED Y:00 P:C4 S:FB PPU:78 ,6   8867
D97B  8D 00 04  STA $0400 = $AD                  A:AA X:ED Y:00 P:C4 S:FB PPU:78 ,12  8869
D97E  A9 55     LDA #$55                         A:AA X:ED Y:00 P:C4 S:FB PPU:78 ,24  8873
D980  11 33     ORA ($33),Y = $AA                A:55 X:ED Y:00 P:44 S:FB PPU:78 ,30  8875
D982  B0 08     BCS $D98C                        A:FF X:ED Y:00 P:C4 S:FB PPU:78 ,45  8880
D984  10 06     BPL $D98C                        A:FF X:ED Y:00 P:C4 S:FB PPU:78 ,51  8882
D986  C9 FF     CMP #$FF                         A:FF X:ED Y:00 P:C4 S:FB PPU:78 ,57  8884
D988  D0 02     BNE $D98C                        A:FF X:ED Y:00 P:47 S:FB PPU:78 ,63  8886
D98A  70 02     BVS $D98E                        A:FF X:ED Y:00 P:47 S:FB PPU:78 ,69  8888
D98E  E8        INX                              A:FF X:ED Y:00 P:47 S:FB PPU:78 ,78  8891
D98F  38        SEC                              A:FF X:EE Y:00 P:C5 S:FB PPU:78 ,84  8893
D990  B8        CLV                              A:FF X:EE Y:00 P:C5 S:FB PPU:78 ,90  8895
D991  A9 00     LDA #$00                         A:FF X:EE Y:00 P:85 S:FB PPU:78 ,96  8897
D993  11 33     ORA ($33),Y = $AA                A:00 X:EE Y:00 P:07 S:FB PPU:78 ,102 8899
D995  F0 06     BEQ $D99D                        A:AA X:EE Y:00 P:85 S:FB PPU:78 ,117 8904
D997  70 04     BVS $D99D                        A:AA X:EE Y:00 P:85 S:FB PPU:78 ,123 8906
D999  90 02     BCC $D99D                        A:AA X:EE Y:00 P:85 S:FB PPU:78 ,129 8908
D99B  30 02     BMI $D99F                        A:AA X:EE Y:00 P:85 S:FB PPU:78 ,135 8910
D99F  E8        INX                              A:AA X:EE Y:00 P:85 S:FB PPU:78 ,144 8913
D9A0  18        CLC                              A:AA X:EF Y:00 P:85 S:FB PPU:78 ,150 8915
D9A1  24 01     BIT $01 = $FF                    A:AA X:EF Y:00 P:84 S:FB PPU:78 ,156 8917
D9A3  A9 55     LDA #$55                         A:AA X:EF Y:00 P:C4 S:FB PPU:78 ,165 8920
D9A5  31 33     AND ($33),Y = $AA                A:55 X:EF Y:00 P:44 S:FB PPU:78 ,171 8922
D9A7  D0 06     BNE $D9AF                        A:00 X:EF Y:00 P:46 S:FB PPU:78 ,186 8927
D9A9  50 04     BVC $D9AF                        A:00 X:EF Y:00 P:46 S:FB PPU:78 ,192 8929
D9AB  B0 02     BCS $D9AF                        A:00 X:EF Y:00 P:46 S:FB PPU:78 ,198 8931
D9AD  10 02     BPL $D9B1                        A:00 X:EF Y:00 P:46 S:FB PPU:78 ,204 8933
D9B1  E8        INX                              A:00 X:EF Y:00 P:46 S:FB PPU:78 ,213 8936
D9B2  38        SEC                              A:00 X:F0 Y:00 P:C4 S:FB PPU:78 ,219 8938
D9B3  B8        CLV                              A:00 X:F0 Y:00 P:C5 S:FB PPU:78 ,225 8940
D9B4  A9 EF     LDA #$EF                         A:00 X:F0 Y:00 P:85 S:FB PPU:78 ,231 8942
D9B6  8D 00 04  STA $0400 = $AA                  A:EF X:F0 Y:00 P:85 S:FB PPU:78 ,237 8944
D9B9  A9 F8     LDA #$F8                         A:EF X:F0 Y:00 P:85 S:FB PPU:78 ,249 8948
D9BB  31 33     AND ($33),Y = $EF                A:F8 X:F0 Y:00 P:85 S:FB PPU:78 ,255 8950
D9BD  90 08     BCC $D9C7                        A:E8 X:F0 Y:00 P:85 S:FB PPU:78 ,270 8955
D9BF  10 06     BPL $D9C7                        A:E8 X:F0 Y:00 P:85 S:FB PPU:78 ,276 8957
D9C1  C9 E8     CMP #$E8                         A:E8 X:F0 Y:00 P:85 S:FB PPU:78 ,282 8959
D9C3  D0 02     BNE $D9C7                        A:E8 X:F0 Y:00 P:07 S:FB PPU:78 ,288 8961
D9C5  50 02     BVC $D9C9                        A:E8 X:F0 Y:00 P:07 S:FB PPU:78 ,294 8963
D9C9  E8        INX                              A:E8 X:F0 Y:00 P:07 S:FB PPU:78 ,303 8966
D9CA  18        CLC                              A:E8 X:F1 Y:00 P:85 S:FB PPU:78 ,309 8968
D9CB  24 01     BIT $01 = $FF                    A:E8 X:F1 Y:00 P:84 S:FB PPU:78 ,315 8970
D9CD  A9 AA     LDA #$AA                         A:E8 X:F1 Y:00 P:C4 S:FB PPU:78 ,324 8973
D9CF  8D 00 04  STA $0400 = $EF                  A:AA X:F1 Y:00 P:C4 S:FB PPU:78 ,330 8975
D9D2  A9 5F     LDA #$5F                         A:AA X:F1 Y:00 P:C4 S:FB PPU:79 ,1   8979
D9D4  51 33     EOR ($33),Y = $AA                A:5F X:F1 Y:00 P:44 S:FB PPU:79 ,7   8981
D9D6  B0 08     BCS $D9E0                        A:F5 X:F1 Y:00 P:C4 S:FB PPU:79 ,22  8986
D9D8  10 06     BPL $D9E0                        A:F5 X:F1 Y:00 P:C4 S:FB PPU:79 ,28  8988
D9DA  C9 F5     CMP #$F5                         A:F5 X:F1 Y:00 P:C4 S:FB PPU:79 ,34  8990
D9DC  D0 02     BNE $D9E0                        A:F5 X:F1 Y:00 P:47 S:FB PPU:79 ,40  8992
D9DE  70 02     BVS $D9E2                        A:F5 X:F1 Y:00 P:47 S:FB PPU:79 ,46  8994
D9E2  E8        INX                              A:F5 X:F1 Y:00 P:47 S:FB PPU:79 ,55  8997
D9E3  38        SEC                              A:F5 X:F2 Y:00 P:C5 S:FB PPU:79 ,61  8999
D9E4  B8        CLV                              A:F5 X:F2 Y:00 P:C5 S:FB PPU:79 ,67  9001
D9E5  A9 70     LDA #$70                         A:F5 X:F2 Y:00 P:85 S:FB PPU:79 ,73  9003
D9E7  8D 00 04  STA $0400 = $AA                  A:70 X:F2 Y:00 P:05 S:FB PPU:79 ,79  9005
D9EA  51 33     EOR ($33),Y = $70                A:70 X:F2 Y:00 P:05 S:FB PPU:79 ,91  9009
D9EC  D0 06     BNE $D9F4                        A:00 X:F2 Y:00 P:07 S:FB PPU:79 ,106 9014
D9EE  70 04     BVS $D9F4                        A:00 X:F2 Y:00 P:07 S:FB PPU:79 ,112 9016
D9F0  90 02     BCC $D9F4                        A:00 X:F2 Y:00 P:07 S:FB PPU:79 ,118 9018
D9F2  10 02     BPL $D9F6                        A:00 X:F2 Y:00 P:07 S:FB PPU:79 ,124 9020
D9F6  E8        INX                              A:00 X:F2 Y:00 P:07 S:FB PPU:79 ,133 9023
D9F7  18        CLC                              A:00 X:F3 Y:00 P:85 S:FB PPU:79 ,139 9025
D9F8  24 01     BIT $01 = $FF                    A:00 X:F3 Y:00 P:84 S:FB PPU:79 ,145 9027
D9FA  A9 69     LDA #$69                         A:00 X:F3 Y:00 P:C6 S:FB PPU:79 ,154 9030
D9FC  8D 00 04  STA $0400 = $70                  A:69 X:F3 Y:00 P:44 S:FB PPU:79 ,160 9032
D9FF  A9 00     LDA #$00                         A:69 X:F3 Y:00 P:44 S:FB PPU:79 ,172 9036
DA01  71 33     ADC ($33),Y = $69                A:00 X:F3 Y:00 P:46 S:FB PPU:79 ,178 9038
DA03  30 08     BMI $DA0D                        A:69 X:F3 Y:00 P:04 S:FB PPU:79 ,193 9043
DA05  B0 06     BCS $DA0D                        A:69 X:F3 Y:00 P:04 S:FB PPU:79 ,199 9045
DA07  C9 69     CMP #$69                         A:69 X:F3 Y:00 P:04 S:FB PPU:79 ,205 9047
DA09  D0 02     BNE $DA0D                        A:69 X:F3 Y:00 P:07 S:FB PPU:79 ,211 9049
DA0B  50 02     BVC $DA0F                        A:69 X:F3 Y:00 P:07 S:FB PPU:79 ,217 9051
DA0F  E8        INX                              A:69 X:F3 Y:00 P:07 S:FB PPU:79 ,226 9054
DA10  38        SEC                              A:69 X:F4 Y:00 P:85 S:FB PPU:79 ,232 9056
DA11  24 01     BIT $01 = $FF                    A:69 X:F4 Y:00 P:85 S:FB PPU:79 ,238 9058
DA13  A9 00     LDA #$00                         A:69 X:F4 Y:00 P:C5 S:FB PPU:79 ,247 9061
DA15  71 33     ADC ($33),Y = $69                A:00 X:F4 Y:00 P:47 S:FB PPU:79 ,253 9063
DA17  30 08     BMI $DA21                        A:6A X:F4 Y:00 P:04 S:FB PPU:79 ,268 9068
DA19  B0 06     BCS $DA21                        A:6A X:F4 Y:00 P:04 S:FB PPU:79 ,274 9070
DA1B  C9 6A     CMP #$6A                         A:6A X:F4 Y:00 P:04 S:FB PPU:79 ,280 9072
DA1D  D0 02     BNE $DA21                        A:6A X:F4 Y:00 P:07 S:FB PPU:79 ,286 9074
DA1F  50 02     BVC $DA23                        A:6A X:F4 Y:00 P:07 S:FB PPU:79 ,292 9076
DA23  E8        INX                              A:6A X:F4 Y:00 P:07 S:FB PPU:79 ,301 9079
DA24  38        SEC                              A:6A X:F5 Y:00 P:85 S:FB PPU:79 ,307 9081
DA25  B8        CLV                              A:6A X:F5 Y:00 P:85 S:FB PPU:79 ,313 9083
DA26  A9 7F     LDA #$7F                         A:6A X:F5 Y:00 P:85 S:FB PPU:79 ,319 9085
DA28  8D 00 04  STA $0400 = $69                  A:7F X:F5 Y:00 P:05 S:FB PPU:79 ,325 9087
DA2B  71 33     ADC ($33),Y = $7F                A:7F X:F5 Y:00 P:05 S:FB PPU:79 ,337 9091
DA2D  10 08     BPL $DA37                        A:FF X:F5 Y:00 P:C4 S:FB PPU:80 ,11  9096
DA2F  B0 06     BCS $DA37                        A:FF X:F5 Y:00 P:C4 S:FB PPU:80 ,17  9098
DA31  C9 FF     CMP #$FF                         A:FF X:F5 Y:00 P:C4 S:FB PPU:80 ,23  9100
DA33  D0 02     BNE $DA37                        A:FF X:F5 Y:00 P:47 S:FB PPU:80 ,29  9102
DA35  70 02     BVS $DA39                        A:FF X:F5 Y:00 P:47 S:FB PPU:80 ,35  9104
DA39  E8        INX                              A:FF X:F5 Y:00 P:47 S:FB PPU:80 ,44  9107
DA3A  18        CLC                              A:FF X:F6 Y:00 P:C5 S:FB PPU:80 ,50  9109
DA3B  24 01     BIT $01 = $FF                    A:FF X:F6 Y:00 P:C4 S:FB PPU:80 ,56  9111
DA3D  A9 80     LDA #$80                         A:FF X:F6 Y:00 P:C4 S:FB PPU:80 ,65  9114
DA3F  8D 00 04  STA $0400 = $7F                  A:80 X:F6 Y:00 P:C4 S:FB PPU:80 ,71  9116
DA42  A9 7F     LDA #$7F                         A:80 X:F6 Y:00 P:C4 S:FB PPU:80 ,83  9120
DA44  71 33     ADC ($33),Y = $80                A:7F X:F6 Y:00 P:44 S:FB PPU:80 ,89  9122
DA46  10 08     BPL $DA50                        A:FF X:F6 Y:00 P:84 S:FB PPU:80 ,104 9127
DA48  B0 06     BCS $DA50                        A:FF X:F6 Y:00 P:84 S:FB PPU:80 ,110 9129
DA4A  C9 FF     CMP #$FF                         A:FF X:F6 Y:00 P:84 S:FB PPU:80 ,116 9131
DA4C  D0 02     BNE $DA50                        A:FF X:F6 Y:00 P:07 S:FB PPU:80 ,122 9133
DA4E  50 02     BVC $DA52                        A:FF X:F6 Y:00 P:07 S:FB PPU:80 ,128 9135
DA52  E8        INX                              A:FF X:F6 Y:00 P:07 S:FB PPU:80 ,137 9138
DA53  38        SEC                              A:FF X:F7 Y:00 P:85 S:FB PPU:80 ,143 9140
DA54  B8        CLV                              A:FF X:F7 Y:00 P:85 S:FB PPU:80 ,149 9142
DA55  A9 80     LDA #$80                         A:FF X:F7 Y:00 P:85 S:FB PPU:80 ,155 9144
DA57  8D 00 04  STA $0400 = $80                  A:80 X:F7 Y:00 P:85 S:FB PPU:80 ,161 9146
DA5A  A9 7F     LDA #$7F                         A:80 X:F7 Y:00 P:85 S:FB PPU:80 ,173 9150
DA5C  71 33     ADC ($33),Y = $80                A:7F X:F7 Y:00 P:05 S:FB PPU:80 ,179 9152
DA5E  D0 06     BNE $DA66                        A:00 X:F7 Y:00 P:07 S:FB PPU:80 ,194 9157
DA60  30 04     BMI $DA66                        A:00 X:F7 Y:00 P:07 S:FB PPU:80 ,200 9159
DA62  70 02     BVS $DA66                        A:00 X:F7 Y:00 P:07 S:FB PPU:80 ,206 9161
DA64  B0 02     BCS $DA68                        A:00 X:F7 Y:00 P:07 S:FB PPU:80 ,212 9163
DA68  E8        INX                              A:00 X:F7 Y:00 P:07 S:FB PPU:80 ,221 9166
DA69  24 01     BIT $01 = $FF                    A:00 X:F8 Y:00 P:85 S:FB PPU:80 ,227 9168
DA6B  A9 40     LDA #$40                         A:00 X:F8 Y:00 P:C7 S:FB PPU:80 ,236 9171
DA6D  8D 00 04  STA $0400 = $80                  A:40 X:F8 Y:00 P:45 S:FB PPU:80 ,242 9173
DA70  D1 33     CMP ($33),Y = $40                A:40 X:F8 Y:00 P:45 S:FB PPU:80 ,254 9177
DA72  30 06     BMI $DA7A                        A:40 X:F8 Y:00 P:47 S:FB PPU:80 ,269 9182
DA74  90 04     BCC $DA7A                        A:40 X:F8 Y:00 P:47 S:FB PPU:80 ,275 9184
DA76  D0 02     BNE $DA7A                        A:40 X:F8 Y:00 P:47 S:FB PPU:80 ,281 9186
DA78  70 02     BVS $DA7C                        A:40 X:F8 Y:00 P:47 S:FB PPU:80 ,287 9188
DA7C  E8        INX                              A:40 X:F8 Y:00 P:47 S:FB PPU:80 ,296 9191
DA7D  B8        CLV                              A:40 X:F9 Y:00 P:C5 S:FB PPU:80 ,302 9193
DA7E  CE 00 04  DEC $0400 = $40                  A:40 X:F9 Y:00 P:85 S:FB PPU:80 ,308 9195
DA81  D1 33     CMP ($33),Y = $3F                A:40 X:F9 Y:00 P:05 S:FB PPU:80 ,326 9201
DA83  F0 06     BEQ $DA8B                        A:40 X:F9 Y:00 P:05 S:FB PPU:81 ,0   9206
DA85  30 04     BMI $DA8B                        A:40 X:F9 Y:00 P:05 S:FB PPU:81 ,6   9208
DA87  90 02     BCC $DA8B                        A:40 X:F9 Y:00 P:05 S:FB PPU:81 ,12  9210
DA89  50 02     BVC $DA8D                        A:40 X:F9 Y:00 P:05 S:FB PPU:81 ,18  9212
DA8D  E8        INX                              A:40 X:F9 Y:00 P:05 S:FB PPU:81 ,27  9215
DA8E  EE 00 04  INC $0400 = $3F                  A:40 X:FA Y:00 P:85 S:FB PPU:81 ,33  9217
DA91  EE 00 04  INC $0400 = $40                  A:40 X:FA Y:00 P:05 S:FB PPU:81 ,51  9223
DA94  D1 33     CMP ($33),Y = $41                A:40 X:FA Y:00 P:05 S:FB PPU:81 ,69  9229
DA96  F0 02     BEQ $DA9A                        A:40 X:FA Y:00 P:84 S:FB PPU:81 ,84  9234
DA98  30 02     BMI $DA9C                        A:40 X:FA Y:00 P:84 S:FB PPU:81 ,90  9236
DA9C  E8        INX                              A:40 X:FA Y:00 P:84 S:FB PPU:81 ,99  9239
DA9D  A9 00     LDA #$00                         A:40 X:FB Y:00 P:84 S:FB PPU:81 ,105 9241
DA9F  8D 00 04  STA $0400 = $41                  A:00 X:FB Y:00 P:06 S:FB PPU:81 ,111 9243
DAA2  A9 80     LDA #$80                         A:00 X:FB Y:00 P:06 S:FB PPU:81 ,123 9247
DAA4  D1 33     CMP ($33),Y = $00                A:80 X:FB Y:00 P:84 S:FB PPU:81 ,129 9249
DAA6  F0 04     BEQ $DAAC                        A:80 X:FB Y:00 P:85 S:FB PPU:81 ,144 9254
DAA8  10 02     BPL $DAAC                        A:80 X:FB Y:00 P:85 S:FB PPU:81 ,150 9256
DAAA  B0 02     BCS $DAAE                        A:80 X:FB Y:00 P:85 S:FB PPU:81 ,156 9258
DAAE  E8        INX                              A:80 X:FB Y:00 P:85 S:FB PPU:81 ,165 9261
DAAF  A0 80     LDY #$80                         A:80 X:FC Y:00 P:85 S:FB PPU:81 ,171 9263
DAB1  8C 00 04  STY $0400 = $00                  A:80 X:FC Y:80 P:85 S:FB PPU:81 ,177 9265
DAB4  A0 00     LDY #$00                         A:80 X:FC Y:80 P:85 S:FB PPU:81 ,189 9269
DAB6  D1 33     CMP ($33),Y = $80                A:80 X:FC Y:00 P:07 S:FB PPU:81 ,195 9271
DAB8  D0 04     BNE $DABE                        A:80 X:FC Y:00 P:07 S:FB PPU:81 ,210 9276
DABA  30 02     BMI $DABE                        A:80 X:FC Y:00 P:07 S:FB PPU:81 ,216 9278
DABC  B0 02     BCS $DAC0                        A:80 X:FC Y:00 P:07 S:FB PPU:81 ,222 9280
DAC0  E8        INX                              A:80 X:FC Y:00 P:07 S:FB PPU:81 ,231 9283
DAC1  EE 00 04  INC $0400 = $80                  A:80 X:FD Y:00 P:85 S:FB PPU:81 ,237 9285
DAC4  D1 33     CMP ($33),Y = $81                A:80 X:FD Y:00 P:85 S:FB PPU:81 ,255 9291
DAC6  B0 04     BCS $DACC                        A:80 X:FD Y:00 P:84 S:FB PPU:81 ,270 9296
DAC8  F0 02     BEQ $DACC                        A:80 X:FD Y:00 P:84 S:FB PPU:81 ,276 9298
DACA  30 02     BMI $DACE                        A:80 X:FD Y:00 P:84 S:FB PPU:81 ,282 9300
DACE  E8        INX                              A:80 X:FD Y:00 P:84 S:FB PPU:81 ,291 9303
DACF  CE 00 04  DEC $0400 = $81                  A:80 X:FE Y:00 P:84 S:FB PPU:81 ,297 9305
DAD2  CE 00 04  DEC $0400 = $80                  A:80 X:FE Y:00 P:84 S:FB PPU:81 ,315 9311
DAD5  D1 33     CMP ($33),Y = $7F                A:80 X:FE Y:00 P:04 S:FB PPU:81 ,333 9317
DAD7  90 04     BCC $DADD                        A:80 X:FE Y:00 P:05 S:FB PPU:82 ,7   9322
DAD9  F0 02     BEQ $DADD                        A:80 X:FE Y:00 P:05 S:FB PPU:82 ,13  9324
DADB  10 02     BPL $DADF                        A:80 X:FE Y:00 P:05 S:FB PPU:82 ,19  9326
DADF  60        RTS                              A:80 X:FE Y:00 P:05 S:FB PPU:82 ,28  9329
C61B  A5 00     LDA $00 = $00                    A:80 X:FE Y:00 P:05 S:FD PPU:82 ,46  9335
C61D  85 10     STA $10 = $00                    A:00 X:FE Y:00 P:07 S:FD PPU:82 ,55  9338
C61F  A9 00     LDA #$00                         A:00 X:FE Y:00 P:07 S:FD PPU:82 ,64  9341
C621  85 00     STA $00 = $00                    A:00 X:FE Y:00 P:07 S:FD PPU:82 ,70  9343
C623  20 E0 DA  JSR $DAE0                        A:00 X:FE Y:00 P:07 S:FD PPU:82 ,79  9346
DAE0  A9 00     LDA #$00                         A:00 X:FE Y:00 P:07 S:FB PPU:82 ,97  9352
DAE2  85 33     STA $33 = $00                    A:00 X:FE Y:00 P:07 S:FB PPU:82 ,103 9354
DAE4  A9 04     LDA #$04                         A:00 X:FE Y:00 P:07 S:FB PPU:82 ,112 9357
DAE6  85 34     STA $34 = $04                    A:04 X:FE Y:00 P:05 S:FB PPU:82 ,118 9359
DAE8  A0 00     LDY #$00                         A:04 X:FE Y:00 P:05 S:FB PPU:82 ,127 9362
DAEA  A2 01     LDX #$01                         A:04 X:FE Y:00 P:07 S:FB PPU:82 ,133 9364
DAEC  24 01     BIT $01 = $FF                    A:04 X:01 Y:00 P:05 S:FB PPU:82 ,139 9366
DAEE  A9 40     LDA #$40                         A:04 X:01 Y:00 P:C5 S:FB PPU:82 ,148 9369
DAF0  8D 00 04  STA $0400 = $7F                  A:40 X:01 Y:00 P:45 S:FB PPU:82 ,154 9371
DAF3  38        SEC                              A:40 X:01 Y:00 P:45 S:FB PPU:82 ,166 9375
DAF4  F1 33     SBC ($33),Y = $40                A:40 X:01 Y:00 P:45 S:FB PPU:82 ,172 9377
DAF6  30 0A     BMI $DB02                        A:00 X:01 Y:00 P:07 S:FB PPU:82 ,187 9382
DAF8  90 08     BCC $DB02                        A:00 X:01 Y:00 P:07 S:FB PPU:82 ,193 9384
DAFA  D0 06     BNE $DB02                        A:00 X:01 Y:00 P:07 S:FB PPU:82 ,199 9386
DAFC  70 04     BVS $DB02                        A:00 X:01 Y:00 P:07 S:FB PPU:82 ,205 9388
DAFE  C9 00     CMP #$00                         A:00 X:01 Y:00 P:07 S:FB PPU:82 ,211 9390
DB00  F0 02     BEQ $DB04                        A:00 X:01 Y:00 P:07 S:FB PPU:82 ,217 9392
DB04  E8        INX                              A:00 X:01 Y:00 P:07 S:FB PPU:82 ,226 9395
DB05  B8        CLV                              A:00 X:02 Y:00 P:05 S:FB PPU:82 ,232 9397
DB06  38        SEC                              A:00 X:02 Y:00 P:05 S:FB PPU:82 ,238 9399
DB07  A9 40     LDA #$40                         A:00 X:02 Y:00 P:05 S:FB PPU:82 ,244 9401
DB09  CE 00 04  DEC $0400 = $40                  A:40 X:02 Y:00 P:05 S:FB PPU:82 ,250 9403
DB0C  F1 33     SBC ($33),Y = $3F                A:40 X:02 Y:00 P:05 S:FB PPU:82 ,268 9409
DB0E  F0 0A     BEQ $DB1A                        A:01 X:02 Y:00 P:05 S:FB PPU:82 ,283 9414
DB10  30 08     BMI $DB1A                        A:01 X:02 Y:00 P:05 S:FB PPU:82 ,289 9416
DB12  90 06     BCC $DB1A                        A:01 X:02 Y:00 P:05 S:FB PPU:82 ,295 9418
DB14  70 04     BVS $DB1A                        A:01 X:02 Y:00 P:05 S:FB PPU:82 ,301 9420
DB16  C9 01     CMP #$01                         A:01 X:02 Y:00 P:05 S:FB PPU:82 ,307 9422
DB18  F0 02     BEQ $DB1C                        A:01 X:02 Y:00 P:07 S:FB PPU:82 ,313 9424
DB1C  E8        INX                              A:01 X:02 Y:00 P:07 S:FB PPU:82 ,322 9427
DB1D  A9 40     LDA #$40                         A:01 X:03 Y:00 P:05 S:FB PPU:82 ,328 9429
DB1F  38        SEC                              A:40 X:03 Y:00 P:05 S:FB PPU:82 ,334 9431
DB20  24 01     BIT $01 = $FF                    A:40 X:03 Y:00 P:05 S:FB PPU:82 ,340 9433
DB22  EE 00 04  INC $0400 = $3F                  A:40 X:03 Y:00 P:C5 S:FB PPU:83 ,8   9436
DB25  EE 00 04  INC $0400 = $40                  A:40 X:03 Y:00 P:45 S:FB PPU:83 ,26  9442
DB28  F1 33     SBC ($33),Y = $41                A:40 X:03 Y:00 P:45 S:FB PPU:83 ,44  9448
DB2A  B0 0A     BCS $DB36                        A:FF X:03 Y:00 P:84 S:FB PPU:83 ,59  9453
DB2C  F0 08     BEQ $DB36                        A:FF X:03 Y:00 P:84 S:FB PPU:83 ,65  9455
DB2E  10 06     BPL $DB36                        A:FF X:03 Y:00 P:84 S:FB PPU:83 ,71  9457
DB30  70 04     BVS $DB36                        A:FF X:03 Y:00 P:84 S:FB PPU:83 ,77  9459
DB32  C9 FF     CMP #$FF                         A:FF X:03 Y:00 P:84 S:FB PPU:83 ,83  9461
DB34  F0 02     BEQ $DB38                        A:FF X:03 Y:00 P:07 S:FB PPU:83 ,89  9463
DB38  E8        INX                              A:FF X:03 Y:00 P:07 S:FB PPU:83 ,98  9466
DB39  18        CLC                              A:FF X:04 Y:00 P:05 S:FB PPU:83 ,104 9468
DB3A  A9 00     LDA #$00                         A:FF X:04 Y:00 P:04 S:FB PPU:83 ,110 9470
DB3C  8D 00 04  STA $0400 = $41                  A:00 X:04 Y:00 P:06 S:FB PPU:83 ,116 9472
DB3F  A9 80     LDA #$80                         A:00 X:04 Y:00 P:06 S:FB PPU:83 ,128 9476
DB41  F1 33     SBC ($33),Y = $00                A:80 X:04 Y:00 P:84 S:FB PPU:83 ,134 9478
DB43  90 04     BCC $DB49                        A:7F X:04 Y:00 P:45 S:FB PPU:83 ,149 9483
DB45  C9 7F     CMP #$7F                         A:7F X:04 Y:00 P:45 S:FB PPU:83 ,155 9485
DB47  F0 02     BEQ $DB4B                        A:7F X:04 Y:00 P:47 S:FB PPU:83 ,161 9487
DB4B  E8        INX                              A:7F X:04 Y:00 P:47 S:FB PPU:83 ,170 9490
DB4C  38        SEC                              A:7F X:05 Y:00 P:45 S:FB PPU:83 ,176 9492
DB4D  A9 7F     LDA #$7F                         A:7F X:05 Y:00 P:45 S:FB PPU:83 ,182 9494
DB4F  8D 00 04  STA $0400 = $00                  A:7F X:05 Y:00 P:45 S:FB PPU:83 ,188 9496
DB52  A9 81     LDA #$81                         A:7F X:05 Y:00 P:45 S:FB PPU:83 ,200 9500
DB54  F1 33     SBC ($33),Y = $7F                A:81 X:05 Y:00 P:C5 S:FB PPU:83 ,206 9502
DB56  50 06     BVC $DB5E                        A:02 X:05 Y:00 P:45 S:FB PPU:83 ,221 9507
DB58  90 04     BCC $DB5E                        A:02 X:05 Y:00 P:45 S:FB PPU:83 ,227 9509
DB5A  C9 02     CMP #$02                         A:02 X:05 Y:00 P:45 S:FB PPU:83 ,233 9511
DB5C  F0 02     BEQ $DB60                        A:02 X:05 Y:00 P:47 S:FB PPU:83 ,239 9513
DB60  E8        INX                              A:02 X:05 Y:00 P:47 S:FB PPU:83 ,248 9516
DB61  A9 00     LDA #$00                         A:02 X:06 Y:00 P:45 S:FB PPU:83 ,254 9518
DB63  A9 87     LDA #$87                         A:00 X:06 Y:00 P:47 S:FB PPU:83 ,260 9520
DB65  91 33     STA ($33),Y = $7F                A:87 X:06 Y:00 P:C5 S:FB PPU:83 ,266 9522
DB67  AD 00 04  LDA $0400 = $87                  A:87 X:06 Y:00 P:C5 S:FB PPU:83 ,284 9528
DB6A  C9 87     CMP #$87                         A:87 X:06 Y:00 P:C5 S:FB PPU:83 ,296 9532
DB6C  F0 02     BEQ $DB70                        A:87 X:06 Y:00 P:47 S:FB PPU:83 ,302 9534
DB70  E8        INX                              A:87 X:06 Y:00 P:47 S:FB PPU:83 ,311 9537
DB71  A9 7E     LDA #$7E                         A:87 X:07 Y:00 P:45 S:FB PPU:83 ,317 9539
DB73  8D 00 02  STA $0200 = $7F                  A:7E X:07 Y:00 P:45 S:FB PPU:83 ,323 9541
DB76  A9 DB     LDA #$DB                         A:7E X:07 Y:00 P:45 S:FB PPU:83 ,335 9545
DB78  8D 01 02  STA $0201 = $00                  A:DB X:07 Y:00 P:C5 S:FB PPU:84 ,0   9547
DB7B  6C 00 02  JMP ($0200) = $A9                A:DB X:07 Y:00 P:C5 S:FB PPU:84 ,12  9551
DB7E  A9 00     LDA #$00                         A:DB X:07 Y:00 P:C5 S:FB PPU:84 ,27  9556
DB80  8D FF 02  STA $02FF = $00                  A:00 X:07 Y:00 P:47 S:FB PPU:84 ,33  9558
DB83  A9 01     LDA #$01                         A:00 X:07 Y:00 P:47 S:FB PPU:84 ,45  9562
DB85  8D 00 03  STA $0300 = $89                  A:01 X:07 Y:00 P:45 S:FB PPU:84 ,51  9564
DB88  A9 03     LDA #$03                         A:01 X:07 Y:00 P:45 S:FB PPU:84 ,63  9568
DB8A  8D 00 02  STA $0200 = $7E                  A:03 X:07 Y:00 P:45 S:FB PPU:84 ,69  9570
DB8D  A9 A9     LDA #$A9                         A:03 X:07 Y:00 P:45 S:FB PPU:84 ,81  9574
DB8F  8D 00 01  STA $0100 = $00                  A:A9 X:07 Y:00 P:C5 S:FB PPU:84 ,87  9576
DB92  A9 55     LDA #$55                         A:A9 X:07 Y:00 P:C5 S:FB PPU:84 ,99  9580
DB94  8D 01 01  STA $0101 = $00                  A:55 X:07 Y:00 P:45 S:FB PPU:84 ,105 9582
DB97  A9 60     LDA #$60                         A:55 X:07 Y:00 P:45 S:FB PPU:84 ,117 9586
DB99  8D 02 01  STA $0102 = $00                  A:60 X:07 Y:00 P:45 S:FB PPU:84 ,123 9588
DB9C  A9 A9     LDA #$A9                         A:60 X:07 Y:00 P:45 S:FB PPU:84 ,135 9592
DB9E  8D 00 03  STA $0300 = $01                  A:A9 X:07 Y:00 P:C5 S:FB PPU:84 ,141 9594
DBA1  A9 AA     LDA #$AA                         A:A9 X:07 Y:00 P:C5 S:FB PPU:84 ,153 9598
DBA3  8D 01 03  STA $0301 = $00                  A:AA X:07 Y:00 P:C5 S:FB PPU:84 ,159 9600
DBA6  A9 60     LDA #$60                         A:AA X:07 Y:00 P:C5 S:FB PPU:84 ,171 9604
DBA8  8D 02 03  STA $0302 = $00                  A:60 X:07 Y:00 P:45 S:FB PPU:84 ,177 9606
DBAB  20 B5 DB  JSR $DBB5                        A:60 X:07 Y:00 P:45 S:FB PPU:84 ,189 9610
DBB5  6C FF 02  JMP ($02FF) = $A9                A:60 X:07 Y:00 P:45 S:F9 PPU:84 ,207 9616
0300  A9 AA     LDA #$AA                         A:60 X:07 Y:00 P:45 S:F9 PPU:84 ,222 9621
0302  60        RTS                              A:AA X:07 Y:00 P:C5 S:F9 PPU:84 ,228 9623
DBAE  C9 AA     CMP #$AA                         A:AA X:07 Y:00 P:C5 S:FB PPU:84 ,246 9629
DBB0  F0 02     BEQ $DBB4                        A:AA X:07 Y:00 P:47 S:FB PPU:84 ,252 9631
DBB4  60        RTS                              A:AA X:07 Y:00 P:47 S:FB PPU:84 ,261 9634
C626  20 4A DF  JSR $DF4A                        A:AA X:07 Y:00 P:47 S:FD PPU:84 ,279 9640
DF4A  A9 89     LDA #$89                         A:AA X:07 Y:00 P:47 S:FB PPU:84 ,297 9646
DF4C  8D 00 03  STA $0300 = $A9                  A:89 X:07 Y:00 P:C5 S:FB PPU:84 ,303 9648
DF4F  A9 A3     LDA #$A3                         A:89 X:07 Y:00 P:C5 S:FB PPU:84 ,315 9652
DF51  85 33     STA $33 = $00                    A:A3 X:07 Y:00 P:C5 S:FB PPU:84 ,321 9654
DF53  A9 12     LDA #$12                         A:A3 X:07 Y:00 P:C5 S:FB PPU:84 ,330 9657
DF55  8D 45 02  STA $0245 = $12                  A:12 X:07 Y:00 P:45 S:FB PPU:84 ,336 9659
DF58  A2 65     LDX #$65                         A:12 X:07 Y:00 P:45 S:FB PPU:85 ,7   9663
DF5A  A0 00     LDY #$00                         A:12 X:65 Y:00 P:45 S:FB PPU:85 ,13  9665
DF5C  38        SEC                              A:12 X:65 Y:00 P:47 S:FB PPU:85 ,19  9667
DF5D  A9 00     LDA #$00                         A:12 X:65 Y:00 P:47 S:FB PPU:85 ,25  9669
DF5F  B8        CLV                              A:00 X:65 Y:00 P:47 S:FB PPU:85 ,31  9671
DF60  B9 00 03  LDA $0300,Y = $89                A:00 X:65 Y:00 P:07 S:FB PPU:85 ,37  9673
DF63  F0 0C     BEQ $DF71                        A:89 X:65 Y:00 P:85 S:FB PPU:85 ,49  9677
DF65  90 0A     BCC $DF71                        A:89 X:65 Y:00 P:85 S:FB PPU:85 ,55  9679
DF67  70 08     BVS $DF71                        A:89 X:65 Y:00 P:85 S:FB PPU:85 ,61  9681
DF69  C9 89     CMP #$89                         A:89 X:65 Y:00 P:85 S:FB PPU:85 ,67  9683
DF6B  D0 04     BNE $DF71                        A:89 X:65 Y:00 P:07 S:FB PPU:85 ,73  9685
DF6D  E0 65     CPX #$65                         A:89 X:65 Y:00 P:07 S:FB PPU:85 ,79  9687
DF6F  F0 04     BEQ $DF75                        A:89 X:65 Y:00 P:07 S:FB PPU:85 ,85  9689
DF75  A9 FF     LDA #$FF                         A:89 X:65 Y:00 P:07 S:FB PPU:85 ,94  9692
DF77  85 01     STA $01 = $FF                    A:FF X:65 Y:00 P:85 S:FB PPU:85 ,100 9694
DF79  24 01     BIT $01 = $FF                    A:FF X:65 Y:00 P:85 S:FB PPU:85 ,109 9697
DF7B  A0 34     LDY #$34                         A:FF X:65 Y:00 P:C5 S:FB PPU:85 ,118 9700
DF7D  B9 FF FF  LDA $FFFF,Y = $A3                A:FF X:65 Y:34 P:45 S:FB PPU:85 ,124 9702
DF80  C9 A3     CMP #$A3                         A:A3 X:65 Y:34 P:C5 S:FB PPU:85 ,139 9707
DF82  D0 02     BNE $DF86                        A:A3 X:65 Y:34 P:47 S:FB PPU:85 ,145 9709
DF84  B0 04     BCS $DF8A                        A:A3 X:65 Y:34 P:47 S:FB PPU:85 ,151 9711
DF8A  A9 46     LDA #$46                         A:A3 X:65 Y:34 P:47 S:FB PPU:85 ,160 9714
DF8C  85 FF     STA $FF = $46                    A:46 X:65 Y:34 P:45 S:FB PPU:85 ,166 9716
DF8E  A0 FF     LDY #$FF                         A:46 X:65 Y:34 P:45 S:FB PPU:85 ,175 9719
DF90  B9 46 01  LDA $0146,Y = $12                A:46 X:65 Y:FF P:C5 S:FB PPU:85 ,181 9721
DF93  C9 12     CMP #$12                         A:12 X:65 Y:FF P:45 S:FB PPU:85 ,196 9726
DF95  F0 04     BEQ $DF9B                        A:12 X:65 Y:FF P:47 S:FB PPU:85 ,202 9728
DF9B  A2 39     LDX #$39                         A:12 X:65 Y:FF P:47 S:FB PPU:85 ,211 9731
DF9D  18        CLC                              A:12 X:39 Y:FF P:45 S:FB PPU:85 ,217 9733
DF9E  A9 FF     LDA #$FF                         A:12 X:39 Y:FF P:44 S:FB PPU:85 ,223 9735
DFA0  85 01     STA $01 = $FF                    A:FF X:39 Y:FF P:C4 S:FB PPU:85 ,229 9737
DFA2  24 01     BIT $01 = $FF                    A:FF X:39 Y:FF P:C4 S:FB PPU:85 ,238 9740
DFA4  A9 AA     LDA #$AA                         A:FF X:39 Y:FF P:C4 S:FB PPU:85 ,247 9743
DFA6  8D 00 04  STA $0400 = $87                  A:AA X:39 Y:FF P:C4 S:FB PPU:85 ,253 9745
DFA9  A9 55     LDA #$55                         A:AA X:39 Y:FF P:C4 S:FB PPU:85 ,265 9749
DFAB  A0 00     LDY #$00                         A:55 X:39 Y:FF P:44 S:FB PPU:85 ,271 9751
DFAD  19 00 04  ORA $0400,Y = $AA                A:55 X:39 Y:00 P:46 S:FB PPU:85 ,277 9753
DFB0  B0 08     BCS $DFBA                        A:FF X:39 Y:00 P:C4 S:FB PPU:85 ,289 9757
DFB2  10 06     BPL $DFBA                        A:FF X:39 Y:00 P:C4 S:FB PPU:85 ,295 9759
DFB4  C9 FF     CMP #$FF                         A:FF X:39 Y:00 P:C4 S:FB PPU:85 ,301 9761
DFB6  D0 02     BNE $DFBA                        A:FF X:39 Y:00 P:47 S:FB PPU:85 ,307 9763
DFB8  70 02     BVS $DFBC                        A:FF X:39 Y:00 P:47 S:FB PPU:85 ,313 9765
DFBC  E8        INX                              A:FF X:39 Y:00 P:47 S:FB PPU:85 ,322 9768
DFBD  38        SEC                              A:FF X:3A Y:00 P:45 S:FB PPU:85 ,328 9770
DFBE  B8        CLV                              A:FF X:3A Y:00 P:45 S:FB PPU:85 ,334 9772
DFBF  A9 00     LDA #$00                         A:FF X:3A Y:00 P:05 S:FB PPU:85 ,340 9774
DFC1  19 00 04  ORA $0400,Y = $AA                A:00 X:3A Y:00 P:07 S:FB PPU:86 ,5   9776
DFC4  F0 06     BEQ $DFCC                        A:AA X:3A Y:00 P:85 S:FB PPU:86 ,17  9780
DFC6  70 04     BVS $DFCC                        A:AA X:3A Y:00 P:85 S:FB PPU:86 ,23  9782
DFC8  90 02     BCC $DFCC                        A:AA X:3A Y:00 P:85 S:FB PPU:86 ,29  9784
DFCA  30 02     BMI $DFCE                        A:AA X:3A Y:00 P:85 S:FB PPU:86 ,35  9786
DFCE  E8        INX                              A:AA X:3A Y:00 P:85 S:FB PPU:86 ,44  9789
DFCF  18        CLC                              A:AA X:3B Y:00 P:05 S:FB PPU:86 ,50  9791
DFD0  24 01     BIT $01 = $FF                    A:AA X:3B Y:00 P:04 S:FB PPU:86 ,56  9793
DFD2  A9 55     LDA #$55                         A:AA X:3B Y:00 P:C4 S:FB PPU:86 ,65  9796
DFD4  39 00 04  AND $0400,Y = $AA                A:55 X:3B Y:00 P:44 S:FB PPU:86 ,71  9798
DFD7  D0 06     BNE $DFDF                        A:00 X:3B Y:00 P:46 S:FB PPU:86 ,83  9802
DFD9  50 04     BVC $DFDF                        A:00 X:3B Y:00 P:46 S:FB PPU:86 ,89  9804
DFDB  B0 02     BCS $DFDF                        A:00 X:3B Y:00 P:46 S:FB PPU:86 ,95  9806
DFDD  10 02     BPL $DFE1                        A:00 X:3B Y:00 P:46 S:FB PPU:86 ,101 9808
DFE1  E8        INX                              A:00 X:3B Y:00 P:46 S:FB PPU:86 ,110 9811
DFE2  38        SEC                              A:00 X:3C Y:00 P:44 S:FB PPU:86 ,116 9813
DFE3  B8        CLV                              A:00 X:3C Y:00 P:45 S:FB PPU:86 ,122 9815
DFE4  A9 EF     LDA #$EF                         A:00 X:3C Y:00 P:05 S:FB PPU:86 ,128 9817
DFE6  8D 00 04  STA $0400 = $AA                  A:EF X:3C Y:00 P:85 S:FB PPU:86 ,134 9819
DFE9  A9 F8     LDA #$F8                         A:EF X:3C Y:00 P:85 S:FB PPU:86 ,146 9823
DFEB  39 00 04  AND $0400,Y = $EF                A:F8 X:3C Y:00 P:85 S:FB PPU:86 ,152 9825
DFEE  90 08     BCC $DFF8                        A:E8 X:3C Y:00 P:85 S:FB PPU:86 ,164 9829
DFF0  10 06     BPL $DFF8                        A:E8 X:3C Y:00 P:85 S:FB PPU:86 ,170 9831
DFF2  C9 E8     CMP #$E8                         A:E8 X:3C Y:00 P:85 S:FB PPU:86 ,176 9833
DFF4  D0 02     BNE $DFF8                        A:E8 X:3C Y:00 P:07 S:FB PPU:86 ,182 9835
DFF6  50 02     BVC $DFFA                        A:E8 X:3C Y:00 P:07 S:FB PPU:86 ,188 9837
DFFA  E8        INX                              A:E8 X:3C Y:00 P:07 S:FB PPU:86 ,197 9840
DFFB  18        CLC                              A:E8 X:3D Y:00 P:05 S:FB PPU:86 ,203 9842
DFFC  24 01     BIT $01 = $FF                    A:E8 X:3D Y:00 P:04 S:FB PPU:86 ,209 9844
DFFE  A9 AA     LDA #$AA                         A:E8 X:3D Y:00 P:C4 S:FB PPU:86 ,218 9847
E000  8D 00 04  STA $0400 = $EF                  A:AA X:3D Y:00 P:C4 S:FB PPU:86 ,224 9849
E003  A9 5F     LDA #$5F                         A:AA X:3D Y:00 P:C4 S:FB PPU:86 ,236 9853
E005  59 00 04  EOR $0400,Y = $AA                A:5F X:3D Y:00 P:44 S:FB PPU:86 ,242 9855
E008  B0 08     BCS $E012                        A:F5 X:3D Y:00 P:C4 S:FB PPU:86 ,254 9859
E00A  10 06     BPL $E012                        A:F5 X:3D Y:00 P:C4 S:FB PPU:86 ,260 9861
E00C  C9 F5     CMP #$F5                         A:F5 X:3D Y:00 P:C4 S:FB PPU:86 ,266 9863
E00E  D0 02     BNE $E012                        A:F5 X:3D Y:00 P:47 S:FB PPU:86 ,272 9865
E010  70 02     BVS $E014                        A:F5 X:3D Y:00 P:47 S:FB PPU:86 ,278 9867
E014  E8        INX                              A:F5 X:3D Y:00 P:47 S:FB PPU:86 ,287 9870
E015  38        SEC                              A:F5 X:3E Y:00 P:45 S:FB PPU:86 ,293 9872
E016  B8        CLV                              A:F5 X:3E Y:00 P:45 S:FB PPU:86 ,299 9874
E017  A9 70     LDA #$70                         A:F5 X:3E Y:00 P:05 S:FB PPU:86 ,305 9876
E019  8D 00 04  STA $0400 = $AA                  A:70 X:3E Y:00 P:05 S:FB PPU:86 ,311 9878
E01C  59 00 04  EOR $0400,Y = $70                A:70 X:3E Y:00 P:05 S:FB PPU:86 ,323 9882
E01F  D0 06     BNE $E027                        A:00 X:3E Y:00 P:07 S:FB PPU:86 ,335 9886
E021  70 04     BVS $E027                        A:00 X:3E Y:00 P:07 S:FB PPU:87 ,0   9888
E023  90 02     BCC $E027                        A:00 X:3E Y:00 P:07 S:FB PPU:87 ,6   9890
E025  10 02     BPL $E029                        A:00 X:3E Y:00 P:07 S:FB PPU:87 ,12  9892
E029  E8        INX                              A:00 X:3E Y:00 P:07 S:FB PPU:87 ,21  9895
E02A  18        CLC                              A:00 X:3F Y:00 P:05 S:FB PPU:87 ,27  9897
E02B  24 01     BIT $01 = $FF                    A:00 X:3F Y:00 P:04 S:FB PPU:87 ,33  9899
E02D  A9 69     LDA #$69                         A:00 X:3F Y:00 P:C6 S:FB PPU:87 ,42  9902
E02F  8D 00 04  STA $0400 = $70                  A:69 X:3F Y:00 P:44 S:FB PPU:87 ,48  9904
E032  A9 00     LDA #$00                         A:69 X:3F Y:00 P:44 S:FB PPU:87 ,60  9908
E034  79 00 04  ADC $0400,Y = $69                A:00 X:3F Y:00 P:46 S:FB PPU:87 ,66  9910
E037  30 08     BMI $E041                        A:69 X:3F Y:00 P:04 S:FB PPU:87 ,78  9914
E039  B0 06     BCS $E041                        A:69 X:3F Y:00 P:04 S:FB PPU:87 ,84  9916
E03B  C9 69     CMP #$69                         A:69 X:3F Y:00 P:04 S:FB PPU:87 ,90  9918
E03D  D0 02     BNE $E041                        A:69 X:3F Y:00 P:07 S:FB PPU:87 ,96  9920
E03F  50 02     BVC $E043                        A:69 X:3F Y:00 P:07 S:FB PPU:87 ,102 9922
E043  E8        INX                              A:69 X:3F Y:00 P:07 S:FB PPU:87 ,111 9925
E044  38        SEC                              A:69 X:40 Y:00 P:05 S:FB PPU:87 ,117 9927
E045  24 01     BIT $01 = $FF                    A:69 X:40 Y:00 P:05 S:FB PPU:87 ,123 9929
E047  A9 00     LDA #$00                         A:69 X:40 Y:00 P:C5 S:FB PPU:87 ,132 9932
E049  79 00 04  ADC $0400,Y = $69                A:00 X:40 Y:00 P:47 S:FB PPU:87 ,138 9934
E04C  30 08     BMI $E056                        A:6A X:40 Y:00 P:04 S:FB PPU:87 ,150 9938
E04E  B0 06     BCS $E056                        A:6A X:40 Y:00 P:04 S:FB PPU:87 ,156 9940
E050  C9 6A     CMP #$6A                         A:6A X:40 Y:00 P:04 S:FB PPU:87 ,162 9942
E052  D0 02     BNE $E056                        A:6A X:40 Y:00 P:07 S:FB PPU:87 ,168 9944
E054  50 02     BVC $E058                        A:6A X:40 Y:00 P:07 S:FB PPU:87 ,174 9946
E058  E8        INX                              A:6A X:40 Y:00 P:07 S:FB PPU:87 ,183 9949
E059  38        SEC                              A:6A X:41 Y:00 P:05 S:FB PPU:87 ,189 9951
E05A  B8        CLV                              A:6A X:41 Y:00 P:05 S:FB PPU:87 ,195 9953
E05B  A9 7F     LDA #$7F                         A:6A X:41 Y:00 P:05 S:FB PPU:87 ,201 9955
E05D  8D 00 04  STA $0400 = $69                  A:7F X:41 Y:00 P:05 S:FB PPU:87 ,207 9957
E060  79 00 04  ADC $0400,Y = $7F                A:7F X:41 Y:00 P:05 S:FB PPU:87 ,219 9961
E063  10 08     BPL $E06D                        A:FF X:41 Y:00 P:C4 S:FB PPU:87 ,231 9965
E065  B0 06     BCS $E06D                        A:FF X:41 Y:00 P:C4 S:FB PPU:87 ,237 9967
E067  C9 FF     CMP #$FF                         A:FF X:41 Y:00 P:C4 S:FB PPU:87 ,243 9969
E069  D0 02     BNE $E06D                        A:FF X:41 Y:00 P:47 S:FB PPU:87 ,249 9971
E06B  70 02     BVS $E06F                        A:FF X:41 Y:00 P:47 S:FB PPU:87 ,255 9973
E06F  E8        INX                              A:FF X:41 Y:00 P:47 S:FB PPU:87 ,264 9976
E070  18        CLC                              A:FF X:42 Y:00 P:45 S:FB PPU:87 ,270 9978
E071  24 01     BIT $01 = $FF                    A:FF X:42 Y:00 P:44 S:FB PPU:87 ,276 9980
E073  A9 80     LDA #$80                         A:FF X:42 Y:00 P:C4 S:FB PPU:87 ,285 9983
E075  8D 00 04  STA $0400 = $7F                  A:80 X:42 Y:00 P:C4 S:FB PPU:87 ,291 9985
E078  A9 7F     LDA #$7F                         A:80 X:42 Y:00 P:C4 S:FB PPU:87 ,303 9989
E07A  79 00 04  ADC $0400,Y = $80                A:7F X:42 Y:00 P:44 S:FB PPU:87 ,309 9991
E07D  10 08     BPL $E087                        A:FF X:42 Y:00 P:84 S:FB PPU:87 ,321 9995
E07F  B0 06     BCS $E087                        A:FF X:42 Y:00 P:84 S:FB PPU:87 ,327 9997
E081  C9 FF     CMP #$FF                         A:FF X:42 Y:00 P:84 S:FB PPU:87 ,333 9999
E083  D0 02     BNE $E087                        A:FF X:42 Y:00 P:07 S:FB PPU:87 ,339 10001
E085  50 02     BVC $E089                        A:FF X:42 Y:00 P:07 S:FB PPU:88 ,4   10003
E089  E8        INX                              A:FF X:42 Y:00 P:07 S:FB PPU:88 ,13  10006
E08A  38        SEC                              A:FF X:43 Y:00 P:05 S:FB PPU:88 ,19  10008
E08B  B8        CLV                              A:FF X:43 Y:00 P:05 S:FB PPU:88 ,25  10010
E08C  A9 80     LDA #$80                         A:FF X:43 Y:00 P:05 S:FB PPU:88 ,31  10012
E08E  8D 00 04  STA $0400 = $80                  A:80 X:43 Y:00 P:85 S:FB PPU:88 ,37  10014
E091  A9 7F     LDA #$7F                         A:80 X:43 Y:00 P:85 S:FB PPU:88 ,49  10018
E093  79 00 04  ADC $0400,Y = $80                A:7F X:43 Y:00 P:05 S:FB PPU:88 ,55  10020
E096  D0 06     BNE $E09E                        A:00 X:43 Y:00 P:07 S:FB PPU:88 ,67  10024
E098  30 04     BMI $E09E                        A:00 X:43 Y:00 P:07 S:FB PPU:88 ,73  10026
E09A  70 02     BVS $E09E                        A:00 X:43 Y:00 P:07 S:FB PPU:88 ,79  10028
E09C  B0 02     BCS $E0A0                        A:00 X:43 Y:00 P:07 S:FB PPU:88 ,85  10030
E0A0  E8        INX                              A:00 X:43 Y:00 P:07 S:FB PPU:88 ,94  10033
E0A1  24 01     BIT $01 = $FF                    A:00 X:44 Y:00 P:05 S:FB PPU:88 ,100 10035
E0A3  A9 40     LDA #$40                         A:00 X:44 Y:00 P:C7 S:FB PPU:88 ,109 10038
E0A5  8D 00 04  STA $0400 = $80                  A:40 X:44 Y:00 P:45 S:FB PPU:88 ,115 10040
E0A8  D9 00 04  CMP $0400,Y = $40                A:40 X:44 Y:00 P:45 S:FB PPU:88 ,127 10044
E0AB  30 06     BMI $E0B3                        A:40 X:44 Y:00 P:47 S:FB PPU:88 ,139 10048
E0AD  90 04     BCC $E0B3                        A:40 X:44 Y:00 P:47 S:FB PPU:88 ,145 10050
E0AF  D0 02     BNE $E0B3                        A:40 X:44 Y:00 P:47 S:FB PPU:88 ,151 10052
E0B1  70 02     BVS $E0B5                        A:40 X:44 Y:00 P:47 S:FB PPU:88 ,157 10054
E0B5  E8        INX                              A:40 X:44 Y:00 P:47 S:FB PPU:88 ,166 10057
E0B6  B8        CLV                              A:40 X:45 Y:00 P:45 S:FB PPU:88 ,172 10059
E0B7  CE 00 04  DEC $0400 = $40                  A:40 X:45 Y:00 P:05 S:FB PPU:88 ,178 10061
E0BA  D9 00 04  CMP $0400,Y = $3F                A:40 X:45 Y:00 P:05 S:FB PPU:88 ,196 10067
E0BD  F0 06     BEQ $E0C5                        A:40 X:45 Y:00 P:05 S:FB PPU:88 ,208 10071
E0BF  30 04     BMI $E0C5                        A:40 X:45 Y:00 P:05 S:FB PPU:88 ,214 10073
E0C1  90 02     BCC $E0C5                        A:40 X:45 Y:00 P:05 S:FB PPU:88 ,220 10075
E0C3  50 02     BVC $E0C7                        A:40 X:45 Y:00 P:05 S:FB PPU:88 ,226 10077
E0C7  E8        INX                              A:40 X:45 Y:00 P:05 S:FB PPU:88 ,235 10080
E0C8  EE 00 04  INC $0400 = $3F                  A:40 X:46 Y:00 P:05 S:FB PPU:88 ,241 10082
E0CB  EE 00 04  INC $0400 = $40                  A:40 X:46 Y:00 P:05 S:FB PPU:88 ,259 10088
E0CE  D9 00 04  CMP $0400,Y = $41                A:40 X:46 Y:00 P:05 S:FB PPU:88 ,277 10094
E0D1  F0 02     BEQ $E0D5                        A:40 X:46 Y:00 P:84 S:FB PPU:88 ,289 10098
E0D3  30 02     BMI $E0D7                        A:40 X:46 Y:00 P:84 S:FB PPU:88 ,295 10100
E0D7  E8        INX                              A:40 X:46 Y:00 P:84 S:FB PPU:88 ,304 10103
E0D8  A9 00     LDA #$00                         A:40 X:47 Y:00 P:04 S:FB PPU:88 ,310 10105
E0DA  8D 00 04  STA $0400 = $41                  A:00 X:47 Y:00 P:06 S:FB PPU:88 ,316 10107
E0DD  A9 80     LDA #$80                         A:00 X:47 Y:00 P:06 S:FB PPU:88 ,328 10111
E0DF  D9 00 04  CMP $0400,Y = $00                A:80 X:47 Y:00 P:84 S:FB PPU:88 ,334 10113
E0E2  F0 04     BEQ $E0E8                        A:80 X:47 Y:00 P:85 S:FB PPU:89 ,5   10117
E0E4  10 02     BPL $E0E8                        A:80 X:47 Y:00 P:85 S:FB PPU:89 ,11  10119
E0E6  B0 02     BCS $E0EA                        A:80 X:47 Y:00 P:85 S:FB PPU:89 ,17  10121
E0EA  E8        INX                              A:80 X:47 Y:00 P:85 S:FB PPU:89 ,26  10124
E0EB  A0 80     LDY #$80                         A:80 X:48 Y:00 P:05 S:FB PPU:89 ,32  10126
E0ED  8C 00 04  STY $0400 = $00                  A:80 X:48 Y:80 P:85 S:FB PPU:89 ,38  10128
E0F0  A0 00     LDY #$00                         A:80 X:48 Y:80 P:85 S:FB PPU:89 ,50  10132
E0F2  D9 00 04  CMP $0400,Y = $80                A:80 X:48 Y:00 P:07 S:FB PPU:89 ,56  10134
E0F5  D0 04     BNE $E0FB                        A:80 X:48 Y:00 P:07 S:FB PPU:89 ,68  10138
E0F7  30 02     BMI $E0FB                        A:80 X:48 Y:00 P:07 S:FB PPU:89 ,74  10140
E0F9  B0 02     BCS $E0FD                        A:80 X:48 Y:00 P:07 S:FB PPU:89 ,80  10142
E0FD  E8        INX                              A:80 X:48 Y:00 P:07 S:FB PPU:89 ,89  10145
E0FE  EE 00 04  INC $0400 = $80                  A:80 X:49 Y:00 P:05 S:FB PPU:89 ,95  10147
E101  D9 00 04  CMP $0400,Y = $81                A:80 X:49 Y:00 P:85 S:FB PPU:89 ,113 10153
E104  B0 04     BCS $E10A                        A:80 X:49 Y:00 P:84 S:FB PPU:89 ,125 10157
E106  F0 02     BEQ $E10A                        A:80 X:49 Y:00 P:84 S:FB PPU:89 ,131 10159
E108  30 02     BMI $E10C                        A:80 X:49 Y:00 P:84 S:FB PPU:89 ,137 10161
E10C  E8        INX                              A:80 X:49 Y:00 P:84 S:FB PPU:89 ,146 10164
E10D  CE 00 04  DEC $0400 = $81                  A:80 X:4A Y:00 P:04 S:FB PPU:89 ,152 10166
E110  CE 00 04  DEC $0400 = $80                  A:80 X:4A Y:00 P:84 S:FB PPU:89 ,170 10172
E113  D9 00 04  CMP $0400,Y = $7F                A:80 X:4A Y:00 P:04 S:FB PPU:89 ,188 10178
E116  90 04     BCC $E11C                        A:80 X:4A Y:00 P:05 S:FB PPU:89 ,200 10182
E118  F0 02     BEQ $E11C                        A:80 X:4A Y:00 P:05 S:FB PPU:89 ,206 10184
E11A  10 02     BPL $E11E                        A:80 X:4A Y:00 P:05 S:FB PPU:89 ,212 10186
E11E  E8        INX                              A:80 X:4A Y:00 P:05 S:FB PPU:89 ,221 10189
E11F  24 01     BIT $01 = $FF                    A:80 X:4B Y:00 P:05 S:FB PPU:89 ,227 10191
E121  A9 40     LDA #$40                         A:80 X:4B Y:00 P:C5 S:FB PPU:89 ,236 10194
E123  8D 00 04  STA $0400 = $7F                  A:40 X:4B Y:00 P:45 S:FB PPU:89 ,242 10196
E126  38        SEC                              A:40 X:4B Y:00 P:45 S:FB PPU:89 ,254 10200
E127  F9 00 04  SBC $0400,Y = $40                A:40 X:4B Y:00 P:45 S:FB PPU:89 ,260 10202
E12A  30 0A     BMI $E136                        A:00 X:4B Y:00 P:07 S:FB PPU:89 ,272 10206
E12C  90 08     BCC $E136                        A:00 X:4B Y:00 P:07 S:FB PPU:89 ,278 10208
E12E  D0 06     BNE $E136                        A:00 X:4B Y:00 P:07 S:FB PPU:89 ,284 10210
E130  70 04     BVS $E136                        A:00 X:4B Y:00 P:07 S:FB PPU:89 ,290 10212
E132  C9 00     CMP #$00                         A:00 X:4B Y:00 P:07 S:FB PPU:89 ,296 10214
E134  F0 02     BEQ $E138                        A:00 X:4B Y:00 P:07 S:FB PPU:89 ,302 10216
E138  E8        INX                              A:00 X:4B Y:00 P:07 S:FB PPU:89 ,311 10219
E139  B8        CLV                              A:00 X:4C Y:00 P:05 S:FB PPU:89 ,317 10221
E13A  38        SEC                              A:00 X:4C Y:00 P:05 S:FB PPU:89 ,323 10223
E13B  A9 40     LDA #$40                         A:00 X:4C Y:00 P:05 S:FB PPU:89 ,329 10225
E13D  CE 00 04  DEC $0400 = $40                  A:40 X:4C Y:00 P:05 S:FB PPU:89 ,335 10227
E140  F9 00 04  SBC $0400,Y = $3F                A:40 X:4C Y:00 P:05 S:FB PPU:90 ,12  10233
E143  F0 0A     BEQ $E14F                        A:01 X:4C Y:00 P:05 S:FB PPU:90 ,24  10237
E145  30 08     BMI $E14F                        A:01 X:4C Y:00 P:05 S:FB PPU:90 ,30  10239
E147  90 06     BCC $E14F                        A:01 X:4C Y:00 P:05 S:FB PPU:90 ,36  10241
E149  70 04     BVS $E14F                        A:01 X:4C Y:00 P:05 S:FB PPU:90 ,42  10243
E14B  C9 01     CMP #$01                         A:01 X:4C Y:00 P:05 S:FB PPU:90 ,48  10245
E14D  F0 02     BEQ $E151                        A:01 X:4C Y:00 P:07 S:FB PPU:90 ,54  10247
E151  E8        INX                              A:01 X:4C Y:00 P:07 S:FB PPU:90 ,63  10250
E152  A9 40     LDA #$40                         A:01 X:4D Y:00 P:05 S:FB PPU:90 ,69  10252
E154  38        SEC                              A:40 X:4D Y:00 P:05 S:FB PPU:90 ,75  10254
E155  24 01     BIT $01 = $FF                    A:40 X:4D Y:00 P:05 S:FB PPU:90 ,81  10256
E157  EE 00 04  INC $0400 = $3F                  A:40 X:4D Y:00 P:C5 S:FB PPU:90 ,90  10259
E15A  EE 00 04  INC $0400 = $40                  A:40 X:4D Y:00 P:45 S:FB PPU:90 ,108 10265
E15D  F9 00 04  SBC $0400,Y = $41                A:40 X:4D Y:00 P:45 S:FB PPU:90 ,126 10271
E160  B0 0A     BCS $E16C                        A:FF X:4D Y:00 P:84 S:FB PPU:90 ,138 10275
E162  F0 08     BEQ $E16C                        A:FF X:4D Y:00 P:84 S:FB PPU:90 ,144 10277
E164  10 06     BPL $E16C                        A:FF X:4D Y:00 P:84 S:FB PPU:90 ,150 10279
E166  70 04     BVS $E16C                        A:FF X:4D Y:00 P:84 S:FB PPU:90 ,156 10281
E168  C9 FF     CMP #$FF                         A:FF X:4D Y:00 P:84 S:FB PPU:90 ,162 10283
E16A  F0 02     BEQ $E16E                        A:FF X:4D Y:00 P:07 S:FB PPU:90 ,168 10285
E16E  E8        INX                              A:FF X:4D Y:00 P:07 S:FB PPU:90 ,177 10288
E16F  18        CLC                              A:FF X:4E Y:00 P:05 S:FB PPU:90 ,183 10290
E170  A9 00     LDA #$00                         A:FF X:4E Y:00 P:04 S:FB PPU:90 ,189 10292
E172  8D 00 04  STA $0400 = $41                  A:00 X:4E Y:00 P:06 S:FB PPU:90 ,195 10294
E175  A9 80     LDA #$80                         A:00 X:4E Y:00 P:06 S:FB PPU:90 ,207 10298
E177  F9 00 04  SBC $0400,Y = $00                A:80 X:4E Y:00 P:84 S:FB PPU:90 ,213 10300
E17A  90 04     BCC $E180                        A:7F X:4E Y:00 P:45 S:FB PPU:90 ,225 10304
E17C  C9 7F     CMP #$7F                         A:7F X:4E Y:00 P:45 S:FB PPU:90 ,231 10306
E17E  F0 02     BEQ $E182                        A:7F X:4E Y:00 P:47 S:FB PPU:90 ,237 10308
E182  E8        INX                              A:7F X:4E Y:00 P:47 S:FB PPU:90 ,246 10311
E183  38        SEC                              A:7F X:4F Y:00 P:45 S:FB PPU:90 ,252 10313
E184  A9 7F     LDA #$7F                         A:7F X:4F Y:00 P:45 S:FB PPU:90 ,258 10315
E186  8D 00 04  STA $0400 = $00                  A:7F X:4F Y:00 P:45 S:FB PPU:90 ,264 10317
E189  A9 81     LDA #$81                         A:7F X:4F Y:00 P:45 S:FB PPU:90 ,276 10321
E18B  F9 00 04  SBC $0400,Y = $7F                A:81 X:4F Y:00 P:C5 S:FB PPU:90 ,282 10323
E18E  50 06     BVC $E196                        A:02 X:4F Y:00 P:45 S:FB PPU:90 ,294 10327
E190  90 04     BCC $E196                        A:02 X:4F Y:00 P:45 S:FB PPU:90 ,300 10329
E192  C9 02     CMP #$02                         A:02 X:4F Y:00 P:45 S:FB PPU:90 ,306 10331
E194  F0 02     BEQ $E198                        A:02 X:4F Y:00 P:47 S:FB PPU:90 ,312 10333
E198  E8        INX                              A:02 X:4F Y:00 P:47 S:FB PPU:90 ,321 10336
E199  A9 00     LDA #$00                         A:02 X:50 Y:00 P:45 S:FB PPU:90 ,327 10338
E19B  A9 87     LDA #$87                         A:00 X:50 Y:00 P:47 S:FB PPU:90 ,333 10340
E19D  99 00 04  STA $0400,Y = $7F                A:87 X:50 Y:00 P:C5 S:FB PPU:90 ,339 10342
E1A0  AD 00 04  LDA $0400 = $87                  A:87 X:50 Y:00 P:C5 S:FB PPU:91 ,13  10347
E1A3  C9 87     CMP #$87                         A:87 X:50 Y:00 P:C5 S:FB PPU:91 ,25  10351
E1A5  F0 02     BEQ $E1A9                        A:87 X:50 Y:00 P:47 S:FB PPU:91 ,31  10353
E1A9  60        RTS                              A:87 X:50 Y:00 P:47 S:FB PPU:91 ,40  10356
C629  20 B8 DB  JSR $DBB8                        A:87 X:50 Y:00 P:47 S:FD PPU:91 ,58  10362
DBB8  A9 FF     LDA #$FF                         A:87 X:50 Y:00 P:47 S:FB PPU:91 ,76  10368
DBBA  85 01     STA $01 = $FF                    A:FF X:50 Y:00 P:C5 S:FB PPU:91 ,82  10370
DBBC  A9 AA     LDA #$AA                         A:FF X:50 Y:00 P:C5 S:FB PPU:91 ,91  10373
DBBE  85 33     STA $33 = $A3                    A:AA X:50 Y:00 P:C5 S:FB PPU:91 ,97  10375
DBC0  A9 BB     LDA #$BB                         A:AA X:50 Y:00 P:C5 S:FB PPU:91 ,106 10378
DBC2  85 89     STA $89 = $00                    A:BB X:50 Y:00 P:C5 S:FB PPU:91 ,112 10380
DBC4  A2 00     LDX #$00                         A:BB X:50 Y:00 P:C5 S:FB PPU:91 ,121 10383
DBC6  A9 66     LDA #$66                         A:BB X:00 Y:00 P:47 S:FB PPU:91 ,127 10385
DBC8  24 01     BIT $01 = $FF                    A:66 X:00 Y:00 P:45 S:FB PPU:91 ,133 10387
DBCA  38        SEC                              A:66 X:00 Y:00 P:C5 S:FB PPU:91 ,142 10390
DBCB  A0 00     LDY #$00                         A:66 X:00 Y:00 P:C5 S:FB PPU:91 ,148 10392
DBCD  B4 33     LDY $33,X = $AA                  A:66 X:00 Y:00 P:47 S:FB PPU:91 ,154 10394
DBCF  10 12     BPL $DBE3                        A:66 X:00 Y:AA P:C5 S:FB PPU:91 ,166 10398
DBD1  F0 10     BEQ $DBE3                        A:66 X:00 Y:AA P:C5 S:FB PPU:91 ,172 10400
DBD3  50 0E     BVC $DBE3                        A:66 X:00 Y:AA P:C5 S:FB PPU:91 ,178 10402
DBD5  90 0C     BCC $DBE3                        A:66 X:00 Y:AA P:C5 S:FB PPU:91 ,184 10404
DBD7  C9 66     CMP #$66                         A:66 X:00 Y:AA P:C5 S:FB PPU:91 ,190 10406
DBD9  D0 08     BNE $DBE3                        A:66 X:00 Y:AA P:47 S:FB PPU:91 ,196 10408
DBDB  E0 00     CPX #$00                         A:66 X:00 Y:AA P:47 S:FB PPU:91 ,202 10410
DBDD  D0 04     BNE $DBE3                        A:66 X:00 Y:AA P:47 S:FB PPU:91 ,208 10412
DBDF  C0 AA     CPY #$AA                         A:66 X:00 Y:AA P:47 S:FB PPU:91 ,214 10414
DBE1  F0 04     BEQ $DBE7                        A:66 X:00 Y:AA P:47 S:FB PPU:91 ,220 10416
DBE7  A2 8A     LDX #$8A                         A:66 X:00 Y:AA P:47 S:FB PPU:91 ,229 10419
DBE9  A9 66     LDA #$66                         A:66 X:8A Y:AA P:C5 S:FB PPU:91 ,235 10421
DBEB  B8        CLV                              A:66 X:8A Y:AA P:45 S:FB PPU:91 ,241 10423
DBEC  18        CLC                              A:66 X:8A Y:AA P:05 S:FB PPU:91 ,247 10425
DBED  A0 00     LDY #$00                         A:66 X:8A Y:AA P:04 S:FB PPU:91 ,253 10427
DBEF  B4 FF     LDY $FF,X = $BB                  A:66 X:8A Y:00 P:06 S:FB PPU:91 ,259 10429
DBF1  10 12     BPL $DC05                        A:66 X:8A Y:BB P:84 S:FB PPU:91 ,271 10433
DBF3  F0 10     BEQ $DC05                        A:66 X:8A Y:BB P:84 S:FB PPU:91 ,277 10435
DBF5  70 0E     BVS $DC05                        A:66 X:8A Y:BB P:84 S:FB PPU:91 ,283 10437
DBF7  B0 0C     BCS $DC05                        A:66 X:8A Y:BB P:84 S:FB PPU:91 ,289 10439
DBF9  C0 BB     CPY #$BB                         A:66 X:8A Y:BB P:84 S:FB PPU:91 ,295 10441
DBFB  D0 08     BNE $DC05                        A:66 X:8A Y:BB P:07 S:FB PPU:91 ,301 10443
DBFD  C9 66     CMP #$66                         A:66 X:8A Y:BB P:07 S:FB PPU:91 ,307 10445
DBFF  D0 04     BNE $DC05                        A:66 X:8A Y:BB P:07 S:FB PPU:91 ,313 10447
DC01  E0 8A     CPX #$8A                         A:66 X:8A Y:BB P:07 S:FB PPU:91 ,319 10449
DC03  F0 04     BEQ $DC09                        A:66 X:8A Y:BB P:07 S:FB PPU:91 ,325 10451
DC09  24 01     BIT $01 = $FF                    A:66 X:8A Y:BB P:07 S:FB PPU:91 ,334 10454
DC0B  38        SEC                              A:66 X:8A Y:BB P:C5 S:FB PPU:92 ,2   10457
DC0C  A0 44     LDY #$44                         A:66 X:8A Y:BB P:C5 S:FB PPU:92 ,8   10459
DC0E  A2 00     LDX #$00                         A:66 X:8A Y:44 P:45 S:FB PPU:92 ,14  10461
DC10  94 33     STY $33,X = $AA                  A:66 X:00 Y:44 P:47 S:FB PPU:92 ,20  10463
DC12  A5 33     LDA $33 = $44                    A:66 X:00 Y:44 P:47 S:FB PPU:92 ,32  10467
DC14  90 18     BCC $DC2E                        A:44 X:00 Y:44 P:45 S:FB PPU:92 ,41  10470
DC16  C9 44     CMP #$44                         A:44 X:00 Y:44 P:45 S:FB PPU:92 ,47  10472
DC18  D0 14     BNE $DC2E                        A:44 X:00 Y:44 P:47 S:FB PPU:92 ,53  10474
DC1A  50 12     BVC $DC2E                        A:44 X:00 Y:44 P:47 S:FB PPU:92 ,59  10476
DC1C  18        CLC                              A:44 X:00 Y:44 P:47 S:FB PPU:92 ,65  10478
DC1D  B8        CLV                              A:44 X:00 Y:44 P:46 S:FB PPU:92 ,71  10480
DC1E  A0 99     LDY #$99                         A:44 X:00 Y:44 P:06 S:FB PPU:92 ,77  10482
DC20  A2 80     LDX #$80                         A:44 X:00 Y:99 P:84 S:FB PPU:92 ,83  10484
DC22  94 85     STY $85,X = $00                  A:44 X:80 Y:99 P:84 S:FB PPU:92 ,89  10486
DC24  A5 05     LDA $05 = $99                    A:44 X:80 Y:99 P:84 S:FB PPU:92 ,101 10490
DC26  B0 06     BCS $DC2E                        A:99 X:80 Y:99 P:84 S:FB PPU:92 ,110 10493
DC28  C9 99     CMP #$99                         A:99 X:80 Y:99 P:84 S:FB PPU:92 ,116 10495
DC2A  D0 02     BNE $DC2E                        A:99 X:80 Y:99 P:07 S:FB PPU:92 ,122 10497
DC2C  50 04     BVC $DC32                        A:99 X:80 Y:99 P:07 S:FB PPU:92 ,128 10499
DC32  A0 0B     LDY #$0B                         A:99 X:80 Y:99 P:07 S:FB PPU:92 ,137 10502
DC34  A9 AA     LDA #$AA                         A:99 X:80 Y:0B P:05 S:FB PPU:92 ,143 10504
DC36  A2 78     LDX #$78                         A:AA X:80 Y:0B P:85 S:FB PPU:92 ,149 10506
DC38  85 78     STA $78 = $00                    A:AA X:78 Y:0B P:05 S:FB PPU:92 ,155 10508
DC3A  20 B6 F7  JSR $F7B6                        A:AA X:78 Y:0B P:05 S:FB PPU:92 ,164 10511
F7B6  18        CLC                              A:AA X:78 Y:0B P:05 S:F9 PPU:92 ,182 10517
F7B7  A9 FF     LDA #$FF                         A:AA X:78 Y:0B P:04 S:F9 PPU:92 ,188 10519
F7B9  85 01     STA $01 = $FF                    A:FF X:78 Y:0B P:84 S:F9 PPU:92 ,194 10521
F7BB  24 01     BIT $01 = $FF                    A:FF X:78 Y:0B P:84 S:F9 PPU:92 ,203 10524
F7BD  A9 55     LDA #$55                         A:FF X:78 Y:0B P:C4 S:F9 PPU:92 ,212 10527
F7BF  60        RTS                              A:55 X:78 Y:0B P:44 S:F9 PPU:92 ,218 10529
DC3D  15 00     ORA $00,X = $AA                  A:55 X:78 Y:0B P:44 S:FB PPU:92 ,236 10535
DC3F  20 C0 F7  JSR $F7C0                        A:FF X:78 Y:0B P:C4 S:FB PPU:92 ,248 10539
F7C0  B0 09     BCS $F7CB                        A:FF X:78 Y:0B P:C4 S:F9 PPU:92 ,266 10545
F7C2  10 07     BPL $F7CB                        A:FF X:78 Y:0B P:C4 S:F9 PPU:92 ,272 10547
F7C4  C9 FF     CMP #$FF                         A:FF X:78 Y:0B P:C4 S:F9 PPU:92 ,278 10549
F7C6  D0 03     BNE $F7CB                        A:FF X:78 Y:0B P:47 S:F9 PPU:92 ,284 10551
F7C8  50 01     BVC $F7CB                        A:FF X:78 Y:0B P:47 S:F9 PPU:92 ,290 10553
F7CA  60        RTS                              A:FF X:78 Y:0B P:47 S:F9 PPU:92 ,296 10555
DC42  C8        INY                              A:FF X:78 Y:0B P:47 S:FB PPU:92 ,314 10561
DC43  A9 00     LDA #$00                         A:FF X:78 Y:0C P:45 S:FB PPU:92 ,320 10563
DC45  85 78     STA $78 = $AA                    A:00 X:78 Y:0C P:47 S:FB PPU:92 ,326 10565
DC47  20 CE F7  JSR $F7CE                        A:00 X:78 Y:0C P:47 S:FB PPU:92 ,335 10568
F7CE  38        SEC                              A:00 X:78 Y:0C P:47 S:F9 PPU:93 ,12  10574
F7CF  B8        CLV                              A:00 X:78 Y:0C P:47 S:F9 PPU:93 ,18  10576
F7D0  A9 00     LDA #$00                         A:00 X:78 Y:0C P:07 S:F9 PPU:93 ,24  10578
F7D2  60        RTS                              A:00 X:78 Y:0C P:07 S:F9 PPU:93 ,30  10580
DC4A  15 00     ORA $00,X = $00                  A:00 X:78 Y:0C P:07 S:FB PPU:93 ,48  10586
DC4C  20 D3 F7  JSR $F7D3                        A:00 X:78 Y:0C P:07 S:FB PPU:93 ,60  10590
F7D3  D0 07     BNE $F7DC                        A:00 X:78 Y:0C P:07 S:F9 PPU:93 ,78  10596
F7D5  70 05     BVS $F7DC                        A:00 X:78 Y:0C P:07 S:F9 PPU:93 ,84  10598
F7D7  90 03     BCC $F7DC                        A:00 X:78 Y:0C P:07 S:F9 PPU:93 ,90  10600
F7D9  30 01     BMI $F7DC                        A:00 X:78 Y:0C P:07 S:F9 PPU:93 ,96  10602
F7DB  60        RTS                              A:00 X:78 Y:0C P:07 S:F9 PPU:93 ,102 10604
DC4F  C8        INY                              A:00 X:78 Y:0C P:07 S:FB PPU:93 ,120 10610
DC50  A9 AA     LDA #$AA                         A:00 X:78 Y:0D P:05 S:FB PPU:93 ,126 10612
DC52  85 78     STA $78 = $00                    A:AA X:78 Y:0D P:85 S:FB PPU:93 ,132 10614
DC54  20 DF F7  JSR $F7DF                        A:AA X:78 Y:0D P:85 S:FB PPU:93 ,141 10617
F7DF  18        CLC                              A:AA X:78 Y:0D P:85 S:F9 PPU:93 ,159 10623
F7E0  24 01     BIT $01 = $FF                    A:AA X:78 Y:0D P:84 S:F9 PPU:93 ,165 10625
F7E2  A9 55     LDA #$55                         A:AA X:78 Y:0D P:C4 S:F9 PPU:93 ,174 10628
F7E4  60        RTS                              A:55 X:78 Y:0D P:44 S:F9 PPU:93 ,180 10630
DC57  35 00     AND $00,X = $AA                  A:55 X:78 Y:0D P:44 S:FB PPU:93 ,198 10636
DC59  20 E5 F7  JSR $F7E5                        A:00 X:78 Y:0D P:46 S:FB PPU:93 ,210 10640
F7E5  D0 07     BNE $F7EE                        A:00 X:78 Y:0D P:46 S:F9 PPU:93 ,228 10646
F7E7  50 05     BVC $F7EE                        A:00 X:78 Y:0D P:46 S:F9 PPU:93 ,234 10648
F7E9  B0 03     BCS $F7EE                        A:00 X:78 Y:0D P:46 S:F9 PPU:93 ,240 10650
F7EB  30 01     BMI $F7EE                        A:00 X:78 Y:0D P:46 S:F9 PPU:93 ,246 10652
F7ED  60        RTS                              A:00 X:78 Y:0D P:46 S:F9 PPU:93 ,252 10654
DC5C  C8        INY                              A:00 X:78 Y:0D P:46 S:FB PPU:93 ,270 10660
DC5D  A9 EF     LDA #$EF                         A:00 X:78 Y:0E P:44 S:FB PPU:93 ,276 10662
DC5F  85 78     STA $78 = $AA                    A:EF X:78 Y:0E P:C4 S:FB PPU:93 ,282 10664
DC61  20 F1 F7  JSR $F7F1                        A:EF X:78 Y:0E P:C4 S:FB PPU:93 ,291 10667
F7F1  38        SEC                              A:EF X:78 Y:0E P:C4 S:F9 PPU:93 ,309 10673
F7F2  B8        CLV                              A:EF X:78 Y:0E P:C5 S:F9 PPU:93 ,315 10675
F7F3  A9 F8     LDA #$F8                         A:EF X:78 Y:0E P:85 S:F9 PPU:93 ,321 10677
F7F5  60        RTS                              A:F8 X:78 Y:0E P:85 S:F9 PPU:93 ,327 10679
DC64  35 00     AND $00,X = $EF                  A:F8 X:78 Y:0E P:85 S:FB PPU:94 ,4   10685
DC66  20 F6 F7  JSR $F7F6                        A:E8 X:78 Y:0E P:85 S:FB PPU:94 ,16  10689
F7F6  90 09     BCC $F801                        A:E8 X:78 Y:0E P:85 S:F9 PPU:94 ,34  10695
F7F8  10 07     BPL $F801                        A:E8 X:78 Y:0E P:85 S:F9 PPU:94 ,40  10697
F7FA  C9 E8     CMP #$E8                         A:E8 X:78 Y:0E P:85 S:F9 PPU:94 ,46  10699
F7FC  D0 03     BNE $F801                        A:E8 X:78 Y:0E P:07 S:F9 PPU:94 ,52  10701
F7FE  70 01     BVS $F801                        A:E8 X:78 Y:0E P:07 S:F9 PPU:94 ,58  10703
F800  60        RTS                              A:E8 X:78 Y:0E P:07 S:F9 PPU:94 ,64  10705
DC69  C8        INY                              A:E8 X:78 Y:0E P:07 S:FB PPU:94 ,82  10711
DC6A  A9 AA     LDA #$AA                         A:E8 X:78 Y:0F P:05 S:FB PPU:94 ,88  10713
DC6C  85 78     STA $78 = $EF                    A:AA X:78 Y:0F P:85 S:FB PPU:94 ,94  10715
DC6E  20 04 F8  JSR $F804                        A:AA X:78 Y:0F P:85 S:FB PPU:94 ,103 10718
F804  18        CLC                              A:AA X:78 Y:0F P:85 S:F9 PPU:94 ,121 10724
F805  24 01     BIT $01 = $FF                    A:AA X:78 Y:0F P:84 S:F9 PPU:94 ,127 10726
F807  A9 5F     LDA #$5F                         A:AA X:78 Y:0F P:C4 S:F9 PPU:94 ,136 10729
F809  60        RTS                              A:5F X:78 Y:0F P:44 S:F9 PPU:94 ,142 10731
DC71  55 00     EOR $00,X = $AA                  A:5F X:78 Y:0F P:44 S:FB PPU:94 ,160 10737
DC73  20 0A F8  JSR $F80A                        A:F5 X:78 Y:0F P:C4 S:FB PPU:94 ,172 10741
F80A  B0 09     BCS $F815                        A:F5 X:78 Y:0F P:C4 S:F9 PPU:94 ,190 10747
F80C  10 07     BPL $F815                        A:F5 X:78 Y:0F P:C4 S:F9 PPU:94 ,196 10749
F80E  C9 F5     CMP #$F5                         A:F5 X:78 Y:0F P:C4 S:F9 PPU:94 ,202 10751
F810  D0 03     BNE $F815                        A:F5 X:78 Y:0F P:47 S:F9 PPU:94 ,208 10753
F812  50 01     BVC $F815                        A:F5 X:78 Y:0F P:47 S:F9 PPU:94 ,214 10755
F814  60        RTS                              A:F5 X:78 Y:0F P:47 S:F9 PPU:94 ,220 10757
DC76  C8        INY                              A:F5 X:78 Y:0F P:47 S:FB PPU:94 ,238 10763
DC77  A9 70     LDA #$70                         A:F5 X:78 Y:10 P:45 S:FB PPU:94 ,244 10765
DC79  85 78     STA $78 = $AA                    A:70 X:78 Y:10 P:45 S:FB PPU:94 ,250 10767
DC7B  20 18 F8  JSR $F818                        A:70 X:78 Y:10 P:45 S:FB PPU:94 ,259 10770
F818  38        SEC                              A:70 X:78 Y:10 P:45 S:F9 PPU:94 ,277 10776
F819  B8        CLV                              A:70 X:78 Y:10 P:45 S:F9 PPU:94 ,283 10778
F81A  A9 70     LDA #$70                         A:70 X:78 Y:10 P:05 S:F9 PPU:94 ,289 10780
F81C  60        RTS                              A:70 X:78 Y:10 P:05 S:F9 PPU:94 ,295 10782
DC7E  55 00     EOR $00,X = $70                  A:70 X:78 Y:10 P:05 S:FB PPU:94 ,313 10788
DC80  20 1D F8  JSR $F81D                        A:00 X:78 Y:10 P:07 S:FB PPU:94 ,325 10792
F81D  D0 07     BNE $F826                        A:00 X:78 Y:10 P:07 S:F9 PPU:95 ,2   10798
F81F  70 05     BVS $F826                        A:00 X:78 Y:10 P:07 S:F9 PPU:95 ,8   10800
F821  90 03     BCC $F826                        A:00 X:78 Y:10 P:07 S:F9 PPU:95 ,14  10802
F823  30 01     BMI $F826                        A:00 X:78 Y:10 P:07 S:F9 PPU:95 ,20  10804
F825  60        RTS                              A:00 X:78 Y:10 P:07 S:F9 PPU:95 ,26  10806
DC83  C8        INY                              A:00 X:78 Y:10 P:07 S:FB PPU:95 ,44  10812
DC84  A9 69     LDA #$69                         A:00 X:78 Y:11 P:05 S:FB PPU:95 ,50  10814
DC86  85 78     STA $78 = $70                    A:69 X:78 Y:11 P:05 S:FB PPU:95 ,56  10816
DC88  20 29 F8  JSR $F829                        A:69 X:78 Y:11 P:05 S:FB PPU:95 ,65  10819
F829  18        CLC                              A:69 X:78 Y:11 P:05 S:F9 PPU:95 ,83  10825
F82A  24 01     BIT $01 = $FF                    A:69 X:78 Y:11 P:04 S:F9 PPU:95 ,89  10827
F82C  A9 00     LDA #$00                         A:69 X:78 Y:11 P:C4 S:F9 PPU:95 ,98  10830
F82E  60        RTS                              A:00 X:78 Y:11 P:46 S:F9 PPU:95 ,104 10832
DC8B  75 00     ADC $00,X = $69                  A:00 X:78 Y:11 P:46 S:FB PPU:95 ,122 10838
DC8D  20 2F F8  JSR $F82F                        A:69 X:78 Y:11 P:04 S:FB PPU:95 ,134 10842
F82F  30 09     BMI $F83A                        A:69 X:78 Y:11 P:04 S:F9 PPU:95 ,152 10848
F831  B0 07     BCS $F83A                        A:69 X:78 Y:11 P:04 S:F9 PPU:95 ,158 10850
F833  C9 69     CMP #$69                         A:69 X:78 Y:11 P:04 S:F9 PPU:95 ,164 10852
F835  D0 03     BNE $F83A                        A:69 X:78 Y:11 P:07 S:F9 PPU:95 ,170 10854
F837  70 01     BVS $F83A                        A:69 X:78 Y:11 P:07 S:F9 PPU:95 ,176 10856
F839  60        RTS                              A:69 X:78 Y:11 P:07 S:F9 PPU:95 ,182 10858
DC90  C8        INY                              A:69 X:78 Y:11 P:07 S:FB PPU:95 ,200 10864
DC91  20 3D F8  JSR $F83D                        A:69 X:78 Y:12 P:05 S:FB PPU:95 ,206 10866
F83D  38        SEC                              A:69 X:78 Y:12 P:05 S:F9 PPU:95 ,224 10872
F83E  24 01     BIT $01 = $FF                    A:69 X:78 Y:12 P:05 S:F9 PPU:95 ,230 10874
F840  A9 00     LDA #$00                         A:69 X:78 Y:12 P:C5 S:F9 PPU:95 ,239 10877
F842  60        RTS                              A:00 X:78 Y:12 P:47 S:F9 PPU:95 ,245 10879
DC94  75 00     ADC $00,X = $69                  A:00 X:78 Y:12 P:47 S:FB PPU:95 ,263 10885
DC96  20 43 F8  JSR $F843                        A:6A X:78 Y:12 P:04 S:FB PPU:95 ,275 10889
F843  30 09     BMI $F84E                        A:6A X:78 Y:12 P:04 S:F9 PPU:95 ,293 10895
F845  B0 07     BCS $F84E                        A:6A X:78 Y:12 P:04 S:F9 PPU:95 ,299 10897
F847  C9 6A     CMP #$6A                         A:6A X:78 Y:12 P:04 S:F9 PPU:95 ,305 10899
F849  D0 03     BNE $F84E                        A:6A X:78 Y:12 P:07 S:F9 PPU:95 ,311 10901
F84B  70 01     BVS $F84E                        A:6A X:78 Y:12 P:07 S:F9 PPU:95 ,317 10903
F84D  60        RTS                              A:6A X:78 Y:12 P:07 S:F9 PPU:95 ,323 10905
DC99  C8        INY                              A:6A X:78 Y:12 P:07 S:FB PPU:96 ,0   10911
DC9A  A9 7F     LDA #$7F                         A:6A X:78 Y:13 P:05 S:FB PPU:96 ,6   10913
DC9C  85 78     STA $78 = $69                    A:7F X:78 Y:13 P:05 S:FB PPU:96 ,12  10915
DC9E  20 51 F8  JSR $F851                        A:7F X:78 Y:13 P:05 S:FB PPU:96 ,21  10918
F851  38        SEC                              A:7F X:78 Y:13 P:05 S:F9 PPU:96 ,39  10924
F852  B8        CLV                              A:7F X:78 Y:13 P:05 S:F9 PPU:96 ,45  10926
F853  A9 7F     LDA #$7F                         A:7F X:78 Y:13 P:05 S:F9 PPU:96 ,51  10928
F855  60        RTS                              A:7F X:78 Y:13 P:05 S:F9 PPU:96 ,57  10930
DCA1  75 00     ADC $00,X = $7F                  A:7F X:78 Y:13 P:05 S:FB PPU:96 ,75  10936
DCA3  20 56 F8  JSR $F856                        A:FF X:78 Y:13 P:C4 S:FB PPU:96 ,87  10940
F856  10 09     BPL $F861                        A:FF X:78 Y:13 P:C4 S:F9 PPU:96 ,105 10946
F858  B0 07     BCS $F861                        A:FF X:78 Y:13 P:C4 S:F9 PPU:96 ,111 10948
F85A  C9 FF     CMP #$FF                         A:FF X:78 Y:13 P:C4 S:F9 PPU:96 ,117 10950
F85C  D0 03     BNE $F861                        A:FF X:78 Y:13 P:47 S:F9 PPU:96 ,123 10952
F85E  50 01     BVC $F861                        A:FF X:78 Y:13 P:47 S:F9 PPU:96 ,129 10954
F860  60        RTS                              A:FF X:78 Y:13 P:47 S:F9 PPU:96 ,135 10956
DCA6  C8        INY                              A:FF X:78 Y:13 P:47 S:FB PPU:96 ,153 10962
DCA7  A9 80     LDA #$80                         A:FF X:78 Y:14 P:45 S:FB PPU:96 ,159 10964
DCA9  85 78     STA $78 = $7F                    A:80 X:78 Y:14 P:C5 S:FB PPU:96 ,165 10966
DCAB  20 64 F8  JSR $F864                        A:80 X:78 Y:14 P:C5 S:FB PPU:96 ,174 10969
F864  18        CLC                              A:80 X:78 Y:14 P:C5 S:F9 PPU:96 ,192 10975
F865  24 01     BIT $01 = $FF                    A:80 X:78 Y:14 P:C4 S:F9 PPU:96 ,198 10977
F867  A9 7F     LDA #$7F                         A:80 X:78 Y:14 P:C4 S:F9 PPU:96 ,207 10980
F869  60        RTS                              A:7F X:78 Y:14 P:44 S:F9 PPU:96 ,213 10982
DCAE  75 00     ADC $00,X = $80                  A:7F X:78 Y:14 P:44 S:FB PPU:96 ,231 10988
DCB0  20 6A F8  JSR $F86A                        A:FF X:78 Y:14 P:84 S:FB PPU:96 ,243 10992
F86A  10 09     BPL $F875                        A:FF X:78 Y:14 P:84 S:F9 PPU:96 ,261 10998
F86C  B0 07     BCS $F875                        A:FF X:78 Y:14 P:84 S:F9 PPU:96 ,267 11000
F86E  C9 FF     CMP #$FF                         A:FF X:78 Y:14 P:84 S:F9 PPU:96 ,273 11002
F870  D0 03     BNE $F875                        A:FF X:78 Y:14 P:07 S:F9 PPU:96 ,279 11004
F872  70 01     BVS $F875                        A:FF X:78 Y:14 P:07 S:F9 PPU:96 ,285 11006
F874  60        RTS                              A:FF X:78 Y:14 P:07 S:F9 PPU:96 ,291 11008
DCB3  C8        INY                              A:FF X:78 Y:14 P:07 S:FB PPU:96 ,309 11014
DCB4  20 78 F8  JSR $F878                        A:FF X:78 Y:15 P:05 S:FB PPU:96 ,315 11016
F878  38        SEC                              A:FF X:78 Y:15 P:05 S:F9 PPU:96 ,333 11022
F879  B8        CLV                              A:FF X:78 Y:15 P:05 S:F9 PPU:96 ,339 11024
F87A  A9 7F     LDA #$7F                         A:FF X:78 Y:15 P:05 S:F9 PPU:97 ,4   11026
F87C  60        RTS                              A:7F X:78 Y:15 P:05 S:F9 PPU:97 ,10  11028
DCB7  75 00     ADC $00,X = $80                  A:7F X:78 Y:15 P:05 S:FB PPU:97 ,28  11034
DCB9  20 7D F8  JSR $F87D                        A:00 X:78 Y:15 P:07 S:FB PPU:97 ,40  11038
F87D  D0 07     BNE $F886                        A:00 X:78 Y:15 P:07 S:F9 PPU:97 ,58  11044
F87F  30 05     BMI $F886                        A:00 X:78 Y:15 P:07 S:F9 PPU:97 ,64  11046
F881  70 03     BVS $F886                        A:00 X:78 Y:15 P:07 S:F9 PPU:97 ,70  11048
F883  90 01     BCC $F886                        A:00 X:78 Y:15 P:07 S:F9 PPU:97 ,76  11050
F885  60        RTS                              A:00 X:78 Y:15 P:07 S:F9 PPU:97 ,82  11052
DCBC  C8        INY                              A:00 X:78 Y:15 P:07 S:FB PPU:97 ,100 11058
DCBD  A9 40     LDA #$40                         A:00 X:78 Y:16 P:05 S:FB PPU:97 ,106 11060
DCBF  85 78     STA $78 = $80                    A:40 X:78 Y:16 P:05 S:FB PPU:97 ,112 11062
DCC1  20 89 F8  JSR $F889                        A:40 X:78 Y:16 P:05 S:FB PPU:97 ,121 11065
F889  24 01     BIT $01 = $FF                    A:40 X:78 Y:16 P:05 S:F9 PPU:97 ,139 11071
F88B  A9 40     LDA #$40                         A:40 X:78 Y:16 P:C5 S:F9 PPU:97 ,148 11074
F88D  60        RTS                              A:40 X:78 Y:16 P:45 S:F9 PPU:97 ,154 11076
DCC4  D5 00     CMP $00,X = $40                  A:40 X:78 Y:16 P:45 S:FB PPU:97 ,172 11082
DCC6  20 8E F8  JSR $F88E                        A:40 X:78 Y:16 P:47 S:FB PPU:97 ,184 11086
F88E  30 07     BMI $F897                        A:40 X:78 Y:16 P:47 S:F9 PPU:97 ,202 11092
F890  90 05     BCC $F897                        A:40 X:78 Y:16 P:47 S:F9 PPU:97 ,208 11094
F892  D0 03     BNE $F897                        A:40 X:78 Y:16 P:47 S:F9 PPU:97 ,214 11096
F894  50 01     BVC $F897                        A:40 X:78 Y:16 P:47 S:F9 PPU:97 ,220 11098
F896  60        RTS                              A:40 X:78 Y:16 P:47 S:F9 PPU:97 ,226 11100
DCC9  C8        INY                              A:40 X:78 Y:16 P:47 S:FB PPU:97 ,244 11106
DCCA  48        PHA                              A:40 X:78 Y:17 P:45 S:FB PPU:97 ,250 11108
DCCB  A9 3F     LDA #$3F                         A:40 X:78 Y:17 P:45 S:FA PPU:97 ,259 11111
DCCD  85 78     STA $78 = $40                    A:3F X:78 Y:17 P:45 S:FA PPU:97 ,265 11113
DCCF  68        PLA                              A:3F X:78 Y:17 P:45 S:FA PPU:97 ,274 11116
DCD0  20 9A F8  JSR $F89A                        A:40 X:78 Y:17 P:45 S:FB PPU:97 ,286 11120
F89A  B8        CLV                              A:40 X:78 Y:17 P:45 S:F9 PPU:97 ,304 11126
F89B  60        RTS                              A:40 X:78 Y:17 P:05 S:F9 PPU:97 ,310 11128
DCD3  D5 00     CMP $00,X = $3F                  A:40 X:78 Y:17 P:05 S:FB PPU:97 ,328 11134
DCD5  20 9C F8  JSR $F89C                        A:40 X:78 Y:17 P:05 S:FB PPU:97 ,340 11138
F89C  F0 07     BEQ $F8A5                        A:40 X:78 Y:17 P:05 S:F9 PPU:98 ,17  11144
F89E  30 05     BMI $F8A5                        A:40 X:78 Y:17 P:05 S:F9 PPU:98 ,23  11146
F8A0  90 03     BCC $F8A5                        A:40 X:78 Y:17 P:05 S:F9 PPU:98 ,29  11148
F8A2  70 01     BVS $F8A5                        A:40 X:78 Y:17 P:05 S:F9 PPU:98 ,35  11150
F8A4  60        RTS                              A:40 X:78 Y:17 P:05 S:F9 PPU:98 ,41  11152
DCD8  C8        INY                              A:40 X:78 Y:17 P:05 S:FB PPU:98 ,59  11158
DCD9  48        PHA                              A:40 X:78 Y:18 P:05 S:FB PPU:98 ,65  11160
DCDA  A9 41     LDA #$41                         A:40 X:78 Y:18 P:05 S:FA PPU:98 ,74  11163
DCDC  85 78     STA $78 = $3F                    A:41 X:78 Y:18 P:05 S:FA PPU:98 ,80  11165
DCDE  68        PLA                              A:41 X:78 Y:18 P:05 S:FA PPU:98 ,89  11168
DCDF  D5 00     CMP $00,X = $41                  A:40 X:78 Y:18 P:05 S:FB PPU:98 ,101 11172
DCE1  20 A8 F8  JSR $F8A8                        A:40 X:78 Y:18 P:84 S:FB PPU:98 ,113 11176
F8A8  F0 05     BEQ $F8AF                        A:40 X:78 Y:18 P:84 S:F9 PPU:98 ,131 11182
F8AA  10 03     BPL $F8AF                        A:40 X:78 Y:18 P:84 S:F9 PPU:98 ,137 11184
F8AC  10 01     BPL $F8AF                        A:40 X:78 Y:18 P:84 S:F9 PPU:98 ,143 11186
F8AE  60        RTS                              A:40 X:78 Y:18 P:84 S:F9 PPU:98 ,149 11188
DCE4  C8        INY                              A:40 X:78 Y:18 P:84 S:FB PPU:98 ,167 11194
DCE5  48        PHA                              A:40 X:78 Y:19 P:04 S:FB PPU:98 ,173 11196
DCE6  A9 00     LDA #$00                         A:40 X:78 Y:19 P:04 S:FA PPU:98 ,182 11199
DCE8  85 78     STA $78 = $41                    A:00 X:78 Y:19 P:06 S:FA PPU:98 ,188 11201
DCEA  68        PLA                              A:00 X:78 Y:19 P:06 S:FA PPU:98 ,197 11204
DCEB  20 B2 F8  JSR $F8B2                        A:40 X:78 Y:19 P:04 S:FB PPU:98 ,209 11208
F8B2  A9 80     LDA #$80                         A:40 X:78 Y:19 P:04 S:F9 PPU:98 ,227 11214
F8B4  60        RTS                              A:80 X:78 Y:19 P:84 S:F9 PPU:98 ,233 11216
DCEE  D5 00     CMP $00,X = $00                  A:80 X:78 Y:19 P:84 S:FB PPU:98 ,251 11222
DCF0  20 B5 F8  JSR $F8B5                        A:80 X:78 Y:19 P:85 S:FB PPU:98 ,263 11226
F8B5  F0 05     BEQ $F8BC                        A:80 X:78 Y:19 P:85 S:F9 PPU:98 ,281 11232
F8B7  10 03     BPL $F8BC                        A:80 X:78 Y:19 P:85 S:F9 PPU:98 ,287 11234
F8B9  90 01     BCC $F8BC                        A:80 X:78 Y:19 P:85 S:F9 PPU:98 ,293 11236
F8BB  60        RTS                              A:80 X:78 Y:19 P:85 S:F9 PPU:98 ,299 11238
DCF3  C8        INY                              A:80 X:78 Y:19 P:85 S:FB PPU:98 ,317 11244
DCF4  48        PHA                              A:80 X:78 Y:1A P:05 S:FB PPU:98 ,323 11246
DCF5  A9 80     LDA #$80                         A:80 X:78 Y:1A P:05 S:FA PPU:98 ,332 11249
DCF7  85 78     STA $78 = $00                    A:80 X:78 Y:1A P:85 S:FA PPU:98 ,338 11251
DCF9  68        PLA                              A:80 X:78 Y:1A P:85 S:FA PPU:99 ,6   11254
DCFA  D5 00     CMP $00,X = $80                  A:80 X:78 Y:1A P:85 S:FB PPU:99 ,18  11258
DCFC  20 BF F8  JSR $F8BF                        A:80 X:78 Y:1A P:07 S:FB PPU:99 ,30  11262
F8BF  D0 05     BNE $F8C6                        A:80 X:78 Y:1A P:07 S:F9 PPU:99 ,48  11268
F8C1  30 03     BMI $F8C6                        A:80 X:78 Y:1A P:07 S:F9 PPU:99 ,54  11270
F8C3  90 01     BCC $F8C6                        A:80 X:78 Y:1A P:07 S:F9 PPU:99 ,60  11272
F8C5  60        RTS                              A:80 X:78 Y:1A P:07 S:F9 PPU:99 ,66  11274
DCFF  C8        INY                              A:80 X:78 Y:1A P:07 S:FB PPU:99 ,84  11280
DD00  48        PHA                              A:80 X:78 Y:1B P:05 S:FB PPU:99 ,90  11282
DD01  A9 81     LDA #$81                         A:80 X:78 Y:1B P:05 S:FA PPU:99 ,99  11285
DD03  85 78     STA $78 = $80                    A:81 X:78 Y:1B P:85 S:FA PPU:99 ,105 11287
DD05  68        PLA                              A:81 X:78 Y:1B P:85 S:FA PPU:99 ,114 11290
DD06  D5 00     CMP $00,X = $81                  A:80 X:78 Y:1B P:85 S:FB PPU:99 ,126 11294
DD08  20 C9 F8  JSR $F8C9                        A:80 X:78 Y:1B P:84 S:FB PPU:99 ,138 11298
F8C9  B0 05     BCS $F8D0                        A:80 X:78 Y:1B P:84 S:F9 PPU:99 ,156 11304
F8CB  F0 03     BEQ $F8D0                        A:80 X:78 Y:1B P:84 S:F9 PPU:99 ,162 11306
F8CD  10 01     BPL $F8D0                        A:80 X:78 Y:1B P:84 S:F9 PPU:99 ,168 11308
F8CF  60        RTS                              A:80 X:78 Y:1B P:84 S:F9 PPU:99 ,174 11310
DD0B  C8        INY                              A:80 X:78 Y:1B P:84 S:FB PPU:99 ,192 11316
DD0C  48        PHA                              A:80 X:78 Y:1C P:04 S:FB PPU:99 ,198 11318
DD0D  A9 7F     LDA #$7F                         A:80 X:78 Y:1C P:04 S:FA PPU:99 ,207 11321
DD0F  85 78     STA $78 = $81                    A:7F X:78 Y:1C P:04 S:FA PPU:99 ,213 11323
DD11  68        PLA                              A:7F X:78 Y:1C P:04 S:FA PPU:99 ,222 11326
DD12  D5 00     CMP $00,X = $7F                  A:80 X:78 Y:1C P:84 S:FB PPU:99 ,234 11330
DD14  20 D3 F8  JSR $F8D3                        A:80 X:78 Y:1C P:05 S:FB PPU:99 ,246 11334
F8D3  90 05     BCC $F8DA                        A:80 X:78 Y:1C P:05 S:F9 PPU:99 ,264 11340
F8D5  F0 03     BEQ $F8DA                        A:80 X:78 Y:1C P:05 S:F9 PPU:99 ,270 11342
F8D7  30 01     BMI $F8DA                        A:80 X:78 Y:1C P:05 S:F9 PPU:99 ,276 11344
F8D9  60        RTS                              A:80 X:78 Y:1C P:05 S:F9 PPU:99 ,282 11346
DD17  C8        INY                              A:80 X:78 Y:1C P:05 S:FB PPU:99 ,300 11352
DD18  A9 40     LDA #$40                         A:80 X:78 Y:1D P:05 S:FB PPU:99 ,306 11354
DD1A  85 78     STA $78 = $7F                    A:40 X:78 Y:1D P:05 S:FB PPU:99 ,312 11356
DD1C  20 31 F9  JSR $F931                        A:40 X:78 Y:1D P:05 S:FB PPU:99 ,321 11359
F931  24 01     BIT $01 = $FF                    A:40 X:78 Y:1D P:05 S:F9 PPU:99 ,339 11365
F933  A9 40     LDA #$40                         A:40 X:78 Y:1D P:C5 S:F9 PPU:100,7   11368
F935  38        SEC                              A:40 X:78 Y:1D P:45 S:F9 PPU:100,13  11370
F936  60        RTS                              A:40 X:78 Y:1D P:45 S:F9 PPU:100,19  11372
DD1F  F5 00     SBC $00,X = $40                  A:40 X:78 Y:1D P:45 S:FB PPU:100,37  11378
DD21  20 37 F9  JSR $F937                        A:00 X:78 Y:1D P:07 S:FB PPU:100,49  11382
F937  30 0B     BMI $F944                        A:00 X:78 Y:1D P:07 S:F9 PPU:100,67  11388
F939  90 09     BCC $F944                        A:00 X:78 Y:1D P:07 S:F9 PPU:100,73  11390
F93B  D0 07     BNE $F944                        A:00 X:78 Y:1D P:07 S:F9 PPU:100,79  11392
F93D  70 05     BVS $F944                        A:00 X:78 Y:1D P:07 S:F9 PPU:100,85  11394
F93F  C9 00     CMP #$00                         A:00 X:78 Y:1D P:07 S:F9 PPU:100,91  11396
F941  D0 01     BNE $F944                        A:00 X:78 Y:1D P:07 S:F9 PPU:100,97  11398
F943  60        RTS                              A:00 X:78 Y:1D P:07 S:F9 PPU:100,103 11400
DD24  C8        INY                              A:00 X:78 Y:1D P:07 S:FB PPU:100,121 11406
DD25  A9 3F     LDA #$3F                         A:00 X:78 Y:1E P:05 S:FB PPU:100,127 11408
DD27  85 78     STA $78 = $40                    A:3F X:78 Y:1E P:05 S:FB PPU:100,133 11410
DD29  20 47 F9  JSR $F947                        A:3F X:78 Y:1E P:05 S:FB PPU:100,142 11413
F947  B8        CLV                              A:3F X:78 Y:1E P:05 S:F9 PPU:100,160 11419
F948  38        SEC                              A:3F X:78 Y:1E P:05 S:F9 PPU:100,166 11421
F949  A9 40     LDA #$40                         A:3F X:78 Y:1E P:05 S:F9 PPU:100,172 11423
F94B  60        RTS                              A:40 X:78 Y:1E P:05 S:F9 PPU:100,178 11425
DD2C  F5 00     SBC $00,X = $3F                  A:40 X:78 Y:1E P:05 S:FB PPU:100,196 11431
DD2E  20 4C F9  JSR $F94C                        A:01 X:78 Y:1E P:05 S:FB PPU:100,208 11435
F94C  F0 0B     BEQ $F959                        A:01 X:78 Y:1E P:05 S:F9 PPU:100,226 11441
F94E  30 09     BMI $F959                        A:01 X:78 Y:1E P:05 S:F9 PPU:100,232 11443
F950  90 07     BCC $F959                        A:01 X:78 Y:1E P:05 S:F9 PPU:100,238 11445
F952  70 05     BVS $F959                        A:01 X:78 Y:1E P:05 S:F9 PPU:100,244 11447
F954  C9 01     CMP #$01                         A:01 X:78 Y:1E P:05 S:F9 PPU:100,250 11449
F956  D0 01     BNE $F959                        A:01 X:78 Y:1E P:07 S:F9 PPU:100,256 11451
F958  60        RTS                              A:01 X:78 Y:1E P:07 S:F9 PPU:100,262 11453
DD31  C8        INY                              A:01 X:78 Y:1E P:07 S:FB PPU:100,280 11459
DD32  A9 41     LDA #$41                         A:01 X:78 Y:1F P:05 S:FB PPU:100,286 11461
DD34  85 78     STA $78 = $3F                    A:41 X:78 Y:1F P:05 S:FB PPU:100,292 11463
DD36  20 5C F9  JSR $F95C                        A:41 X:78 Y:1F P:05 S:FB PPU:100,301 11466
F95C  A9 40     LDA #$40                         A:41 X:78 Y:1F P:05 S:F9 PPU:100,319 11472
F95E  38        SEC                              A:40 X:78 Y:1F P:05 S:F9 PPU:100,325 11474
F95F  24 01     BIT $01 = $FF                    A:40 X:78 Y:1F P:05 S:F9 PPU:100,331 11476
F961  60        RTS                              A:40 X:78 Y:1F P:C5 S:F9 PPU:100,340 11479
DD39  F5 00     SBC $00,X = $41                  A:40 X:78 Y:1F P:C5 S:FB PPU:101,17  11485
DD3B  20 62 F9  JSR $F962                        A:FF X:78 Y:1F P:84 S:FB PPU:101,29  11489
F962  B0 0B     BCS $F96F                        A:FF X:78 Y:1F P:84 S:F9 PPU:101,47  11495
F964  F0 09     BEQ $F96F                        A:FF X:78 Y:1F P:84 S:F9 PPU:101,53  11497
F966  10 07     BPL $F96F                        A:FF X:78 Y:1F P:84 S:F9 PPU:101,59  11499
F968  70 05     BVS $F96F                        A:FF X:78 Y:1F P:84 S:F9 PPU:101,65  11501
F96A  C9 FF     CMP #$FF                         A:FF X:78 Y:1F P:84 S:F9 PPU:101,71  11503
F96C  D0 01     BNE $F96F                        A:FF X:78 Y:1F P:07 S:F9 PPU:101,77  11505
F96E  60        RTS                              A:FF X:78 Y:1F P:07 S:F9 PPU:101,83  11507
DD3E  C8        INY                              A:FF X:78 Y:1F P:07 S:FB PPU:101,101 11513
DD3F  A9 00     LDA #$00                         A:FF X:78 Y:20 P:05 S:FB PPU:101,107 11515
DD41  85 78     STA $78 = $41                    A:00 X:78 Y:20 P:07 S:FB PPU:101,113 11517
DD43  20 72 F9  JSR $F972                        A:00 X:78 Y:20 P:07 S:FB PPU:101,122 11520
F972  18        CLC                              A:00 X:78 Y:20 P:07 S:F9 PPU:101,140 11526
F973  A9 80     LDA #$80                         A:00 X:78 Y:20 P:06 S:F9 PPU:101,146 11528
F975  60        RTS                              A:80 X:78 Y:20 P:84 S:F9 PPU:101,152 11530
DD46  F5 00     SBC $00,X = $00                  A:80 X:78 Y:20 P:84 S:FB PPU:101,170 11536
DD48  20 76 F9  JSR $F976                        A:7F X:78 Y:20 P:45 S:FB PPU:101,182 11540
F976  90 05     BCC $F97D                        A:7F X:78 Y:20 P:45 S:F9 PPU:101,200 11546
F978  C9 7F     CMP #$7F                         A:7F X:78 Y:20 P:45 S:F9 PPU:101,206 11548
F97A  D0 01     BNE $F97D                        A:7F X:78 Y:20 P:47 S:F9 PPU:101,212 11550
F97C  60        RTS                              A:7F X:78 Y:20 P:47 S:F9 PPU:101,218 11552
DD4B  C8        INY                              A:7F X:78 Y:20 P:47 S:FB PPU:101,236 11558
DD4C  A9 7F     LDA #$7F                         A:7F X:78 Y:21 P:45 S:FB PPU:101,242 11560
DD4E  85 78     STA $78 = $00                    A:7F X:78 Y:21 P:45 S:FB PPU:101,248 11562
DD50  20 80 F9  JSR $F980                        A:7F X:78 Y:21 P:45 S:FB PPU:101,257 11565
F980  38        SEC                              A:7F X:78 Y:21 P:45 S:F9 PPU:101,275 11571
F981  A9 81     LDA #$81                         A:7F X:78 Y:21 P:45 S:F9 PPU:101,281 11573
F983  60        RTS                              A:81 X:78 Y:21 P:C5 S:F9 PPU:101,287 11575
DD53  F5 00     SBC $00,X = $7F                  A:81 X:78 Y:21 P:C5 S:FB PPU:101,305 11581
DD55  20 84 F9  JSR $F984                        A:02 X:78 Y:21 P:45 S:FB PPU:101,317 11585
F984  50 07     BVC $F98D                        A:02 X:78 Y:21 P:45 S:F9 PPU:101,335 11591
F986  90 05     BCC $F98D                        A:02 X:78 Y:21 P:45 S:F9 PPU:102,0   11593
F988  C9 02     CMP #$02                         A:02 X:78 Y:21 P:45 S:F9 PPU:102,6   11595
F98A  D0 01     BNE $F98D                        A:02 X:78 Y:21 P:47 S:F9 PPU:102,12  11597
F98C  60        RTS                              A:02 X:78 Y:21 P:47 S:F9 PPU:102,18  11599
DD58  A9 AA     LDA #$AA                         A:02 X:78 Y:21 P:47 S:FB PPU:102,36  11605
DD5A  85 33     STA $33 = $44                    A:AA X:78 Y:21 P:C5 S:FB PPU:102,42  11607
DD5C  A9 BB     LDA #$BB                         A:AA X:78 Y:21 P:C5 S:FB PPU:102,51  11610
DD5E  85 89     STA $89 = $BB                    A:BB X:78 Y:21 P:C5 S:FB PPU:102,57  11612
DD60  A2 00     LDX #$00                         A:BB X:78 Y:21 P:C5 S:FB PPU:102,66  11615
DD62  A0 66     LDY #$66                         A:BB X:00 Y:21 P:47 S:FB PPU:102,72  11617
DD64  24 01     BIT $01 = $FF                    A:BB X:00 Y:66 P:45 S:FB PPU:102,78  11619
DD66  38        SEC                              A:BB X:00 Y:66 P:C5 S:FB PPU:102,87  11622
DD67  A9 00     LDA #$00                         A:BB X:00 Y:66 P:C5 S:FB PPU:102,93  11624
DD69  B5 33     LDA $33,X = $AA                  A:00 X:00 Y:66 P:47 S:FB PPU:102,99  11626
DD6B  10 12     BPL $DD7F                        A:AA X:00 Y:66 P:C5 S:FB PPU:102,111 11630
DD6D  F0 10     BEQ $DD7F                        A:AA X:00 Y:66 P:C5 S:FB PPU:102,117 11632
DD6F  50 0E     BVC $DD7F                        A:AA X:00 Y:66 P:C5 S:FB PPU:102,123 11634
DD71  90 0C     BCC $DD7F                        A:AA X:00 Y:66 P:C5 S:FB PPU:102,129 11636
DD73  C0 66     CPY #$66                         A:AA X:00 Y:66 P:C5 S:FB PPU:102,135 11638
DD75  D0 08     BNE $DD7F                        A:AA X:00 Y:66 P:47 S:FB PPU:102,141 11640
DD77  E0 00     CPX #$00                         A:AA X:00 Y:66 P:47 S:FB PPU:102,147 11642
DD79  D0 04     BNE $DD7F                        A:AA X:00 Y:66 P:47 S:FB PPU:102,153 11644
DD7B  C9 AA     CMP #$AA                         A:AA X:00 Y:66 P:47 S:FB PPU:102,159 11646
DD7D  F0 04     BEQ $DD83                        A:AA X:00 Y:66 P:47 S:FB PPU:102,165 11648
DD83  A2 8A     LDX #$8A                         A:AA X:00 Y:66 P:47 S:FB PPU:102,174 11651
DD85  A0 66     LDY #$66                         A:AA X:8A Y:66 P:C5 S:FB PPU:102,180 11653
DD87  B8        CLV                              A:AA X:8A Y:66 P:45 S:FB PPU:102,186 11655
DD88  18        CLC                              A:AA X:8A Y:66 P:05 S:FB PPU:102,192 11657
DD89  A9 00     LDA #$00                         A:AA X:8A Y:66 P:04 S:FB PPU:102,198 11659
DD8B  B5 FF     LDA $FF,X = $BB                  A:00 X:8A Y:66 P:06 S:FB PPU:102,204 11661
DD8D  10 12     BPL $DDA1                        A:BB X:8A Y:66 P:84 S:FB PPU:102,216 11665
DD8F  F0 10     BEQ $DDA1                        A:BB X:8A Y:66 P:84 S:FB PPU:102,222 11667
DD91  70 0E     BVS $DDA1                        A:BB X:8A Y:66 P:84 S:FB PPU:102,228 11669
DD93  B0 0C     BCS $DDA1                        A:BB X:8A Y:66 P:84 S:FB PPU:102,234 11671
DD95  C9 BB     CMP #$BB                         A:BB X:8A Y:66 P:84 S:FB PPU:102,240 11673
DD97  D0 08     BNE $DDA1                        A:BB X:8A Y:66 P:07 S:FB PPU:102,246 11675
DD99  C0 66     CPY #$66                         A:BB X:8A Y:66 P:07 S:FB PPU:102,252 11677
DD9B  D0 04     BNE $DDA1                        A:BB X:8A Y:66 P:07 S:FB PPU:102,258 11679
DD9D  E0 8A     CPX #$8A                         A:BB X:8A Y:66 P:07 S:FB PPU:102,264 11681
DD9F  F0 04     BEQ $DDA5                        A:BB X:8A Y:66 P:07 S:FB PPU:102,270 11683
DDA5  24 01     BIT $01 = $FF                    A:BB X:8A Y:66 P:07 S:FB PPU:102,279 11686
DDA7  38        SEC                              A:BB X:8A Y:66 P:C5 S:FB PPU:102,288 11689
DDA8  A9 44     LDA #$44                         A:BB X:8A Y:66 P:C5 S:FB PPU:102,294 11691
DDAA  A2 00     LDX #$00                         A:44 X:8A Y:66 P:45 S:FB PPU:102,300 11693
DDAC  95 33     STA $33,X = $AA                  A:44 X:00 Y:66 P:47 S:FB PPU:102,306 11695
DDAE  A5 33     LDA $33 = $44                    A:44 X:00 Y:66 P:47 S:FB PPU:102,318 11699
DDB0  90 18     BCC $DDCA                        A:44 X:00 Y:66 P:45 S:FB PPU:102,327 11702
DDB2  C9 44     CMP #$44                         A:44 X:00 Y:66 P:45 S:FB PPU:102,333 11704
DDB4  D0 14     BNE $DDCA                        A:44 X:00 Y:66 P:47 S:FB PPU:102,339 11706
DDB6  50 12     BVC $DDCA                        A:44 X:00 Y:66 P:47 S:FB PPU:103,4   11708
DDB8  18        CLC                              A:44 X:00 Y:66 P:47 S:FB PPU:103,10  11710
DDB9  B8        CLV                              A:44 X:00 Y:66 P:46 S:FB PPU:103,16  11712
DDBA  A9 99     LDA #$99                         A:44 X:00 Y:66 P:06 S:FB PPU:103,22  11714
DDBC  A2 80     LDX #$80                         A:99 X:00 Y:66 P:84 S:FB PPU:103,28  11716
DDBE  95 85     STA $85,X = $99                  A:99 X:80 Y:66 P:84 S:FB PPU:103,34  11718
DDC0  A5 05     LDA $05 = $99                    A:99 X:80 Y:66 P:84 S:FB PPU:103,46  11722
DDC2  B0 06     BCS $DDCA                        A:99 X:80 Y:66 P:84 S:FB PPU:103,55  11725
DDC4  C9 99     CMP #$99                         A:99 X:80 Y:66 P:84 S:FB PPU:103,61  11727
DDC6  D0 02     BNE $DDCA                        A:99 X:80 Y:66 P:07 S:FB PPU:103,67  11729
DDC8  50 04     BVC $DDCE                        A:99 X:80 Y:66 P:07 S:FB PPU:103,73  11731
DDCE  A0 25     LDY #$25                         A:99 X:80 Y:66 P:07 S:FB PPU:103,82  11734
DDD0  A2 78     LDX #$78                         A:99 X:80 Y:25 P:05 S:FB PPU:103,88  11736
DDD2  20 90 F9  JSR $F990                        A:99 X:78 Y:25 P:05 S:FB PPU:103,94  11738
F990  A2 55     LDX #$55                         A:99 X:78 Y:25 P:05 S:F9 PPU:103,112 11744
F992  A9 FF     LDA #$FF                         A:99 X:55 Y:25 P:05 S:F9 PPU:103,118 11746
F994  85 01     STA $01 = $FF                    A:FF X:55 Y:25 P:85 S:F9 PPU:103,124 11748
F996  EA        NOP                              A:FF X:55 Y:25 P:85 S:F9 PPU:103,133 11751
F997  24 01     BIT $01 = $FF                    A:FF X:55 Y:25 P:85 S:F9 PPU:103,139 11753
F999  38        SEC                              A:FF X:55 Y:25 P:C5 S:F9 PPU:103,148 11756
F99A  A9 01     LDA #$01                         A:FF X:55 Y:25 P:C5 S:F9 PPU:103,154 11758
F99C  60        RTS                              A:01 X:55 Y:25 P:45 S:F9 PPU:103,160 11760
DDD5  95 00     STA $00,X = $00                  A:01 X:55 Y:25 P:45 S:FB PPU:103,178 11766
DDD7  56 00     LSR $00,X = $01                  A:01 X:55 Y:25 P:45 S:FB PPU:103,190 11770
DDD9  B5 00     LDA $00,X = $00                  A:01 X:55 Y:25 P:47 S:FB PPU:103,208 11776
DDDB  20 9D F9  JSR $F99D                        A:00 X:55 Y:25 P:47 S:FB PPU:103,220 11780
F99D  90 1B     BCC $F9BA                        A:00 X:55 Y:25 P:47 S:F9 PPU:103,238 11786
F99F  D0 19     BNE $F9BA                        A:00 X:55 Y:25 P:47 S:F9 PPU:103,244 11788
F9A1  30 17     BMI $F9BA                        A:00 X:55 Y:25 P:47 S:F9 PPU:103,250 11790
F9A3  50 15     BVC $F9BA                        A:00 X:55 Y:25 P:47 S:F9 PPU:103,256 11792
F9A5  C9 00     CMP #$00                         A:00 X:55 Y:25 P:47 S:F9 PPU:103,262 11794
F9A7  D0 11     BNE $F9BA                        A:00 X:55 Y:25 P:47 S:F9 PPU:103,268 11796
F9A9  B8        CLV                              A:00 X:55 Y:25 P:47 S:F9 PPU:103,274 11798
F9AA  A9 AA     LDA #$AA                         A:00 X:55 Y:25 P:07 S:F9 PPU:103,280 11800
F9AC  60        RTS                              A:AA X:55 Y:25 P:85 S:F9 PPU:103,286 11802
DDDE  C8        INY                              A:AA X:55 Y:25 P:85 S:FB PPU:103,304 11808
DDDF  95 00     STA $00,X = $00                  A:AA X:55 Y:26 P:05 S:FB PPU:103,310 11810
DDE1  56 00     LSR $00,X = $AA                  A:AA X:55 Y:26 P:05 S:FB PPU:103,322 11814
DDE3  B5 00     LDA $00,X = $55                  A:AA X:55 Y:26 P:04 S:FB PPU:103,340 11820
DDE5  20 AD F9  JSR $F9AD                        A:55 X:55 Y:26 P:04 S:FB PPU:104,11  11824
F9AD  B0 0B     BCS $F9BA                        A:55 X:55 Y:26 P:04 S:F9 PPU:104,29  11830
F9AF  F0 09     BEQ $F9BA                        A:55 X:55 Y:26 P:04 S:F9 PPU:104,35  11832
F9B1  30 07     BMI $F9BA                        A:55 X:55 Y:26 P:04 S:F9 PPU:104,41  11834
F9B3  70 05     BVS $F9BA                        A:55 X:55 Y:26 P:04 S:F9 PPU:104,47  11836
F9B5  C9 55     CMP #$55                         A:55 X:55 Y:26 P:04 S:F9 PPU:104,53  11838
F9B7  D0 01     BNE $F9BA                        A:55 X:55 Y:26 P:07 S:F9 PPU:104,59  11840
F9B9  60        RTS                              A:55 X:55 Y:26 P:07 S:F9 PPU:104,65  11842
DDE8  C8        INY                              A:55 X:55 Y:26 P:07 S:FB PPU:104,83  11848
DDE9  20 BD F9  JSR $F9BD                        A:55 X:55 Y:27 P:05 S:FB PPU:104,89  11850
F9BD  24 01     BIT $01 = $FF                    A:55 X:55 Y:27 P:05 S:F9 PPU:104,107 11856
F9BF  38        SEC                              A:55 X:55 Y:27 P:C5 S:F9 PPU:104,116 11859
F9C0  A9 80     LDA #$80                         A:55 X:55 Y:27 P:C5 S:F9 PPU:104,122 11861
F9C2  60        RTS                              A:80 X:55 Y:27 P:C5 S:F9 PPU:104,128 11863
DDEC  95 00     STA $00,X = $55                  A:80 X:55 Y:27 P:C5 S:FB PPU:104,146 11869
DDEE  16 00     ASL $00,X = $80                  A:80 X:55 Y:27 P:C5 S:FB PPU:104,158 11873
DDF0  B5 00     LDA $00,X = $00                  A:80 X:55 Y:27 P:47 S:FB PPU:104,176 11879
DDF2  20 C3 F9  JSR $F9C3                        A:00 X:55 Y:27 P:47 S:FB PPU:104,188 11883
F9C3  90 1C     BCC $F9E1                        A:00 X:55 Y:27 P:47 S:F9 PPU:104,206 11889
F9C5  D0 1A     BNE $F9E1                        A:00 X:55 Y:27 P:47 S:F9 PPU:104,212 11891
F9C7  30 18     BMI $F9E1                        A:00 X:55 Y:27 P:47 S:F9 PPU:104,218 11893
F9C9  50 16     BVC $F9E1                        A:00 X:55 Y:27 P:47 S:F9 PPU:104,224 11895
F9CB  C9 00     CMP #$00                         A:00 X:55 Y:27 P:47 S:F9 PPU:104,230 11897
F9CD  D0 12     BNE $F9E1                        A:00 X:55 Y:27 P:47 S:F9 PPU:104,236 11899
F9CF  B8        CLV                              A:00 X:55 Y:27 P:47 S:F9 PPU:104,242 11901
F9D0  A9 55     LDA #$55                         A:00 X:55 Y:27 P:07 S:F9 PPU:104,248 11903
F9D2  38        SEC                              A:55 X:55 Y:27 P:05 S:F9 PPU:104,254 11905
F9D3  60        RTS                              A:55 X:55 Y:27 P:05 S:F9 PPU:104,260 11907
DDF5  C8        INY                              A:55 X:55 Y:27 P:05 S:FB PPU:104,278 11913
DDF6  95 00     STA $00,X = $00                  A:55 X:55 Y:28 P:05 S:FB PPU:104,284 11915
DDF8  16 00     ASL $00,X = $55                  A:55 X:55 Y:28 P:05 S:FB PPU:104,296 11919
DDFA  B5 00     LDA $00,X = $AA                  A:55 X:55 Y:28 P:84 S:FB PPU:104,314 11925
DDFC  20 D4 F9  JSR $F9D4                        A:AA X:55 Y:28 P:84 S:FB PPU:104,326 11929
F9D4  B0 0B     BCS $F9E1                        A:AA X:55 Y:28 P:84 S:F9 PPU:105,3   11935
F9D6  F0 09     BEQ $F9E1                        A:AA X:55 Y:28 P:84 S:F9 PPU:105,9   11937
F9D8  10 07     BPL $F9E1                        A:AA X:55 Y:28 P:84 S:F9 PPU:105,15  11939
F9DA  70 05     BVS $F9E1                        A:AA X:55 Y:28 P:84 S:F9 PPU:105,21  11941
F9DC  C9 AA     CMP #$AA                         A:AA X:55 Y:28 P:84 S:F9 PPU:105,27  11943
F9DE  D0 01     BNE $F9E1                        A:AA X:55 Y:28 P:07 S:F9 PPU:105,33  11945
F9E0  60        RTS                              A:AA X:55 Y:28 P:07 S:F9 PPU:105,39  11947
DDFF  C8        INY                              A:AA X:55 Y:28 P:07 S:FB PPU:105,57  11953
DE00  20 E4 F9  JSR $F9E4                        A:AA X:55 Y:29 P:05 S:FB PPU:105,63  11955
F9E4  24 01     BIT $01 = $FF                    A:AA X:55 Y:29 P:05 S:F9 PPU:105,81  11961
F9E6  38        SEC                              A:AA X:55 Y:29 P:C5 S:F9 PPU:105,90  11964
F9E7  A9 01     LDA #$01                         A:AA X:55 Y:29 P:C5 S:F9 PPU:105,96  11966
F9E9  60        RTS                              A:01 X:55 Y:29 P:45 S:F9 PPU:105,102 11968
DE03  95 00     STA $00,X = $AA                  A:01 X:55 Y:29 P:45 S:FB PPU:105,120 11974
DE05  76 00     ROR $00,X = $01                  A:01 X:55 Y:29 P:45 S:FB PPU:105,132 11978
DE07  B5 00     LDA $00,X = $80                  A:01 X:55 Y:29 P:C5 S:FB PPU:105,150 11984
DE09  20 EA F9  JSR $F9EA                        A:80 X:55 Y:29 P:C5 S:FB PPU:105,162 11988
F9EA  90 1C     BCC $FA08                        A:80 X:55 Y:29 P:C5 S:F9 PPU:105,180 11994
F9EC  F0 1A     BEQ $FA08                        A:80 X:55 Y:29 P:C5 S:F9 PPU:105,186 11996
F9EE  10 18     BPL $FA08                        A:80 X:55 Y:29 P:C5 S:F9 PPU:105,192 11998
F9F0  50 16     BVC $FA08                        A:80 X:55 Y:29 P:C5 S:F9 PPU:105,198 12000
F9F2  C9 80     CMP #$80                         A:80 X:55 Y:29 P:C5 S:F9 PPU:105,204 12002
F9F4  D0 12     BNE $FA08                        A:80 X:55 Y:29 P:47 S:F9 PPU:105,210 12004
F9F6  B8        CLV                              A:80 X:55 Y:29 P:47 S:F9 PPU:105,216 12006
F9F7  18        CLC                              A:80 X:55 Y:29 P:07 S:F9 PPU:105,222 12008
F9F8  A9 55     LDA #$55                         A:80 X:55 Y:29 P:06 S:F9 PPU:105,228 12010
F9FA  60        RTS                              A:55 X:55 Y:29 P:04 S:F9 PPU:105,234 12012
DE0C  C8        INY                              A:55 X:55 Y:29 P:04 S:FB PPU:105,252 12018
DE0D  95 00     STA $00,X = $80                  A:55 X:55 Y:2A P:04 S:FB PPU:105,258 12020
DE0F  76 00     ROR $00,X = $55                  A:55 X:55 Y:2A P:04 S:FB PPU:105,270 12024
DE11  B5 00     LDA $00,X = $2A                  A:55 X:55 Y:2A P:05 S:FB PPU:105,288 12030
DE13  20 FB F9  JSR $F9FB                        A:2A X:55 Y:2A P:05 S:FB PPU:105,300 12034
F9FB  90 0B     BCC $FA08                        A:2A X:55 Y:2A P:05 S:F9 PPU:105,318 12040
F9FD  F0 09     BEQ $FA08                        A:2A X:55 Y:2A P:05 S:F9 PPU:105,324 12042
F9FF  30 07     BMI $FA08                        A:2A X:55 Y:2A P:05 S:F9 PPU:105,330 12044
FA01  70 05     BVS $FA08                        A:2A X:55 Y:2A P:05 S:F9 PPU:105,336 12046
FA03  C9 2A     CMP #$2A                         A:2A X:55 Y:2A P:05 S:F9 PPU:106,1   12048
FA05  D0 01     BNE $FA08                        A:2A X:55 Y:2A P:07 S:F9 PPU:106,7   12050
FA07  60        RTS                              A:2A X:55 Y:2A P:07 S:F9 PPU:106,13  12052
DE16  C8        INY                              A:2A X:55 Y:2A P:07 S:FB PPU:106,31  12058
DE17  20 0A FA  JSR $FA0A                        A:2A X:55 Y:2B P:05 S:FB PPU:106,37  12060
FA0A  24 01     BIT $01 = $FF                    A:2A X:55 Y:2B P:05 S:F9 PPU:106,55  12066
FA0C  38        SEC                              A:2A X:55 Y:2B P:C5 S:F9 PPU:106,64  12069
FA0D  A9 80     LDA #$80                         A:2A X:55 Y:2B P:C5 S:F9 PPU:106,70  12071
FA0F  60        RTS                              A:80 X:55 Y:2B P:C5 S:F9 PPU:106,76  12073
DE1A  95 00     STA $00,X = $2A                  A:80 X:55 Y:2B P:C5 S:FB PPU:106,94  12079
DE1C  36 00     ROL $00,X = $80                  A:80 X:55 Y:2B P:C5 S:FB PPU:106,106 12083
DE1E  B5 00     LDA $00,X = $01                  A:80 X:55 Y:2B P:45 S:FB PPU:106,124 12089
DE20  20 10 FA  JSR $FA10                        A:01 X:55 Y:2B P:45 S:FB PPU:106,136 12093
FA10  90 1C     BCC $FA2E                        A:01 X:55 Y:2B P:45 S:F9 PPU:106,154 12099
FA12  F0 1A     BEQ $FA2E                        A:01 X:55 Y:2B P:45 S:F9 PPU:106,160 12101
FA14  30 18     BMI $FA2E                        A:01 X:55 Y:2B P:45 S:F9 PPU:106,166 12103
FA16  50 16     BVC $FA2E                        A:01 X:55 Y:2B P:45 S:F9 PPU:106,172 12105
FA18  C9 01     CMP #$01                         A:01 X:55 Y:2B P:45 S:F9 PPU:106,178 12107
FA1A  D0 12     BNE $FA2E                        A:01 X:55 Y:2B P:47 S:F9 PPU:106,184 12109
FA1C  B8        CLV                              A:01 X:55 Y:2B P:47 S:F9 PPU:106,190 12111
FA1D  18        CLC                              A:01 X:55 Y:2B P:07 S:F9 PPU:106,196 12113
FA1E  A9 55     LDA #$55                         A:01 X:55 Y:2B P:06 S:F9 PPU:106,202 12115
FA20  60        RTS                              A:55 X:55 Y:2B P:04 S:F9 PPU:106,208 12117
DE23  C8        INY                              A:55 X:55 Y:2B P:04 S:FB PPU:106,226 12123
DE24  95 00     STA $00,X = $01                  A:55 X:55 Y:2C P:04 S:FB PPU:106,232 12125
DE26  36 00     ROL $00,X = $55                  A:55 X:55 Y:2C P:04 S:FB PPU:106,244 12129
DE28  B5 00     LDA $00,X = $AA                  A:55 X:55 Y:2C P:84 S:FB PPU:106,262 12135
DE2A  20 21 FA  JSR $FA21                        A:AA X:55 Y:2C P:84 S:FB PPU:106,274 12139
FA21  B0 0B     BCS $FA2E                        A:AA X:55 Y:2C P:84 S:F9 PPU:106,292 12145
FA23  F0 09     BEQ $FA2E                        A:AA X:55 Y:2C P:84 S:F9 PPU:106,298 12147
FA25  10 07     BPL $FA2E                        A:AA X:55 Y:2C P:84 S:F9 PPU:106,304 12149
FA27  70 05     BVS $FA2E                        A:AA X:55 Y:2C P:84 S:F9 PPU:106,310 12151
FA29  C9 AA     CMP #$AA                         A:AA X:55 Y:2C P:84 S:F9 PPU:106,316 12153
FA2B  D0 01     BNE $FA2E                        A:AA X:55 Y:2C P:07 S:F9 PPU:106,322 12155
FA2D  60        RTS                              A:AA X:55 Y:2C P:07 S:F9 PPU:106,328 12157
DE2D  A9 FF     LDA #$FF                         A:AA X:55 Y:2C P:07 S:FB PPU:107,5   12163
DE2F  95 00     STA $00,X = $AA                  A:FF X:55 Y:2C P:85 S:FB PPU:107,11  12165
DE31  85 01     STA $01 = $FF                    A:FF X:55 Y:2C P:85 S:FB PPU:107,23  12169
DE33  24 01     BIT $01 = $FF                    A:FF X:55 Y:2C P:85 S:FB PPU:107,32  12172
DE35  38        SEC                              A:FF X:55 Y:2C P:C5 S:FB PPU:107,41  12175
DE36  F6 00     INC $00,X = $FF                  A:FF X:55 Y:2C P:C5 S:FB PPU:107,47  12177
DE38  D0 0C     BNE $DE46                        A:FF X:55 Y:2C P:47 S:FB PPU:107,65  12183
DE3A  30 0A     BMI $DE46                        A:FF X:55 Y:2C P:47 S:FB PPU:107,71  12185
DE3C  50 08     BVC $DE46                        A:FF X:55 Y:2C P:47 S:FB PPU:107,77  12187
DE3E  90 06     BCC $DE46                        A:FF X:55 Y:2C P:47 S:FB PPU:107,83  12189
DE40  B5 00     LDA $00,X = $00                  A:FF X:55 Y:2C P:47 S:FB PPU:107,89  12191
DE42  C9 00     CMP #$00                         A:00 X:55 Y:2C P:47 S:FB PPU:107,101 12195
DE44  F0 04     BEQ $DE4A                        A:00 X:55 Y:2C P:47 S:FB PPU:107,107 12197
DE4A  A9 7F     LDA #$7F                         A:00 X:55 Y:2C P:47 S:FB PPU:107,116 12200
DE4C  95 00     STA $00,X = $00                  A:7F X:55 Y:2C P:45 S:FB PPU:107,122 12202
DE4E  B8        CLV                              A:7F X:55 Y:2C P:45 S:FB PPU:107,134 12206
DE4F  18        CLC                              A:7F X:55 Y:2C P:05 S:FB PPU:107,140 12208
DE50  F6 00     INC $00,X = $7F                  A:7F X:55 Y:2C P:04 S:FB PPU:107,146 12210
DE52  F0 0C     BEQ $DE60                        A:7F X:55 Y:2C P:84 S:FB PPU:107,164 12216
DE54  10 0A     BPL $DE60                        A:7F X:55 Y:2C P:84 S:FB PPU:107,170 12218
DE56  70 08     BVS $DE60                        A:7F X:55 Y:2C P:84 S:FB PPU:107,176 12220
DE58  B0 06     BCS $DE60                        A:7F X:55 Y:2C P:84 S:FB PPU:107,182 12222
DE5A  B5 00     LDA $00,X = $80                  A:7F X:55 Y:2C P:84 S:FB PPU:107,188 12224
DE5C  C9 80     CMP #$80                         A:80 X:55 Y:2C P:84 S:FB PPU:107,200 12228
DE5E  F0 04     BEQ $DE64                        A:80 X:55 Y:2C P:07 S:FB PPU:107,206 12230
DE64  A9 00     LDA #$00                         A:80 X:55 Y:2C P:07 S:FB PPU:107,215 12233
DE66  95 00     STA $00,X = $80                  A:00 X:55 Y:2C P:07 S:FB PPU:107,221 12235
DE68  24 01     BIT $01 = $FF                    A:00 X:55 Y:2C P:07 S:FB PPU:107,233 12239
DE6A  38        SEC                              A:00 X:55 Y:2C P:C7 S:FB PPU:107,242 12242
DE6B  D6 00     DEC $00,X = $00                  A:00 X:55 Y:2C P:C7 S:FB PPU:107,248 12244
DE6D  F0 0C     BEQ $DE7B                        A:00 X:55 Y:2C P:C5 S:FB PPU:107,266 12250
DE6F  10 0A     BPL $DE7B                        A:00 X:55 Y:2C P:C5 S:FB PPU:107,272 12252
DE71  50 08     BVC $DE7B                        A:00 X:55 Y:2C P:C5 S:FB PPU:107,278 12254
DE73  90 06     BCC $DE7B                        A:00 X:55 Y:2C P:C5 S:FB PPU:107,284 12256
DE75  B5 00     LDA $00,X = $FF                  A:00 X:55 Y:2C P:C5 S:FB PPU:107,290 12258
DE77  C9 FF     CMP #$FF                         A:FF X:55 Y:2C P:C5 S:FB PPU:107,302 12262
DE79  F0 04     BEQ $DE7F                        A:FF X:55 Y:2C P:47 S:FB PPU:107,308 12264
DE7F  A9 80     LDA #$80                         A:FF X:55 Y:2C P:47 S:FB PPU:107,317 12267
DE81  95 00     STA $00,X = $FF                  A:80 X:55 Y:2C P:C5 S:FB PPU:107,323 12269
DE83  B8        CLV                              A:80 X:55 Y:2C P:C5 S:FB PPU:107,335 12273
DE84  18        CLC                              A:80 X:55 Y:2C P:85 S:FB PPU:108,0   12275
DE85  D6 00     DEC $00,X = $80                  A:80 X:55 Y:2C P:84 S:FB PPU:108,6   12277
DE87  F0 0C     BEQ $DE95                        A:80 X:55 Y:2C P:04 S:FB PPU:108,24  12283
DE89  30 0A     BMI $DE95                        A:80 X:55 Y:2C P:04 S:FB PPU:108,30  12285
DE8B  70 08     BVS $DE95                        A:80 X:55 Y:2C P:04 S:FB PPU:108,36  12287
DE8D  B0 06     BCS $DE95                        A:80 X:55 Y:2C P:04 S:FB PPU:108,42  12289
DE8F  B5 00     LDA $00,X = $7F                  A:80 X:55 Y:2C P:04 S:FB PPU:108,48  12291
DE91  C9 7F     CMP #$7F                         A:7F X:55 Y:2C P:04 S:FB PPU:108,60  12295
DE93  F0 04     BEQ $DE99                        A:7F X:55 Y:2C P:07 S:FB PPU:108,66  12297
DE99  A9 01     LDA #$01                         A:7F X:55 Y:2C P:07 S:FB PPU:108,75  12300
DE9B  95 00     STA $00,X = $7F                  A:01 X:55 Y:2C P:05 S:FB PPU:108,81  12302
DE9D  D6 00     DEC $00,X = $01                  A:01 X:55 Y:2C P:05 S:FB PPU:108,93  12306
DE9F  F0 04     BEQ $DEA5                        A:01 X:55 Y:2C P:07 S:FB PPU:108,111 12312
DEA5  A9 33     LDA #$33                         A:01 X:55 Y:2C P:07 S:FB PPU:108,120 12315
DEA7  85 78     STA $78 = $7F                    A:33 X:55 Y:2C P:05 S:FB PPU:108,126 12317
DEA9  A9 44     LDA #$44                         A:33 X:55 Y:2C P:05 S:FB PPU:108,135 12320
DEAB  A0 78     LDY #$78                         A:44 X:55 Y:2C P:05 S:FB PPU:108,141 12322
DEAD  A2 00     LDX #$00                         A:44 X:55 Y:78 P:05 S:FB PPU:108,147 12324
DEAF  38        SEC                              A:44 X:00 Y:78 P:07 S:FB PPU:108,153 12326
DEB0  24 01     BIT $01 = $FF                    A:44 X:00 Y:78 P:07 S:FB PPU:108,159 12328
DEB2  B6 00     LDX $00,Y = $33                  A:44 X:00 Y:78 P:C5 S:FB PPU:108,168 12331
DEB4  90 12     BCC $DEC8                        A:44 X:33 Y:78 P:45 S:FB PPU:108,180 12335
DEB6  50 10     BVC $DEC8                        A:44 X:33 Y:78 P:45 S:FB PPU:108,186 12337
DEB8  30 0E     BMI $DEC8                        A:44 X:33 Y:78 P:45 S:FB PPU:108,192 12339
DEBA  F0 0C     BEQ $DEC8                        A:44 X:33 Y:78 P:45 S:FB PPU:108,198 12341
DEBC  E0 33     CPX #$33                         A:44 X:33 Y:78 P:45 S:FB PPU:108,204 12343
DEBE  D0 08     BNE $DEC8                        A:44 X:33 Y:78 P:47 S:FB PPU:108,210 12345
DEC0  C0 78     CPY #$78                         A:44 X:33 Y:78 P:47 S:FB PPU:108,216 12347
DEC2  D0 04     BNE $DEC8                        A:44 X:33 Y:78 P:47 S:FB PPU:108,222 12349
DEC4  C9 44     CMP #$44                         A:44 X:33 Y:78 P:47 S:FB PPU:108,228 12351
DEC6  F0 04     BEQ $DECC                        A:44 X:33 Y:78 P:47 S:FB PPU:108,234 12353
DECC  A9 97     LDA #$97                         A:44 X:33 Y:78 P:47 S:FB PPU:108,243 12356
DECE  85 7F     STA $7F = $00                    A:97 X:33 Y:78 P:C5 S:FB PPU:108,249 12358
DED0  A9 47     LDA #$47                         A:97 X:33 Y:78 P:C5 S:FB PPU:108,258 12361
DED2  A0 FF     LDY #$FF                         A:47 X:33 Y:78 P:45 S:FB PPU:108,264 12363
DED4  A2 00     LDX #$00                         A:47 X:33 Y:FF P:C5 S:FB PPU:108,270 12365
DED6  18        CLC                              A:47 X:00 Y:FF P:47 S:FB PPU:108,276 12367
DED7  B8        CLV                              A:47 X:00 Y:FF P:46 S:FB PPU:108,282 12369
DED8  B6 80     LDX $80,Y = $97                  A:47 X:00 Y:FF P:06 S:FB PPU:108,288 12371
DEDA  B0 12     BCS $DEEE                        A:47 X:97 Y:FF P:84 S:FB PPU:108,300 12375
DEDC  70 10     BVS $DEEE                        A:47 X:97 Y:FF P:84 S:FB PPU:108,306 12377
DEDE  10 0E     BPL $DEEE                        A:47 X:97 Y:FF P:84 S:FB PPU:108,312 12379
DEE0  F0 0C     BEQ $DEEE                        A:47 X:97 Y:FF P:84 S:FB PPU:108,318 12381
DEE2  E0 97     CPX #$97                         A:47 X:97 Y:FF P:84 S:FB PPU:108,324 12383
DEE4  D0 08     BNE $DEEE                        A:47 X:97 Y:FF P:07 S:FB PPU:108,330 12385
DEE6  C0 FF     CPY #$FF                         A:47 X:97 Y:FF P:07 S:FB PPU:108,336 12387
DEE8  D0 04     BNE $DEEE                        A:47 X:97 Y:FF P:07 S:FB PPU:109,1   12389
DEEA  C9 47     CMP #$47                         A:47 X:97 Y:FF P:07 S:FB PPU:109,7   12391
DEEC  F0 04     BEQ $DEF2                        A:47 X:97 Y:FF P:07 S:FB PPU:109,13  12393
DEF2  A9 00     LDA #$00                         A:47 X:97 Y:FF P:07 S:FB PPU:109,22  12396
DEF4  85 7F     STA $7F = $97                    A:00 X:97 Y:FF P:07 S:FB PPU:109,28  12398
DEF6  A9 47     LDA #$47                         A:00 X:97 Y:FF P:07 S:FB PPU:109,37  12401
DEF8  A0 FF     LDY #$FF                         A:47 X:97 Y:FF P:05 S:FB PPU:109,43  12403
DEFA  A2 69     LDX #$69                         A:47 X:97 Y:FF P:85 S:FB PPU:109,49  12405
DEFC  18        CLC                              A:47 X:69 Y:FF P:05 S:FB PPU:109,55  12407
DEFD  B8        CLV                              A:47 X:69 Y:FF P:04 S:FB PPU:109,61  12409
DEFE  96 80     STX $80,Y = $00                  A:47 X:69 Y:FF P:04 S:FB PPU:109,67  12411
DF00  B0 18     BCS $DF1A                        A:47 X:69 Y:FF P:04 S:FB PPU:109,79  12415
DF02  70 16     BVS $DF1A                        A:47 X:69 Y:FF P:04 S:FB PPU:109,85  12417
DF04  30 14     BMI $DF1A                        A:47 X:69 Y:FF P:04 S:FB PPU:109,91  12419
DF06  F0 12     BEQ $DF1A                        A:47 X:69 Y:FF P:04 S:FB PPU:109,97  12421
DF08  E0 69     CPX #$69                         A:47 X:69 Y:FF P:04 S:FB PPU:109,103 12423
DF0A  D0 0E     BNE $DF1A                        A:47 X:69 Y:FF P:07 S:FB PPU:109,109 12425
DF0C  C0 FF     CPY #$FF                         A:47 X:69 Y:FF P:07 S:FB PPU:109,115 12427
DF0E  D0 0A     BNE $DF1A                        A:47 X:69 Y:FF P:07 S:FB PPU:109,121 12429
DF10  C9 47     CMP #$47                         A:47 X:69 Y:FF P:07 S:FB PPU:109,127 12431
DF12  D0 06     BNE $DF1A                        A:47 X:69 Y:FF P:07 S:FB PPU:109,133 12433
DF14  A5 7F     LDA $7F = $69                    A:47 X:69 Y:FF P:07 S:FB PPU:109,139 12435
DF16  C9 69     CMP #$69                         A:69 X:69 Y:FF P:05 S:FB PPU:109,148 12438
DF18  F0 04     BEQ $DF1E                        A:69 X:69 Y:FF P:07 S:FB PPU:109,154 12440
DF1E  A9 F5     LDA #$F5                         A:69 X:69 Y:FF P:07 S:FB PPU:109,163 12443
DF20  85 4F     STA $4F = $00                    A:F5 X:69 Y:FF P:85 S:FB PPU:109,169 12445
DF22  A9 47     LDA #$47                         A:F5 X:69 Y:FF P:85 S:FB PPU:109,178 12448
DF24  A0 4F     LDY #$4F                         A:47 X:69 Y:FF P:05 S:FB PPU:109,184 12450
DF26  24 01     BIT $01 = $FF                    A:47 X:69 Y:4F P:05 S:FB PPU:109,190 12452
DF28  A2 00     LDX #$00                         A:47 X:69 Y:4F P:C5 S:FB PPU:109,199 12455
DF2A  38        SEC                              A:47 X:00 Y:4F P:47 S:FB PPU:109,205 12457
DF2B  96 00     STX $00,Y = $F5                  A:47 X:00 Y:4F P:47 S:FB PPU:109,211 12459
DF2D  90 16     BCC $DF45                        A:47 X:00 Y:4F P:47 S:FB PPU:109,223 12463
DF2F  50 14     BVC $DF45                        A:47 X:00 Y:4F P:47 S:FB PPU:109,229 12465
DF31  30 12     BMI $DF45                        A:47 X:00 Y:4F P:47 S:FB PPU:109,235 12467
DF33  D0 10     BNE $DF45                        A:47 X:00 Y:4F P:47 S:FB PPU:109,241 12469
DF35  E0 00     CPX #$00                         A:47 X:00 Y:4F P:47 S:FB PPU:109,247 12471
DF37  D0 0C     BNE $DF45                        A:47 X:00 Y:4F P:47 S:FB PPU:109,253 12473
DF39  C0 4F     CPY #$4F                         A:47 X:00 Y:4F P:47 S:FB PPU:109,259 12475
DF3B  D0 08     BNE $DF45                        A:47 X:00 Y:4F P:47 S:FB PPU:109,265 12477
DF3D  C9 47     CMP #$47                         A:47 X:00 Y:4F P:47 S:FB PPU:109,271 12479
DF3F  D0 04     BNE $DF45                        A:47 X:00 Y:4F P:47 S:FB PPU:109,277 12481
DF41  A5 4F     LDA $4F = $00                    A:47 X:00 Y:4F P:47 S:FB PPU:109,283 12483
DF43  F0 04     BEQ $DF49                        A:00 X:00 Y:4F P:47 S:FB PPU:109,292 12486
DF49  60        RTS                              A:00 X:00 Y:4F P:47 S:FB PPU:109,301 12489
C62C  20 AA E1  JSR $E1AA                        A:00 X:00 Y:4F P:47 S:FD PPU:109,319 12495
E1AA  A9 FF     LDA #$FF                         A:00 X:00 Y:4F P:47 S:FB PPU:109,337 12501
E1AC  85 01     STA $01 = $FF                    A:FF X:00 Y:4F P:C5 S:FB PPU:110,2   12503
E1AE  A9 AA     LDA #$AA                         A:FF X:00 Y:4F P:C5 S:FB PPU:110,11  12506
E1B0  8D 33 06  STA $0633 = $00                  A:AA X:00 Y:4F P:C5 S:FB PPU:110,17  12508
E1B3  A9 BB     LDA #$BB                         A:AA X:00 Y:4F P:C5 S:FB PPU:110,29  12512
E1B5  8D 89 06  STA $0689 = $00                  A:BB X:00 Y:4F P:C5 S:FB PPU:110,35  12514
E1B8  A2 00     LDX #$00                         A:BB X:00 Y:4F P:C5 S:FB PPU:110,47  12518
E1BA  A9 66     LDA #$66                         A:BB X:00 Y:4F P:47 S:FB PPU:110,53  12520
E1BC  24 01     BIT $01 = $FF                    A:66 X:00 Y:4F P:45 S:FB PPU:110,59  12522
E1BE  38        SEC                              A:66 X:00 Y:4F P:C5 S:FB PPU:110,68  12525
E1BF  A0 00     LDY #$00                         A:66 X:00 Y:4F P:C5 S:FB PPU:110,74  12527
E1C1  BC 33 06  LDY $0633,X = $AA                A:66 X:00 Y:00 P:47 S:FB PPU:110,80  12529
E1C4  10 12     BPL $E1D8                        A:66 X:00 Y:AA P:C5 S:FB PPU:110,92  12533
E1C6  F0 10     BEQ $E1D8                        A:66 X:00 Y:AA P:C5 S:FB PPU:110,98  12535
E1C8  50 0E     BVC $E1D8                        A:66 X:00 Y:AA P:C5 S:FB PPU:110,104 12537
E1CA  90 0C     BCC $E1D8                        A:66 X:00 Y:AA P:C5 S:FB PPU:110,110 12539
E1CC  C9 66     CMP #$66                         A:66 X:00 Y:AA P:C5 S:FB PPU:110,116 12541
E1CE  D0 08     BNE $E1D8                        A:66 X:00 Y:AA P:47 S:FB PPU:110,122 12543
E1D0  E0 00     CPX #$00                         A:66 X:00 Y:AA P:47 S:FB PPU:110,128 12545
E1D2  D0 04     BNE $E1D8                        A:66 X:00 Y:AA P:47 S:FB PPU:110,134 12547
E1D4  C0 AA     CPY #$AA                         A:66 X:00 Y:AA P:47 S:FB PPU:110,140 12549
E1D6  F0 04     BEQ $E1DC                        A:66 X:00 Y:AA P:47 S:FB PPU:110,146 12551
E1DC  A2 8A     LDX #$8A                         A:66 X:00 Y:AA P:47 S:FB PPU:110,155 12554
E1DE  A9 66     LDA #$66                         A:66 X:8A Y:AA P:C5 S:FB PPU:110,161 12556
E1E0  B8        CLV                              A:66 X:8A Y:AA P:45 S:FB PPU:110,167 12558
E1E1  18        CLC                              A:66 X:8A Y:AA P:05 S:FB PPU:110,173 12560
E1E2  A0 00     LDY #$00                         A:66 X:8A Y:AA P:04 S:FB PPU:110,179 12562
E1E4  BC FF 05  LDY $05FF,X = $BB                A:66 X:8A Y:00 P:06 S:FB PPU:110,185 12564
E1E7  10 12     BPL $E1FB                        A:66 X:8A Y:BB P:84 S:FB PPU:110,200 12569
E1E9  F0 10     BEQ $E1FB                        A:66 X:8A Y:BB P:84 S:FB PPU:110,206 12571
E1EB  70 0E     BVS $E1FB                        A:66 X:8A Y:BB P:84 S:FB PPU:110,212 12573
E1ED  B0 0C     BCS $E1FB                        A:66 X:8A Y:BB P:84 S:FB PPU:110,218 12575
E1EF  C0 BB     CPY #$BB                         A:66 X:8A Y:BB P:84 S:FB PPU:110,224 12577
E1F1  D0 08     BNE $E1FB                        A:66 X:8A Y:BB P:07 S:FB PPU:110,230 12579
E1F3  C9 66     CMP #$66                         A:66 X:8A Y:BB P:07 S:FB PPU:110,236 12581
E1F5  D0 04     BNE $E1FB                        A:66 X:8A Y:BB P:07 S:FB PPU:110,242 12583
E1F7  E0 8A     CPX #$8A                         A:66 X:8A Y:BB P:07 S:FB PPU:110,248 12585
E1F9  F0 04     BEQ $E1FF                        A:66 X:8A Y:BB P:07 S:FB PPU:110,254 12587
E1FF  A0 53     LDY #$53                         A:66 X:8A Y:BB P:07 S:FB PPU:110,263 12590
E201  A9 AA     LDA #$AA                         A:66 X:8A Y:53 P:05 S:FB PPU:110,269 12592
E203  A2 78     LDX #$78                         A:AA X:8A Y:53 P:85 S:FB PPU:110,275 12594
E205  8D 78 06  STA $0678 = $00                  A:AA X:78 Y:53 P:05 S:FB PPU:110,281 12596
E208  20 B6 F7  JSR $F7B6                        A:AA X:78 Y:53 P:05 S:FB PPU:110,293 12600
F7B6  18        CLC                              A:AA X:78 Y:53 P:05 S:F9 PPU:110,311 12606
F7B7  A9 FF     LDA #$FF                         A:AA X:78 Y:53 P:04 S:F9 PPU:110,317 12608
F7B9  85 01     STA $01 = $FF                    A:FF X:78 Y:53 P:84 S:F9 PPU:110,323 12610
F7BB  24 01     BIT $01 = $FF                    A:FF X:78 Y:53 P:84 S:F9 PPU:110,332 12613
F7BD  A9 55     LDA #$55                         A:FF X:78 Y:53 P:C4 S:F9 PPU:111,0   12616
F7BF  60        RTS                              A:55 X:78 Y:53 P:44 S:F9 PPU:111,6   12618
E20B  1D 00 06  ORA $0600,X = $AA                A:55 X:78 Y:53 P:44 S:FB PPU:111,24  12624
E20E  20 C0 F7  JSR $F7C0                        A:FF X:78 Y:53 P:C4 S:FB PPU:111,36  12628
F7C0  B0 09     BCS $F7CB                        A:FF X:78 Y:53 P:C4 S:F9 PPU:111,54  12634
F7C2  10 07     BPL $F7CB                        A:FF X:78 Y:53 P:C4 S:F9 PPU:111,60  12636
F7C4  C9 FF     CMP #$FF                         A:FF X:78 Y:53 P:C4 S:F9 PPU:111,66  12638
F7C6  D0 03     BNE $F7CB                        A:FF X:78 Y:53 P:47 S:F9 PPU:111,72  12640
F7C8  50 01     BVC $F7CB                        A:FF X:78 Y:53 P:47 S:F9 PPU:111,78  12642
F7CA  60        RTS                              A:FF X:78 Y:53 P:47 S:F9 PPU:111,84  12644
E211  C8        INY                              A:FF X:78 Y:53 P:47 S:FB PPU:111,102 12650
E212  A9 00     LDA #$00                         A:FF X:78 Y:54 P:45 S:FB PPU:111,108 12652
E214  8D 78 06  STA $0678 = $AA                  A:00 X:78 Y:54 P:47 S:FB PPU:111,114 12654
E217  20 CE F7  JSR $F7CE                        A:00 X:78 Y:54 P:47 S:FB PPU:111,126 12658
F7CE  38        SEC                              A:00 X:78 Y:54 P:47 S:F9 PPU:111,144 12664
F7CF  B8        CLV                              A:00 X:78 Y:54 P:47 S:F9 PPU:111,150 12666
F7D0  A9 00     LDA #$00                         A:00 X:78 Y:54 P:07 S:F9 PPU:111,156 12668
F7D2  60        RTS                              A:00 X:78 Y:54 P:07 S:F9 PPU:111,162 12670
E21A  1D 00 06  ORA $0600,X = $00                A:00 X:78 Y:54 P:07 S:FB PPU:111,180 12676
E21D  20 D3 F7  JSR $F7D3                        A:00 X:78 Y:54 P:07 S:FB PPU:111,192 12680
F7D3  D0 07     BNE $F7DC                        A:00 X:78 Y:54 P:07 S:F9 PPU:111,210 12686
F7D5  70 05     BVS $F7DC                        A:00 X:78 Y:54 P:07 S:F9 PPU:111,216 12688
F7D7  90 03     BCC $F7DC                        A:00 X:78 Y:54 P:07 S:F9 PPU:111,222 12690
F7D9  30 01     BMI $F7DC                        A:00 X:78 Y:54 P:07 S:F9 PPU:111,228 12692
F7DB  60        RTS                              A:00 X:78 Y:54 P:07 S:F9 PPU:111,234 12694
E220  C8        INY                              A:00 X:78 Y:54 P:07 S:FB PPU:111,252 12700
E221  A9 AA     LDA #$AA                         A:00 X:78 Y:55 P:05 S:FB PPU:111,258 12702
E223  8D 78 06  STA $0678 = $00                  A:AA X:78 Y:55 P:85 S:FB PPU:111,264 12704
E226  20 DF F7  JSR $F7DF                        A:AA X:78 Y:55 P:85 S:FB PPU:111,276 12708
F7DF  18        CLC                              A:AA X:78 Y:55 P:85 S:F9 PPU:111,294 12714
F7E0  24 01     BIT $01 = $FF                    A:AA X:78 Y:55 P:84 S:F9 PPU:111,300 12716
F7E2  A9 55     LDA #$55                         A:AA X:78 Y:55 P:C4 S:F9 PPU:111,309 12719
F7E4  60        RTS                              A:55 X:78 Y:55 P:44 S:F9 PPU:111,315 12721
E229  3D 00 06  AND $0600,X = $AA                A:55 X:78 Y:55 P:44 S:FB PPU:111,333 12727
E22C  20 E5 F7  JSR $F7E5                        A:00 X:78 Y:55 P:46 S:FB PPU:112,4   12731
F7E5  D0 07     BNE $F7EE                        A:00 X:78 Y:55 P:46 S:F9 PPU:112,22  12737
F7E7  50 05     BVC $F7EE                        A:00 X:78 Y:55 P:46 S:F9 PPU:112,28  12739
F7E9  B0 03     BCS $F7EE                        A:00 X:78 Y:55 P:46 S:F9 PPU:112,34  12741
F7EB  30 01     BMI $F7EE                        A:00 X:78 Y:55 P:46 S:F9 PPU:112,40  12743
F7ED  60        RTS                              A:00 X:78 Y:55 P:46 S:F9 PPU:112,46  12745
E22F  C8        INY                              A:00 X:78 Y:55 P:46 S:FB PPU:112,64  12751
E230  A9 EF     LDA #$EF                         A:00 X:78 Y:56 P:44 S:FB PPU:112,70  12753
E232  8D 78 06  STA $0678 = $AA                  A:EF X:78 Y:56 P:C4 S:FB PPU:112,76  12755
E235  20 F1 F7  JSR $F7F1                        A:EF X:78 Y:56 P:C4 S:FB PPU:112,88  12759
F7F1  38        SEC                              A:EF X:78 Y:56 P:C4 S:F9 PPU:112,106 12765
F7F2  B8        CLV                              A:EF X:78 Y:56 P:C5 S:F9 PPU:112,112 12767
F7F3  A9 F8     LDA #$F8                         A:EF X:78 Y:56 P:85 S:F9 PPU:112,118 12769
F7F5  60        RTS                              A:F8 X:78 Y:56 P:85 S:F9 PPU:112,124 12771
E238  3D 00 06  AND $0600,X = $EF                A:F8 X:78 Y:56 P:85 S:FB PPU:112,142 12777
E23B  20 F6 F7  JSR $F7F6                        A:E8 X:78 Y:56 P:85 S:FB PPU:112,154 12781
F7F6  90 09     BCC $F801                        A:E8 X:78 Y:56 P:85 S:F9 PPU:112,172 12787
F7F8  10 07     BPL $F801                        A:E8 X:78 Y:56 P:85 S:F9 PPU:112,178 12789
F7FA  C9 E8     CMP #$E8                         A:E8 X:78 Y:56 P:85 S:F9 PPU:112,184 12791
F7FC  D0 03     BNE $F801                        A:E8 X:78 Y:56 P:07 S:F9 PPU:112,190 12793
F7FE  70 01     BVS $F801                        A:E8 X:78 Y:56 P:07 S:F9 PPU:112,196 12795
F800  60        RTS                              A:E8 X:78 Y:56 P:07 S:F9 PPU:112,202 12797
E23E  C8        INY                              A:E8 X:78 Y:56 P:07 S:FB PPU:112,220 12803
E23F  A9 AA     LDA #$AA                         A:E8 X:78 Y:57 P:05 S:FB PPU:112,226 12805
E241  8D 78 06  STA $0678 = $EF                  A:AA X:78 Y:57 P:85 S:FB PPU:112,232 12807
E244  20 04 F8  JSR $F804                        A:AA X:78 Y:57 P:85 S:FB PPU:112,244 12811
F804  18        CLC                              A:AA X:78 Y:57 P:85 S:F9 PPU:112,262 12817
F805  24 01     BIT $01 = $FF                    A:AA X:78 Y:57 P:84 S:F9 PPU:112,268 12819
F807  A9 5F     LDA #$5F                         A:AA X:78 Y:57 P:C4 S:F9 PPU:112,277 12822
F809  60        RTS                              A:5F X:78 Y:57 P:44 S:F9 PPU:112,283 12824
E247  5D 00 06  EOR $0600,X = $AA                A:5F X:78 Y:57 P:44 S:FB PPU:112,301 12830
E24A  20 0A F8  JSR $F80A                        A:F5 X:78 Y:57 P:C4 S:FB PPU:112,313 12834
F80A  B0 09     BCS $F815                        A:F5 X:78 Y:57 P:C4 S:F9 PPU:112,331 12840
F80C  10 07     BPL $F815                        A:F5 X:78 Y:57 P:C4 S:F9 PPU:112,337 12842
F80E  C9 F5     CMP #$F5                         A:F5 X:78 Y:57 P:C4 S:F9 PPU:113,2   12844
F810  D0 03     BNE $F815                        A:F5 X:78 Y:57 P:47 S:F9 PPU:113,8   12846
F812  50 01     BVC $F815                        A:F5 X:78 Y:57 P:47 S:F9 PPU:113,14  12848
F814  60        RTS                              A:F5 X:78 Y:57 P:47 S:F9 PPU:113,20  12850
E24D  C8        INY                              A:F5 X:78 Y:57 P:47 S:FB PPU:113,38  12856
E24E  A9 70     LDA #$70                         A:F5 X:78 Y:58 P:45 S:FB PPU:113,44  12858
E250  8D 78 06  STA $0678 = $AA                  A:70 X:78 Y:58 P:45 S:FB PPU:113,50  12860
E253  20 18 F8  JSR $F818                        A:70 X:78 Y:58 P:45 S:FB PPU:113,62  12864
F818  38        SEC                              A:70 X:78 Y:58 P:45 S:F9 PPU:113,80  12870
F819  B8        CLV                              A:70 X:78 Y:58 P:45 S:F9 PPU:113,86  12872
F81A  A9 70     LDA #$70                         A:70 X:78 Y:58 P:05 S:F9 PPU:113,92  12874
F81C  60        RTS                              A:70 X:78 Y:58 P:05 S:F9 PPU:113,98  12876
E256  5D 00 06  EOR $0600,X = $70                A:70 X:78 Y:58 P:05 S:FB PPU:113,116 12882
E259  20 1D F8  JSR $F81D                        A:00 X:78 Y:58 P:07 S:FB PPU:113,128 12886
F81D  D0 07     BNE $F826                        A:00 X:78 Y:58 P:07 S:F9 PPU:113,146 12892
F81F  70 05     BVS $F826                        A:00 X:78 Y:58 P:07 S:F9 PPU:113,152 12894
F821  90 03     BCC $F826                        A:00 X:78 Y:58 P:07 S:F9 PPU:113,158 12896
F823  30 01     BMI $F826                        A:00 X:78 Y:58 P:07 S:F9 PPU:113,164 12898
F825  60        RTS                              A:00 X:78 Y:58 P:07 S:F9 PPU:113,170 12900
E25C  C8        INY                              A:00 X:78 Y:58 P:07 S:FB PPU:113,188 12906
E25D  A9 69     LDA #$69                         A:00 X:78 Y:59 P:05 S:FB PPU:113,194 12908
E25F  8D 78 06  STA $0678 = $70                  A:69 X:78 Y:59 P:05 S:FB PPU:113,200 12910
E262  20 29 F8  JSR $F829                        A:69 X:78 Y:59 P:05 S:FB PPU:113,212 12914
F829  18        CLC                              A:69 X:78 Y:59 P:05 S:F9 PPU:113,230 12920
F82A  24 01     BIT $01 = $FF                    A:69 X:78 Y:59 P:04 S:F9 PPU:113,236 12922
F82C  A9 00     LDA #$00                         A:69 X:78 Y:59 P:C4 S:F9 PPU:113,245 12925
F82E  60        RTS                              A:00 X:78 Y:59 P:46 S:F9 PPU:113,251 12927
E265  7D 00 06  ADC $0600,X = $69                A:00 X:78 Y:59 P:46 S:FB PPU:113,269 12933
E268  20 2F F8  JSR $F82F                        A:69 X:78 Y:59 P:04 S:FB PPU:113,281 12937
F82F  30 09     BMI $F83A                        A:69 X:78 Y:59 P:04 S:F9 PPU:113,299 12943
F831  B0 07     BCS $F83A                        A:69 X:78 Y:59 P:04 S:F9 PPU:113,305 12945
F833  C9 69     CMP #$69                         A:69 X:78 Y:59 P:04 S:F9 PPU:113,311 12947
F835  D0 03     BNE $F83A                        A:69 X:78 Y:59 P:07 S:F9 PPU:113,317 12949
F837  70 01     BVS $F83A                        A:69 X:78 Y:59 P:07 S:F9 PPU:113,323 12951
F839  60        RTS                              A:69 X:78 Y:59 P:07 S:F9 PPU:113,329 12953
E26B  C8        INY                              A:69 X:78 Y:59 P:07 S:FB PPU:114,6   12959
E26C  20 3D F8  JSR $F83D                        A:69 X:78 Y:5A P:05 S:FB PPU:114,12  12961
F83D  38        SEC                              A:69 X:78 Y:5A P:05 S:F9 PPU:114,30  12967
F83E  24 01     BIT $01 = $FF                    A:69 X:78 Y:5A P:05 S:F9 PPU:114,36  12969
F840  A9 00     LDA #$00                         A:69 X:78 Y:5A P:C5 S:F9 PPU:114,45  12972
F842  60        RTS                              A:00 X:78 Y:5A P:47 S:F9 PPU:114,51  12974
E26F  7D 00 06  ADC $0600,X = $69                A:00 X:78 Y:5A P:47 S:FB PPU:114,69  12980
E272  20 43 F8  JSR $F843                        A:6A X:78 Y:5A P:04 S:FB PPU:114,81  12984
F843  30 09     BMI $F84E                        A:6A X:78 Y:5A P:04 S:F9 PPU:114,99  12990
F845  B0 07     BCS $F84E                        A:6A X:78 Y:5A P:04 S:F9 PPU:114,105 12992
F847  C9 6A     CMP #$6A                         A:6A X:78 Y:5A P:04 S:F9 PPU:114,111 12994
F849  D0 03     BNE $F84E                        A:6A X:78 Y:5A P:07 S:F9 PPU:114,117 12996
F84B  70 01     BVS $F84E                        A:6A X:78 Y:5A P:07 S:F9 PPU:114,123 12998
F84D  60        RTS                              A:6A X:78 Y:5A P:07 S:F9 PPU:114,129 13000
E275  C8        INY                              A:6A X:78 Y:5A P:07 S:FB PPU:114,147 13006
E276  A9 7F     LDA #$7F                         A:6A X:78 Y:5B P:05 S:FB PPU:114,153 13008
E278  8D 78 06  STA $0678 = $69                  A:7F X:78 Y:5B P:05 S:FB PPU:114,159 13010
E27B  20 51 F8  JSR $F851                        A:7F X:78 Y:5B P:05 S:FB PPU:114,171 13014
F851  38        SEC                              A:7F X:78 Y:5B P:05 S:F9 PPU:114,189 13020
F852  B8        CLV                              A:7F X:78 Y:5B P:05 S:F9 PPU:114,195 13022
F853  A9 7F     LDA #$7F                         A:7F X:78 Y:5B P:05 S:F9 PPU:114,201 13024
F855  60        RTS                              A:7F X:78 Y:5B P:05 S:F9 PPU:114,207 13026
E27E  7D 00 06  ADC $0600,X = $7F                A:7F X:78 Y:5B P:05 S:FB PPU:114,225 13032
E281  20 56 F8  JSR $F856                        A:FF X:78 Y:5B P:C4 S:FB PPU:114,237 13036
F856  10 09     BPL $F861                        A:FF X:78 Y:5B P:C4 S:F9 PPU:114,255 13042
F858  B0 07     BCS $F861                        A:FF X:78 Y:5B P:C4 S:F9 PPU:114,261 13044
F85A  C9 FF     CMP #$FF                         A:FF X:78 Y:5B P:C4 S:F9 PPU:114,267 13046
F85C  D0 03     BNE $F861                        A:FF X:78 Y:5B P:47 S:F9 PPU:114,273 13048
F85E  50 01     BVC $F861                        A:FF X:78 Y:5B P:47 S:F9 PPU:114,279 13050
F860  60        RTS                              A:FF X:78 Y:5B P:47 S:F9 PPU:114,285 13052
E284  C8        INY                              A:FF X:78 Y:5B P:47 S:FB PPU:114,303 13058
E285  A9 80     LDA #$80                         A:FF X:78 Y:5C P:45 S:FB PPU:114,309 13060
E287  8D 78 06  STA $0678 = $7F                  A:80 X:78 Y:5C P:C5 S:FB PPU:114,315 13062
E28A  20 64 F8  JSR $F864                        A:80 X:78 Y:5C P:C5 S:FB PPU:114,327 13066
F864  18        CLC                              A:80 X:78 Y:5C P:C5 S:F9 PPU:115,4   13072
F865  24 01     BIT $01 = $FF                    A:80 X:78 Y:5C P:C4 S:F9 PPU:115,10  13074
F867  A9 7F     LDA #$7F                         A:80 X:78 Y:5C P:C4 S:F9 PPU:115,19  13077
F869  60        RTS                              A:7F X:78 Y:5C P:44 S:F9 PPU:115,25  13079
E28D  7D 00 06  ADC $0600,X = $80                A:7F X:78 Y:5C P:44 S:FB PPU:115,43  13085
E290  20 6A F8  JSR $F86A                        A:FF X:78 Y:5C P:84 S:FB PPU:115,55  13089
F86A  10 09     BPL $F875                        A:FF X:78 Y:5C P:84 S:F9 PPU:115,73  13095
F86C  B0 07     BCS $F875                        A:FF X:78 Y:5C P:84 S:F9 PPU:115,79  13097
F86E  C9 FF     CMP #$FF                         A:FF X:78 Y:5C P:84 S:F9 PPU:115,85  13099
F870  D0 03     BNE $F875                        A:FF X:78 Y:5C P:07 S:F9 PPU:115,91  13101
F872  70 01     BVS $F875                        A:FF X:78 Y:5C P:07 S:F9 PPU:115,97  13103
F874  60        RTS                              A:FF X:78 Y:5C P:07 S:F9 PPU:115,103 13105
E293  C8        INY                              A:FF X:78 Y:5C P:07 S:FB PPU:115,121 13111
E294  20 78 F8  JSR $F878                        A:FF X:78 Y:5D P:05 S:FB PPU:115,127 13113
F878  38        SEC                              A:FF X:78 Y:5D P:05 S:F9 PPU:115,145 13119
F879  B8        CLV                              A:FF X:78 Y:5D P:05 S:F9 PPU:115,151 13121
F87A  A9 7F     LDA #$7F                         A:FF X:78 Y:5D P:05 S:F9 PPU:115,157 13123
F87C  60        RTS                              A:7F X:78 Y:5D P:05 S:F9 PPU:115,163 13125
E297  7D 00 06  ADC $0600,X = $80                A:7F X:78 Y:5D P:05 S:FB PPU:115,181 13131
E29A  20 7D F8  JSR $F87D                        A:00 X:78 Y:5D P:07 S:FB PPU:115,193 13135
F87D  D0 07     BNE $F886                        A:00 X:78 Y:5D P:07 S:F9 PPU:115,211 13141
F87F  30 05     BMI $F886                        A:00 X:78 Y:5D P:07 S:F9 PPU:115,217 13143
F881  70 03     BVS $F886                        A:00 X:78 Y:5D P:07 S:F9 PPU:115,223 13145
F883  90 01     BCC $F886                        A:00 X:78 Y:5D P:07 S:F9 PPU:115,229 13147
F885  60        RTS                              A:00 X:78 Y:5D P:07 S:F9 PPU:115,235 13149
E29D  C8        INY                              A:00 X:78 Y:5D P:07 S:FB PPU:115,253 13155
E29E  A9 40     LDA #$40                         A:00 X:78 Y:5E P:05 S:FB PPU:115,259 13157
E2A0  8D 78 06  STA $0678 = $80                  A:40 X:78 Y:5E P:05 S:FB PPU:115,265 13159
E2A3  20 89 F8  JSR $F889                        A:40 X:78 Y:5E P:05 S:FB PPU:115,277 13163
F889  24 01     BIT $01 = $FF                    A:40 X:78 Y:5E P:05 S:F9 PPU:115,295 13169
F88B  A9 40     LDA #$40                         A:40 X:78 Y:5E P:C5 S:F9 PPU:115,304 13172
F88D  60        RTS                              A:40 X:78 Y:5E P:45 S:F9 PPU:115,310 13174
E2A6  DD 00 06  CMP $0600,X = $40                A:40 X:78 Y:5E P:45 S:FB PPU:115,328 13180
E2A9  20 8E F8  JSR $F88E                        A:40 X:78 Y:5E P:47 S:FB PPU:115,340 13184
F88E  30 07     BMI $F897                        A:40 X:78 Y:5E P:47 S:F9 PPU:116,17  13190
F890  90 05     BCC $F897                        A:40 X:78 Y:5E P:47 S:F9 PPU:116,23  13192
F892  D0 03     BNE $F897                        A:40 X:78 Y:5E P:47 S:F9 PPU:116,29  13194
F894  50 01     BVC $F897                        A:40 X:78 Y:5E P:47 S:F9 PPU:116,35  13196
F896  60        RTS                              A:40 X:78 Y:5E P:47 S:F9 PPU:116,41  13198
E2AC  C8        INY                              A:40 X:78 Y:5E P:47 S:FB PPU:116,59  13204
E2AD  48        PHA                              A:40 X:78 Y:5F P:45 S:FB PPU:116,65  13206
E2AE  A9 3F     LDA #$3F                         A:40 X:78 Y:5F P:45 S:FA PPU:116,74  13209
E2B0  8D 78 06  STA $0678 = $40                  A:3F X:78 Y:5F P:45 S:FA PPU:116,80  13211
E2B3  68        PLA                              A:3F X:78 Y:5F P:45 S:FA PPU:116,92  13215
E2B4  20 9A F8  JSR $F89A                        A:40 X:78 Y:5F P:45 S:FB PPU:116,104 13219
F89A  B8        CLV                              A:40 X:78 Y:5F P:45 S:F9 PPU:116,122 13225
F89B  60        RTS                              A:40 X:78 Y:5F P:05 S:F9 PPU:116,128 13227
E2B7  DD 00 06  CMP $0600,X = $3F                A:40 X:78 Y:5F P:05 S:FB PPU:116,146 13233
E2BA  20 9C F8  JSR $F89C                        A:40 X:78 Y:5F P:05 S:FB PPU:116,158 13237
F89C  F0 07     BEQ $F8A5                        A:40 X:78 Y:5F P:05 S:F9 PPU:116,176 13243
F89E  30 05     BMI $F8A5                        A:40 X:78 Y:5F P:05 S:F9 PPU:116,182 13245
F8A0  90 03     BCC $F8A5                        A:40 X:78 Y:5F P:05 S:F9 PPU:116,188 13247
F8A2  70 01     BVS $F8A5                        A:40 X:78 Y:5F P:05 S:F9 PPU:116,194 13249
F8A4  60        RTS                              A:40 X:78 Y:5F P:05 S:F9 PPU:116,200 13251
E2BD  C8        INY                              A:40 X:78 Y:5F P:05 S:FB PPU:116,218 13257
E2BE  48        PHA                              A:40 X:78 Y:60 P:05 S:FB PPU:116,224 13259
E2BF  A9 41     LDA #$41                         A:40 X:78 Y:60 P:05 S:FA PPU:116,233 13262
E2C1  8D 78 06  STA $0678 = $3F                  A:41 X:78 Y:60 P:05 S:FA PPU:116,239 13264
E2C4  68        PLA                              A:41 X:78 Y:60 P:05 S:FA PPU:116,251 13268
E2C5  DD 00 06  CMP $0600,X = $41                A:40 X:78 Y:60 P:05 S:FB PPU:116,263 13272
E2C8  20 A8 F8  JSR $F8A8                        A:40 X:78 Y:60 P:84 S:FB PPU:116,275 13276
F8A8  F0 05     BEQ $F8AF                        A:40 X:78 Y:60 P:84 S:F9 PPU:116,293 13282
F8AA  10 03     BPL $F8AF                        A:40 X:78 Y:60 P:84 S:F9 PPU:116,299 13284
F8AC  10 01     BPL $F8AF                        A:40 X:78 Y:60 P:84 S:F9 PPU:116,305 13286
F8AE  60        RTS                              A:40 X:78 Y:60 P:84 S:F9 PPU:116,311 13288
E2CB  C8        INY                              A:40 X:78 Y:60 P:84 S:FB PPU:116,329 13294
E2CC  48        PHA                              A:40 X:78 Y:61 P:04 S:FB PPU:116,335 13296
E2CD  A9 00     LDA #$00                         A:40 X:78 Y:61 P:04 S:FA PPU:117,3   13299
E2CF  8D 78 06  STA $0678 = $41                  A:00 X:78 Y:61 P:06 S:FA PPU:117,9   13301
E2D2  68        PLA                              A:00 X:78 Y:61 P:06 S:FA PPU:117,21  13305
E2D3  20 B2 F8  JSR $F8B2                        A:40 X:78 Y:61 P:04 S:FB PPU:117,33  13309
F8B2  A9 80     LDA #$80                         A:40 X:78 Y:61 P:04 S:F9 PPU:117,51  13315
F8B4  60        RTS                              A:80 X:78 Y:61 P:84 S:F9 PPU:117,57  13317
E2D6  DD 00 06  CMP $0600,X = $00                A:80 X:78 Y:61 P:84 S:FB PPU:117,75  13323
E2D9  20 B5 F8  JSR $F8B5                        A:80 X:78 Y:61 P:85 S:FB PPU:117,87  13327
F8B5  F0 05     BEQ $F8BC                        A:80 X:78 Y:61 P:85 S:F9 PPU:117,105 13333
F8B7  10 03     BPL $F8BC                        A:80 X:78 Y:61 P:85 S:F9 PPU:117,111 13335
F8B9  90 01     BCC $F8BC                        A:80 X:78 Y:61 P:85 S:F9 PPU:117,117 13337
F8BB  60        RTS                              A:80 X:78 Y:61 P:85 S:F9 PPU:117,123 13339
E2DC  C8        INY                              A:80 X:78 Y:61 P:85 S:FB PPU:117,141 13345
E2DD  48        PHA                              A:80 X:78 Y:62 P:05 S:FB PPU:117,147 13347
E2DE  A9 80     LDA #$80                         A:80 X:78 Y:62 P:05 S:FA PPU:117,156 13350
E2E0  8D 78 06  STA $0678 = $00                  A:80 X:78 Y:62 P:85 S:FA PPU:117,162 13352
E2E3  68        PLA                              A:80 X:78 Y:62 P:85 S:FA PPU:117,174 13356
E2E4  DD 00 06  CMP $0600,X = $80                A:80 X:78 Y:62 P:85 S:FB PPU:117,186 13360
E2E7  20 BF F8  JSR $F8BF                        A:80 X:78 Y:62 P:07 S:FB PPU:117,198 13364
F8BF  D0 05     BNE $F8C6                        A:80 X:78 Y:62 P:07 S:F9 PPU:117,216 13370
F8C1  30 03     BMI $F8C6                        A:80 X:78 Y:62 P:07 S:F9 PPU:117,222 13372
F8C3  90 01     BCC $F8C6                        A:80 X:78 Y:62 P:07 S:F9 PPU:117,228 13374
F8C5  60        RTS                              A:80 X:78 Y:62 P:07 S:F9 PPU:117,234 13376
E2EA  C8        INY                              A:80 X:78 Y:62 P:07 S:FB PPU:117,252 13382
E2EB  48        PHA                              A:80 X:78 Y:63 P:05 S:FB PPU:117,258 13384
E2EC  A9 81     LDA #$81                         A:80 X:78 Y:63 P:05 S:FA PPU:117,267 13387
E2EE  8D 78 06  STA $0678 = $80                  A:81 X:78 Y:63 P:85 S:FA PPU:117,273 13389
E2F1  68        PLA                              A:81 X:78 Y:63 P:85 S:FA PPU:117,285 13393
E2F2  DD 00 06  CMP $0600,X = $81                A:80 X:78 Y:63 P:85 S:FB PPU:117,297 13397
E2F5  20 C9 F8  JSR $F8C9                        A:80 X:78 Y:63 P:84 S:FB PPU:117,309 13401
F8C9  B0 05     BCS $F8D0                        A:80 X:78 Y:63 P:84 S:F9 PPU:117,327 13407
F8CB  F0 03     BEQ $F8D0                        A:80 X:78 Y:63 P:84 S:F9 PPU:117,333 13409
F8CD  10 01     BPL $F8D0                        A:80 X:78 Y:63 P:84 S:F9 PPU:117,339 13411
F8CF  60        RTS                              A:80 X:78 Y:63 P:84 S:F9 PPU:118,4   13413
E2F8  C8        INY                              A:80 X:78 Y:63 P:84 S:FB PPU:118,22  13419
E2F9  48        PHA                              A:80 X:78 Y:64 P:04 S:FB PPU:118,28  13421
E2FA  A9 7F     LDA #$7F                         A:80 X:78 Y:64 P:04 S:FA PPU:118,37  13424
E2FC  8D 78 06  STA $0678 = $81                  A:7F X:78 Y:64 P:04 S:FA PPU:118,43  13426
E2FF  68        PLA                              A:7F X:78 Y:64 P:04 S:FA PPU:118,55  13430
E300  DD 00 06  CMP $0600,X = $7F                A:80 X:78 Y:64 P:84 S:FB PPU:118,67  13434
E303  20 D3 F8  JSR $F8D3                        A:80 X:78 Y:64 P:05 S:FB PPU:118,79  13438
F8D3  90 05     BCC $F8DA                        A:80 X:78 Y:64 P:05 S:F9 PPU:118,97  13444
F8D5  F0 03     BEQ $F8DA                        A:80 X:78 Y:64 P:05 S:F9 PPU:118,103 13446
F8D7  30 01     BMI $F8DA                        A:80 X:78 Y:64 P:05 S:F9 PPU:118,109 13448
F8D9  60        RTS                              A:80 X:78 Y:64 P:05 S:F9 PPU:118,115 13450
E306  C8        INY                              A:80 X:78 Y:64 P:05 S:FB PPU:118,133 13456
E307  A9 40     LDA #$40                         A:80 X:78 Y:65 P:05 S:FB PPU:118,139 13458
E309  8D 78 06  STA $0678 = $7F                  A:40 X:78 Y:65 P:05 S:FB PPU:118,145 13460
E30C  20 31 F9  JSR $F931                        A:40 X:78 Y:65 P:05 S:FB PPU:118,157 13464
F931  24 01     BIT $01 = $FF                    A:40 X:78 Y:65 P:05 S:F9 PPU:118,175 13470
F933  A9 40     LDA #$40                         A:40 X:78 Y:65 P:C5 S:F9 PPU:118,184 13473
F935  38        SEC                              A:40 X:78 Y:65 P:45 S:F9 PPU:118,190 13475
F936  60        RTS                              A:40 X:78 Y:65 P:45 S:F9 PPU:118,196 13477
E30F  FD 00 06  SBC $0600,X = $40                A:40 X:78 Y:65 P:45 S:FB PPU:118,214 13483
E312  20 37 F9  JSR $F937                        A:00 X:78 Y:65 P:07 S:FB PPU:118,226 13487
F937  30 0B     BMI $F944                        A:00 X:78 Y:65 P:07 S:F9 PPU:118,244 13493
F939  90 09     BCC $F944                        A:00 X:78 Y:65 P:07 S:F9 PPU:118,250 13495
F93B  D0 07     BNE $F944                        A:00 X:78 Y:65 P:07 S:F9 PPU:118,256 13497
F93D  70 05     BVS $F944                        A:00 X:78 Y:65 P:07 S:F9 PPU:118,262 13499
F93F  C9 00     CMP #$00                         A:00 X:78 Y:65 P:07 S:F9 PPU:118,268 13501
F941  D0 01     BNE $F944                        A:00 X:78 Y:65 P:07 S:F9 PPU:118,274 13503
F943  60        RTS                              A:00 X:78 Y:65 P:07 S:F9 PPU:118,280 13505
E315  C8        INY                              A:00 X:78 Y:65 P:07 S:FB PPU:118,298 13511
E316  A9 3F     LDA #$3F                         A:00 X:78 Y:66 P:05 S:FB PPU:118,304 13513
E318  8D 78 06  STA $0678 = $40                  A:3F X:78 Y:66 P:05 S:FB PPU:118,310 13515
E31B  20 47 F9  JSR $F947                        A:3F X:78 Y:66 P:05 S:FB PPU:118,322 13519
F947  B8        CLV                              A:3F X:78 Y:66 P:05 S:F9 PPU:118,340 13525
F948  38        SEC                              A:3F X:78 Y:66 P:05 S:F9 PPU:119,5   13527
F949  A9 40     LDA #$40                         A:3F X:78 Y:66 P:05 S:F9 PPU:119,11  13529
F94B  60        RTS                              A:40 X:78 Y:66 P:05 S:F9 PPU:119,17  13531
E31E  FD 00 06  SBC $0600,X = $3F                A:40 X:78 Y:66 P:05 S:FB PPU:119,35  13537
E321  20 4C F9  JSR $F94C                        A:01 X:78 Y:66 P:05 S:FB PPU:119,47  13541
F94C  F0 0B     BEQ $F959                        A:01 X:78 Y:66 P:05 S:F9 PPU:119,65  13547
F94E  30 09     BMI $F959                        A:01 X:78 Y:66 P:05 S:F9 PPU:119,71  13549
F950  90 07     BCC $F959                        A:01 X:78 Y:66 P:05 S:F9 PPU:119,77  13551
F952  70 05     BVS $F959                        A:01 X:78 Y:66 P:05 S:F9 PPU:119,83  13553
F954  C9 01     CMP #$01                         A:01 X:78 Y:66 P:05 S:F9 PPU:119,89  13555
F956  D0 01     BNE $F959                        A:01 X:78 Y:66 P:07 S:F9 PPU:119,95  13557
F958  60        RTS                              A:01 X:78 Y:66 P:07 S:F9 PPU:119,101 13559
E324  C8        INY                              A:01 X:78 Y:66 P:07 S:FB PPU:119,119 13565
E325  A9 41     LDA #$41                         A:01 X:78 Y:67 P:05 S:FB PPU:119,125 13567
E327  8D 78 06  STA $0678 = $3F                  A:41 X:78 Y:67 P:05 S:FB PPU:119,131 13569
E32A  20 5C F9  JSR $F95C                        A:41 X:78 Y:67 P:05 S:FB PPU:119,143 13573
F95C  A9 40     LDA #$40                         A:41 X:78 Y:67 P:05 S:F9 PPU:119,161 13579
F95E  38        SEC                              A:40 X:78 Y:67 P:05 S:F9 PPU:119,167 13581
F95F  24 01     BIT $01 = $FF                    A:40 X:78 Y:67 P:05 S:F9 PPU:119,173 13583
F961  60        RTS                              A:40 X:78 Y:67 P:C5 S:F9 PPU:119,182 13586
E32D  FD 00 06  SBC $0600,X = $41                A:40 X:78 Y:67 P:C5 S:FB PPU:119,200 13592
E330  20 62 F9  JSR $F962                        A:FF X:78 Y:67 P:84 S:FB PPU:119,212 13596
F962  B0 0B     BCS $F96F                        A:FF X:78 Y:67 P:84 S:F9 PPU:119,230 13602
F964  F0 09     BEQ $F96F                        A:FF X:78 Y:67 P:84 S:F9 PPU:119,236 13604
F966  10 07     BPL $F96F                        A:FF X:78 Y:67 P:84 S:F9 PPU:119,242 13606
F968  70 05     BVS $F96F                        A:FF X:78 Y:67 P:84 S:F9 PPU:119,248 13608
F96A  C9 FF     CMP #$FF                         A:FF X:78 Y:67 P:84 S:F9 PPU:119,254 13610
F96C  D0 01     BNE $F96F                        A:FF X:78 Y:67 P:07 S:F9 PPU:119,260 13612
F96E  60        RTS                              A:FF X:78 Y:67 P:07 S:F9 PPU:119,266 13614
E333  C8        INY                              A:FF X:78 Y:67 P:07 S:FB PPU:119,284 13620
E334  A9 00     LDA #$00                         A:FF X:78 Y:68 P:05 S:FB PPU:119,290 13622
E336  8D 78 06  STA $0678 = $41                  A:00 X:78 Y:68 P:07 S:FB PPU:119,296 13624
E339  20 72 F9  JSR $F972                        A:00 X:78 Y:68 P:07 S:FB PPU:119,308 13628
F972  18        CLC                              A:00 X:78 Y:68 P:07 S:F9 PPU:119,326 13634
F973  A9 80     LDA #$80                         A:00 X:78 Y:68 P:06 S:F9 PPU:119,332 13636
F975  60        RTS                              A:80 X:78 Y:68 P:84 S:F9 PPU:119,338 13638
E33C  FD 00 06  SBC $0600,X = $00                A:80 X:78 Y:68 P:84 S:FB PPU:120,15  13644
E33F  20 76 F9  JSR $F976                        A:7F X:78 Y:68 P:45 S:FB PPU:120,27  13648
F976  90 05     BCC $F97D                        A:7F X:78 Y:68 P:45 S:F9 PPU:120,45  13654
F978  C9 7F     CMP #$7F                         A:7F X:78 Y:68 P:45 S:F9 PPU:120,51  13656
F97A  D0 01     BNE $F97D                        A:7F X:78 Y:68 P:47 S:F9 PPU:120,57  13658
F97C  60        RTS                              A:7F X:78 Y:68 P:47 S:F9 PPU:120,63  13660
E342  C8        INY                              A:7F X:78 Y:68 P:47 S:FB PPU:120,81  13666
E343  A9 7F     LDA #$7F                         A:7F X:78 Y:69 P:45 S:FB PPU:120,87  13668
E345  8D 78 06  STA $0678 = $00                  A:7F X:78 Y:69 P:45 S:FB PPU:120,93  13670
E348  20 80 F9  JSR $F980                        A:7F X:78 Y:69 P:45 S:FB PPU:120,105 13674
F980  38        SEC                              A:7F X:78 Y:69 P:45 S:F9 PPU:120,123 13680
F981  A9 81     LDA #$81                         A:7F X:78 Y:69 P:45 S:F9 PPU:120,129 13682
F983  60        RTS                              A:81 X:78 Y:69 P:C5 S:F9 PPU:120,135 13684
E34B  FD 00 06  SBC $0600,X = $7F                A:81 X:78 Y:69 P:C5 S:FB PPU:120,153 13690
E34E  20 84 F9  JSR $F984                        A:02 X:78 Y:69 P:45 S:FB PPU:120,165 13694
F984  50 07     BVC $F98D                        A:02 X:78 Y:69 P:45 S:F9 PPU:120,183 13700
F986  90 05     BCC $F98D                        A:02 X:78 Y:69 P:45 S:F9 PPU:120,189 13702
F988  C9 02     CMP #$02                         A:02 X:78 Y:69 P:45 S:F9 PPU:120,195 13704
F98A  D0 01     BNE $F98D                        A:02 X:78 Y:69 P:47 S:F9 PPU:120,201 13706
F98C  60        RTS                              A:02 X:78 Y:69 P:47 S:F9 PPU:120,207 13708
E351  A9 AA     LDA #$AA                         A:02 X:78 Y:69 P:47 S:FB PPU:120,225 13714
E353  8D 33 06  STA $0633 = $AA                  A:AA X:78 Y:69 P:C5 S:FB PPU:120,231 13716
E356  A9 BB     LDA #$BB                         A:AA X:78 Y:69 P:C5 S:FB PPU:120,243 13720
E358  8D 89 06  STA $0689 = $BB                  A:BB X:78 Y:69 P:C5 S:FB PPU:120,249 13722
E35B  A2 00     LDX #$00                         A:BB X:78 Y:69 P:C5 S:FB PPU:120,261 13726
E35D  A0 66     LDY #$66                         A:BB X:00 Y:69 P:47 S:FB PPU:120,267 13728
E35F  24 01     BIT $01 = $FF                    A:BB X:00 Y:66 P:45 S:FB PPU:120,273 13730
E361  38        SEC                              A:BB X:00 Y:66 P:C5 S:FB PPU:120,282 13733
E362  A9 00     LDA #$00                         A:BB X:00 Y:66 P:C5 S:FB PPU:120,288 13735
E364  BD 33 06  LDA $0633,X = $AA                A:00 X:00 Y:66 P:47 S:FB PPU:120,294 13737
E367  10 12     BPL $E37B                        A:AA X:00 Y:66 P:C5 S:FB PPU:120,306 13741
E369  F0 10     BEQ $E37B                        A:AA X:00 Y:66 P:C5 S:FB PPU:120,312 13743
E36B  50 0E     BVC $E37B                        A:AA X:00 Y:66 P:C5 S:FB PPU:120,318 13745
E36D  90 0C     BCC $E37B                        A:AA X:00 Y:66 P:C5 S:FB PPU:120,324 13747
E36F  C0 66     CPY #$66                         A:AA X:00 Y:66 P:C5 S:FB PPU:120,330 13749
E371  D0 08     BNE $E37B                        A:AA X:00 Y:66 P:47 S:FB PPU:120,336 13751
E373  E0 00     CPX #$00                         A:AA X:00 Y:66 P:47 S:FB PPU:121,1   13753
E375  D0 04     BNE $E37B                        A:AA X:00 Y:66 P:47 S:FB PPU:121,7   13755
E377  C9 AA     CMP #$AA                         A:AA X:00 Y:66 P:47 S:FB PPU:121,13  13757
E379  F0 04     BEQ $E37F                        A:AA X:00 Y:66 P:47 S:FB PPU:121,19  13759
E37F  A2 8A     LDX #$8A                         A:AA X:00 Y:66 P:47 S:FB PPU:121,28  13762
E381  A0 66     LDY #$66                         A:AA X:8A Y:66 P:C5 S:FB PPU:121,34  13764
E383  B8        CLV                              A:AA X:8A Y:66 P:45 S:FB PPU:121,40  13766
E384  18        CLC                              A:AA X:8A Y:66 P:05 S:FB PPU:121,46  13768
E385  A9 00     LDA #$00                         A:AA X:8A Y:66 P:04 S:FB PPU:121,52  13770
E387  BD FF 05  LDA $05FF,X = $BB                A:00 X:8A Y:66 P:06 S:FB PPU:121,58  13772
E38A  10 12     BPL $E39E                        A:BB X:8A Y:66 P:84 S:FB PPU:121,73  13777
E38C  F0 10     BEQ $E39E                        A:BB X:8A Y:66 P:84 S:FB PPU:121,79  13779
E38E  70 0E     BVS $E39E                        A:BB X:8A Y:66 P:84 S:FB PPU:121,85  13781
E390  B0 0C     BCS $E39E                        A:BB X:8A Y:66 P:84 S:FB PPU:121,91  13783
E392  C9 BB     CMP #$BB                         A:BB X:8A Y:66 P:84 S:FB PPU:121,97  13785
E394  D0 08     BNE $E39E                        A:BB X:8A Y:66 P:07 S:FB PPU:121,103 13787
E396  C0 66     CPY #$66                         A:BB X:8A Y:66 P:07 S:FB PPU:121,109 13789
E398  D0 04     BNE $E39E                        A:BB X:8A Y:66 P:07 S:FB PPU:121,115 13791
E39A  E0 8A     CPX #$8A                         A:BB X:8A Y:66 P:07 S:FB PPU:121,121 13793
E39C  F0 04     BEQ $E3A2                        A:BB X:8A Y:66 P:07 S:FB PPU:121,127 13795
E3A2  24 01     BIT $01 = $FF                    A:BB X:8A Y:66 P:07 S:FB PPU:121,136 13798
E3A4  38        SEC                              A:BB X:8A Y:66 P:C5 S:FB PPU:121,145 13801
E3A5  A9 44     LDA #$44                         A:BB X:8A Y:66 P:C5 S:FB PPU:121,151 13803
E3A7  A2 00     LDX #$00                         A:44 X:8A Y:66 P:45 S:FB PPU:121,157 13805
E3A9  9D 33 06  STA $0633,X = $AA                A:44 X:00 Y:66 P:47 S:FB PPU:121,163 13807
E3AC  AD 33 06  LDA $0633 = $44                  A:44 X:00 Y:66 P:47 S:FB PPU:121,178 13812
E3AF  90 1A     BCC $E3CB                        A:44 X:00 Y:66 P:45 S:FB PPU:121,190 13816
E3B1  C9 44     CMP #$44                         A:44 X:00 Y:66 P:45 S:FB PPU:121,196 13818
E3B3  D0 16     BNE $E3CB                        A:44 X:00 Y:66 P:47 S:FB PPU:121,202 13820
E3B5  50 14     BVC $E3CB                        A:44 X:00 Y:66 P:47 S:FB PPU:121,208 13822
E3B7  18        CLC                              A:44 X:00 Y:66 P:47 S:FB PPU:121,214 13824
E3B8  B8        CLV                              A:44 X:00 Y:66 P:46 S:FB PPU:121,220 13826
E3B9  A9 99     LDA #$99                         A:44 X:00 Y:66 P:06 S:FB PPU:121,226 13828
E3BB  A2 80     LDX #$80                         A:99 X:00 Y:66 P:84 S:FB PPU:121,232 13830
E3BD  9D 85 05  STA $0585,X = $00                A:99 X:80 Y:66 P:84 S:FB PPU:121,238 13832
E3C0  AD 05 06  LDA $0605 = $99                  A:99 X:80 Y:66 P:84 S:FB PPU:121,253 13837
E3C3  B0 06     BCS $E3CB                        A:99 X:80 Y:66 P:84 S:FB PPU:121,265 13841
E3C5  C9 99     CMP #$99                         A:99 X:80 Y:66 P:84 S:FB PPU:121,271 13843
E3C7  D0 02     BNE $E3CB                        A:99 X:80 Y:66 P:07 S:FB PPU:121,277 13845
E3C9  50 04     BVC $E3CF                        A:99 X:80 Y:66 P:07 S:FB PPU:121,283 13847
E3CF  A0 6D     LDY #$6D                         A:99 X:80 Y:66 P:07 S:FB PPU:121,292 13850
E3D1  A2 6D     LDX #$6D                         A:99 X:80 Y:6D P:05 S:FB PPU:121,298 13852
E3D3  20 90 F9  JSR $F990                        A:99 X:6D Y:6D P:05 S:FB PPU:121,304 13854
F990  A2 55     LDX #$55                         A:99 X:6D Y:6D P:05 S:F9 PPU:121,322 13860
F992  A9 FF     LDA #$FF                         A:99 X:55 Y:6D P:05 S:F9 PPU:121,328 13862
F994  85 01     STA $01 = $FF                    A:FF X:55 Y:6D P:85 S:F9 PPU:121,334 13864
F996  EA        NOP                              A:FF X:55 Y:6D P:85 S:F9 PPU:122,2   13867
F997  24 01     BIT $01 = $FF                    A:FF X:55 Y:6D P:85 S:F9 PPU:122,8   13869
F999  38        SEC                              A:FF X:55 Y:6D P:C5 S:F9 PPU:122,17  13872
F99A  A9 01     LDA #$01                         A:FF X:55 Y:6D P:C5 S:F9 PPU:122,23  13874
F99C  60        RTS                              A:01 X:55 Y:6D P:45 S:F9 PPU:122,29  13876
E3D6  9D 00 06  STA $0600,X = $00                A:01 X:55 Y:6D P:45 S:FB PPU:122,47  13882
E3D9  5E 00 06  LSR $0600,X = $01                A:01 X:55 Y:6D P:45 S:FB PPU:122,62  13887
E3DC  BD 00 06  LDA $0600,X = $00                A:01 X:55 Y:6D P:47 S:FB PPU:122,83  13894
E3DF  20 9D F9  JSR $F99D                        A:00 X:55 Y:6D P:47 S:FB PPU:122,95  13898
F99D  90 1B     BCC $F9BA                        A:00 X:55 Y:6D P:47 S:F9 PPU:122,113 13904
F99F  D0 19     BNE $F9BA                        A:00 X:55 Y:6D P:47 S:F9 PPU:122,119 13906
F9A1  30 17     BMI $F9BA                        A:00 X:55 Y:6D P:47 S:F9 PPU:122,125 13908
F9A3  50 15     BVC $F9BA                        A:00 X:55 Y:6D P:47 S:F9 PPU:122,131 13910
F9A5  C9 00     CMP #$00                         A:00 X:55 Y:6D P:47 S:F9 PPU:122,137 13912
F9A7  D0 11     BNE $F9BA                        A:00 X:55 Y:6D P:47 S:F9 PPU:122,143 13914
F9A9  B8        CLV                              A:00 X:55 Y:6D P:47 S:F9 PPU:122,149 13916
F9AA  A9 AA     LDA #$AA                         A:00 X:55 Y:6D P:07 S:F9 PPU:122,155 13918
F9AC  60        RTS                              A:AA X:55 Y:6D P:85 S:F9 PPU:122,161 13920
E3E2  C8        INY                              A:AA X:55 Y:6D P:85 S:FB PPU:122,179 13926
E3E3  9D 00 06  STA $0600,X = $00                A:AA X:55 Y:6E P:05 S:FB PPU:122,185 13928
E3E6  5E 00 06  LSR $0600,X = $AA                A:AA X:55 Y:6E P:05 S:FB PPU:122,200 13933
E3E9  BD 00 06  LDA $0600,X = $55                A:AA X:55 Y:6E P:04 S:FB PPU:122,221 13940
E3EC  20 AD F9  JSR $F9AD                        A:55 X:55 Y:6E P:04 S:FB PPU:122,233 13944
F9AD  B0 0B     BCS $F9BA                        A:55 X:55 Y:6E P:04 S:F9 PPU:122,251 13950
F9AF  F0 09     BEQ $F9BA                        A:55 X:55 Y:6E P:04 S:F9 PPU:122,257 13952
F9B1  30 07     BMI $F9BA                        A:55 X:55 Y:6E P:04 S:F9 PPU:122,263 13954
F9B3  70 05     BVS $F9BA                        A:55 X:55 Y:6E P:04 S:F9 PPU:122,269 13956
F9B5  C9 55     CMP #$55                         A:55 X:55 Y:6E P:04 S:F9 PPU:122,275 13958
F9B7  D0 01     BNE $F9BA                        A:55 X:55 Y:6E P:07 S:F9 PPU:122,281 13960
F9B9  60        RTS                              A:55 X:55 Y:6E P:07 S:F9 PPU:122,287 13962
E3EF  C8        INY                              A:55 X:55 Y:6E P:07 S:FB PPU:122,305 13968
E3F0  20 BD F9  JSR $F9BD                        A:55 X:55 Y:6F P:05 S:FB PPU:122,311 13970
F9BD  24 01     BIT $01 = $FF                    A:55 X:55 Y:6F P:05 S:F9 PPU:122,329 13976
F9BF  38        SEC                              A:55 X:55 Y:6F P:C5 S:F9 PPU:122,338 13979
F9C0  A9 80     LDA #$80                         A:55 X:55 Y:6F P:C5 S:F9 PPU:123,3   13981
F9C2  60        RTS                              A:80 X:55 Y:6F P:C5 S:F9 PPU:123,9   13983
E3F3  9D 00 06  STA $0600,X = $55                A:80 X:55 Y:6F P:C5 S:FB PPU:123,27  13989
E3F6  1E 00 06  ASL $0600,X = $80                A:80 X:55 Y:6F P:C5 S:FB PPU:123,42  13994
E3F9  BD 00 06  LDA $0600,X = $00                A:80 X:55 Y:6F P:47 S:FB PPU:123,63  14001
E3FC  20 C3 F9  JSR $F9C3                        A:00 X:55 Y:6F P:47 S:FB PPU:123,75  14005
F9C3  90 1C     BCC $F9E1                        A:00 X:55 Y:6F P:47 S:F9 PPU:123,93  14011
F9C5  D0 1A     BNE $F9E1                        A:00 X:55 Y:6F P:47 S:F9 PPU:123,99  14013
F9C7  30 18     BMI $F9E1                        A:00 X:55 Y:6F P:47 S:F9 PPU:123,105 14015
F9C9  50 16     BVC $F9E1                        A:00 X:55 Y:6F P:47 S:F9 PPU:123,111 14017
F9CB  C9 00     CMP #$00                         A:00 X:55 Y:6F P:47 S:F9 PPU:123,117 14019
F9CD  D0 12     BNE $F9E1                        A:00 X:55 Y:6F P:47 S:F9 PPU:123,123 14021
F9CF  B8        CLV                              A:00 X:55 Y:6F P:47 S:F9 PPU:123,129 14023
F9D0  A9 55     LDA #$55                         A:00 X:55 Y:6F P:07 S:F9 PPU:123,135 14025
F9D2  38        SEC                              A:55 X:55 Y:6F P:05 S:F9 PPU:123,141 14027
F9D3  60        RTS                              A:55 X:55 Y:6F P:05 S:F9 PPU:123,147 14029
E3FF  C8        INY                              A:55 X:55 Y:6F P:05 S:FB PPU:123,165 14035
E400  9D 00 06  STA $0600,X = $00                A:55 X:55 Y:70 P:05 S:FB PPU:123,171 14037
E403  1E 00 06  ASL $0600,X = $55                A:55 X:55 Y:70 P:05 S:FB PPU:123,186 14042
E406  BD 00 06  LDA $0600,X = $AA                A:55 X:55 Y:70 P:84 S:FB PPU:123,207 14049
E409  20 D4 F9  JSR $F9D4                        A:AA X:55 Y:70 P:84 S:FB PPU:123,219 14053
F9D4  B0 0B     BCS $F9E1                        A:AA X:55 Y:70 P:84 S:F9 PPU:123,237 14059
F9D6  F0 09     BEQ $F9E1                        A:AA X:55 Y:70 P:84 S:F9 PPU:123,243 14061
F9D8  10 07     BPL $F9E1                        A:AA X:55 Y:70 P:84 S:F9 PPU:123,249 14063
F9DA  70 05     BVS $F9E1                        A:AA X:55 Y:70 P:84 S:F9 PPU:123,255 14065
F9DC  C9 AA     CMP #$AA                         A:AA X:55 Y:70 P:84 S:F9 PPU:123,261 14067
F9DE  D0 01     BNE $F9E1                        A:AA X:55 Y:70 P:07 S:F9 PPU:123,267 14069
F9E0  60        RTS                              A:AA X:55 Y:70 P:07 S:F9 PPU:123,273 14071
E40C  C8        INY                              A:AA X:55 Y:70 P:07 S:FB PPU:123,291 14077
E40D  20 E4 F9  JSR $F9E4                        A:AA X:55 Y:71 P:05 S:FB PPU:123,297 14079
F9E4  24 01     BIT $01 = $FF                    A:AA X:55 Y:71 P:05 S:F9 PPU:123,315 14085
F9E6  38        SEC                              A:AA X:55 Y:71 P:C5 S:F9 PPU:123,324 14088
F9E7  A9 01     LDA #$01                         A:AA X:55 Y:71 P:C5 S:F9 PPU:123,330 14090
F9E9  60        RTS                              A:01 X:55 Y:71 P:45 S:F9 PPU:123,336 14092
E410  9D 00 06  STA $0600,X = $AA                A:01 X:55 Y:71 P:45 S:FB PPU:124,13  14098
E413  7E 00 06  ROR $0600,X = $01                A:01 X:55 Y:71 P:45 S:FB PPU:124,28  14103
E416  BD 00 06  LDA $0600,X = $80                A:01 X:55 Y:71 P:C5 S:FB PPU:124,49  14110
E419  20 EA F9  JSR $F9EA                        A:80 X:55 Y:71 P:C5 S:FB PPU:124,61  14114
F9EA  90 1C     BCC $FA08                        A:80 X:55 Y:71 P:C5 S:F9 PPU:124,79  14120
F9EC  F0 1A     BEQ $FA08                        A:80 X:55 Y:71 P:C5 S:F9 PPU:124,85  14122
F9EE  10 18     BPL $FA08                        A:80 X:55 Y:71 P:C5 S:F9 PPU:124,91  14124
F9F0  50 16     BVC $FA08                        A:80 X:55 Y:71 P:C5 S:F9 PPU:124,97  14126
F9F2  C9 80     CMP #$80                         A:80 X:55 Y:71 P:C5 S:F9 PPU:124,103 14128
F9F4  D0 12     BNE $FA08                        A:80 X:55 Y:71 P:47 S:F9 PPU:124,109 14130
F9F6  B8        CLV                              A:80 X:55 Y:71 P:47 S:F9 PPU:124,115 14132
F9F7  18        CLC                              A:80 X:55 Y:71 P:07 S:F9 PPU:124,121 14134
F9F8  A9 55     LDA #$55                         A:80 X:55 Y:71 P:06 S:F9 PPU:124,127 14136
F9FA  60        RTS                              A:55 X:55 Y:71 P:04 S:F9 PPU:124,133 14138
E41C  C8        INY                              A:55 X:55 Y:71 P:04 S:FB PPU:124,151 14144
E41D  9D 00 06  STA $0600,X = $80                A:55 X:55 Y:72 P:04 S:FB PPU:124,157 14146
E420  7E 00 06  ROR $0600,X = $55                A:55 X:55 Y:72 P:04 S:FB PPU:124,172 14151
E423  BD 00 06  LDA $0600,X = $2A                A:55 X:55 Y:72 P:05 S:FB PPU:124,193 14158
E426  20 FB F9  JSR $F9FB                        A:2A X:55 Y:72 P:05 S:FB PPU:124,205 14162
F9FB  90 0B     BCC $FA08                        A:2A X:55 Y:72 P:05 S:F9 PPU:124,223 14168
F9FD  F0 09     BEQ $FA08                        A:2A X:55 Y:72 P:05 S:F9 PPU:124,229 14170
F9FF  30 07     BMI $FA08                        A:2A X:55 Y:72 P:05 S:F9 PPU:124,235 14172
FA01  70 05     BVS $FA08                        A:2A X:55 Y:72 P:05 S:F9 PPU:124,241 14174
FA03  C9 2A     CMP #$2A                         A:2A X:55 Y:72 P:05 S:F9 PPU:124,247 14176
FA05  D0 01     BNE $FA08                        A:2A X:55 Y:72 P:07 S:F9 PPU:124,253 14178
FA07  60        RTS                              A:2A X:55 Y:72 P:07 S:F9 PPU:124,259 14180
E429  C8        INY                              A:2A X:55 Y:72 P:07 S:FB PPU:124,277 14186
E42A  20 0A FA  JSR $FA0A                        A:2A X:55 Y:73 P:05 S:FB PPU:124,283 14188
FA0A  24 01     BIT $01 = $FF                    A:2A X:55 Y:73 P:05 S:F9 PPU:124,301 14194
FA0C  38        SEC                              A:2A X:55 Y:73 P:C5 S:F9 PPU:124,310 14197
FA0D  A9 80     LDA #$80                         A:2A X:55 Y:73 P:C5 S:F9 PPU:124,316 14199
FA0F  60        RTS                              A:80 X:55 Y:73 P:C5 S:F9 PPU:124,322 14201
E42D  9D 00 06  STA $0600,X = $2A                A:80 X:55 Y:73 P:C5 S:FB PPU:124,340 14207
E430  3E 00 06  ROL $0600,X = $80                A:80 X:55 Y:73 P:C5 S:FB PPU:125,14  14212
E433  BD 00 06  LDA $0600,X = $01                A:80 X:55 Y:73 P:45 S:FB PPU:125,35  14219
E436  20 10 FA  JSR $FA10                        A:01 X:55 Y:73 P:45 S:FB PPU:125,47  14223
FA10  90 1C     BCC $FA2E                        A:01 X:55 Y:73 P:45 S:F9 PPU:125,65  14229
FA12  F0 1A     BEQ $FA2E                        A:01 X:55 Y:73 P:45 S:F9 PPU:125,71  14231
FA14  30 18     BMI $FA2E                        A:01 X:55 Y:73 P:45 S:F9 PPU:125,77  14233
FA16  50 16     BVC $FA2E                        A:01 X:55 Y:73 P:45 S:F9 PPU:125,83  14235
FA18  C9 01     CMP #$01                         A:01 X:55 Y:73 P:45 S:F9 PPU:125,89  14237
FA1A  D0 12     BNE $FA2E                        A:01 X:55 Y:73 P:47 S:F9 PPU:125,95  14239
FA1C  B8        CLV                              A:01 X:55 Y:73 P:47 S:F9 PPU:125,101 14241
FA1D  18        CLC                              A:01 X:55 Y:73 P:07 S:F9 PPU:125,107 14243
FA1E  A9 55     LDA #$55                         A:01 X:55 Y:73 P:06 S:F9 PPU:125,113 14245
FA20  60        RTS                              A:55 X:55 Y:73 P:04 S:F9 PPU:125,119 14247
E439  C8        INY                              A:55 X:55 Y:73 P:04 S:FB PPU:125,137 14253
E43A  9D 00 06  STA $0600,X = $01                A:55 X:55 Y:74 P:04 S:FB PPU:125,143 14255
E43D  3E 00 06  ROL $0600,X = $55                A:55 X:55 Y:74 P:04 S:FB PPU:125,158 14260
E440  BD 00 06  LDA $0600,X = $AA                A:55 X:55 Y:74 P:84 S:FB PPU:125,179 14267
E443  20 21 FA  JSR $FA21                        A:AA X:55 Y:74 P:84 S:FB PPU:125,191 14271
FA21  B0 0B     BCS $FA2E                        A:AA X:55 Y:74 P:84 S:F9 PPU:125,209 14277
FA23  F0 09     BEQ $FA2E                        A:AA X:55 Y:74 P:84 S:F9 PPU:125,215 14279
FA25  10 07     BPL $FA2E                        A:AA X:55 Y:74 P:84 S:F9 PPU:125,221 14281
FA27  70 05     BVS $FA2E                        A:AA X:55 Y:74 P:84 S:F9 PPU:125,227 14283
FA29  C9 AA     CMP #$AA                         A:AA X:55 Y:74 P:84 S:F9 PPU:125,233 14285
FA2B  D0 01     BNE $FA2E                        A:AA X:55 Y:74 P:07 S:F9 PPU:125,239 14287
FA2D  60        RTS                              A:AA X:55 Y:74 P:07 S:F9 PPU:125,245 14289
E446  A9 FF     LDA #$FF                         A:AA X:55 Y:74 P:07 S:FB PPU:125,263 14295
E448  9D 00 06  STA $0600,X = $AA                A:FF X:55 Y:74 P:85 S:FB PPU:125,269 14297
E44B  85 01     STA $01 = $FF                    A:FF X:55 Y:74 P:85 S:FB PPU:125,284 14302
E44D  24 01     BIT $01 = $FF                    A:FF X:55 Y:74 P:85 S:FB PPU:125,293 14305
E44F  38        SEC                              A:FF X:55 Y:74 P:C5 S:FB PPU:125,302 14308
E450  FE 00 06  INC $0600,X = $FF                A:FF X:55 Y:74 P:C5 S:FB PPU:125,308 14310
E453  D0 0D     BNE $E462                        A:FF X:55 Y:74 P:47 S:FB PPU:125,329 14317
E455  30 0B     BMI $E462                        A:FF X:55 Y:74 P:47 S:FB PPU:125,335 14319
E457  50 09     BVC $E462                        A:FF X:55 Y:74 P:47 S:FB PPU:126,0   14321
E459  90 07     BCC $E462                        A:FF X:55 Y:74 P:47 S:FB PPU:126,6   14323
E45B  BD 00 06  LDA $0600,X = $00                A:FF X:55 Y:74 P:47 S:FB PPU:126,12  14325
E45E  C9 00     CMP #$00                         A:00 X:55 Y:74 P:47 S:FB PPU:126,24  14329
E460  F0 04     BEQ $E466                        A:00 X:55 Y:74 P:47 S:FB PPU:126,30  14331
E466  A9 7F     LDA #$7F                         A:00 X:55 Y:74 P:47 S:FB PPU:126,39  14334
E468  9D 00 06  STA $0600,X = $00                A:7F X:55 Y:74 P:45 S:FB PPU:126,45  14336
E46B  B8        CLV                              A:7F X:55 Y:74 P:45 S:FB PPU:126,60  14341
E46C  18        CLC                              A:7F X:55 Y:74 P:05 S:FB PPU:126,66  14343
E46D  FE 00 06  INC $0600,X = $7F                A:7F X:55 Y:74 P:04 S:FB PPU:126,72  14345
E470  F0 0D     BEQ $E47F                        A:7F X:55 Y:74 P:84 S:FB PPU:126,93  14352
E472  10 0B     BPL $E47F                        A:7F X:55 Y:74 P:84 S:FB PPU:126,99  14354
E474  70 09     BVS $E47F                        A:7F X:55 Y:74 P:84 S:FB PPU:126,105 14356
E476  B0 07     BCS $E47F                        A:7F X:55 Y:74 P:84 S:FB PPU:126,111 14358
E478  BD 00 06  LDA $0600,X = $80                A:7F X:55 Y:74 P:84 S:FB PPU:126,117 14360
E47B  C9 80     CMP #$80                         A:80 X:55 Y:74 P:84 S:FB PPU:126,129 14364
E47D  F0 04     BEQ $E483                        A:80 X:55 Y:74 P:07 S:FB PPU:126,135 14366
E483  A9 00     LDA #$00                         A:80 X:55 Y:74 P:07 S:FB PPU:126,144 14369
E485  9D 00 06  STA $0600,X = $80                A:00 X:55 Y:74 P:07 S:FB PPU:126,150 14371
E488  24 01     BIT $01 = $FF                    A:00 X:55 Y:74 P:07 S:FB PPU:126,165 14376
E48A  38        SEC                              A:00 X:55 Y:74 P:C7 S:FB PPU:126,174 14379
E48B  DE 00 06  DEC $0600,X = $00                A:00 X:55 Y:74 P:C7 S:FB PPU:126,180 14381
E48E  F0 0D     BEQ $E49D                        A:00 X:55 Y:74 P:C5 S:FB PPU:126,201 14388
E490  10 0B     BPL $E49D                        A:00 X:55 Y:74 P:C5 S:FB PPU:126,207 14390
E492  50 09     BVC $E49D                        A:00 X:55 Y:74 P:C5 S:FB PPU:126,213 14392
E494  90 07     BCC $E49D                        A:00 X:55 Y:74 P:C5 S:FB PPU:126,219 14394
E496  BD 00 06  LDA $0600,X = $FF                A:00 X:55 Y:74 P:C5 S:FB PPU:126,225 14396
E499  C9 FF     CMP #$FF                         A:FF X:55 Y:74 P:C5 S:FB PPU:126,237 14400
E49B  F0 04     BEQ $E4A1                        A:FF X:55 Y:74 P:47 S:FB PPU:126,243 14402
E4A1  A9 80     LDA #$80                         A:FF X:55 Y:74 P:47 S:FB PPU:126,252 14405
E4A3  9D 00 06  STA $0600,X = $FF                A:80 X:55 Y:74 P:C5 S:FB PPU:126,258 14407
E4A6  B8        CLV                              A:80 X:55 Y:74 P:C5 S:FB PPU:126,273 14412
E4A7  18        CLC                              A:80 X:55 Y:74 P:85 S:FB PPU:126,279 14414
E4A8  DE 00 06  DEC $0600,X = $80                A:80 X:55 Y:74 P:84 S:FB PPU:126,285 14416
E4AB  F0 0D     BEQ $E4BA                        A:80 X:55 Y:74 P:04 S:FB PPU:126,306 14423
E4AD  30 0B     BMI $E4BA                        A:80 X:55 Y:74 P:04 S:FB PPU:126,312 14425
E4AF  70 09     BVS $E4BA                        A:80 X:55 Y:74 P:04 S:FB PPU:126,318 14427
E4B1  B0 07     BCS $E4BA                        A:80 X:55 Y:74 P:04 S:FB PPU:126,324 14429
E4B3  BD 00 06  LDA $0600,X = $7F                A:80 X:55 Y:74 P:04 S:FB PPU:126,330 14431
E4B6  C9 7F     CMP #$7F                         A:7F X:55 Y:74 P:04 S:FB PPU:127,1   14435
E4B8  F0 04     BEQ $E4BE                        A:7F X:55 Y:74 P:07 S:FB PPU:127,7   14437
E4BE  A9 01     LDA #$01                         A:7F X:55 Y:74 P:07 S:FB PPU:127,16  14440
E4C0  9D 00 06  STA $0600,X = $7F                A:01 X:55 Y:74 P:05 S:FB PPU:127,22  14442
E4C3  DE 00 06  DEC $0600,X = $01                A:01 X:55 Y:74 P:05 S:FB PPU:127,37  14447
E4C6  F0 04     BEQ $E4CC                        A:01 X:55 Y:74 P:07 S:FB PPU:127,58  14454
E4CC  A9 33     LDA #$33                         A:01 X:55 Y:74 P:07 S:FB PPU:127,67  14457
E4CE  8D 78 06  STA $0678 = $7F                  A:33 X:55 Y:74 P:05 S:FB PPU:127,73  14459
E4D1  A9 44     LDA #$44                         A:33 X:55 Y:74 P:05 S:FB PPU:127,85  14463
E4D3  A0 78     LDY #$78                         A:44 X:55 Y:74 P:05 S:FB PPU:127,91  14465
E4D5  A2 00     LDX #$00                         A:44 X:55 Y:78 P:05 S:FB PPU:127,97  14467
E4D7  38        SEC                              A:44 X:00 Y:78 P:07 S:FB PPU:127,103 14469
E4D8  24 01     BIT $01 = $FF                    A:44 X:00 Y:78 P:07 S:FB PPU:127,109 14471
E4DA  BE 00 06  LDX $0600,Y = $33                A:44 X:00 Y:78 P:C5 S:FB PPU:127,118 14474
E4DD  90 12     BCC $E4F1                        A:44 X:33 Y:78 P:45 S:FB PPU:127,130 14478
E4DF  50 10     BVC $E4F1                        A:44 X:33 Y:78 P:45 S:FB PPU:127,136 14480
E4E1  30 0E     BMI $E4F1                        A:44 X:33 Y:78 P:45 S:FB PPU:127,142 14482
E4E3  F0 0C     BEQ $E4F1                        A:44 X:33 Y:78 P:45 S:FB PPU:127,148 14484
E4E5  E0 33     CPX #$33                         A:44 X:33 Y:78 P:45 S:FB PPU:127,154 14486
E4E7  D0 08     BNE $E4F1                        A:44 X:33 Y:78 P:47 S:FB PPU:127,160 14488
E4E9  C0 78     CPY #$78                         A:44 X:33 Y:78 P:47 S:FB PPU:127,166 14490
E4EB  D0 04     BNE $E4F1                        A:44 X:33 Y:78 P:47 S:FB PPU:127,172 14492
E4ED  C9 44     CMP #$44                         A:44 X:33 Y:78 P:47 S:FB PPU:127,178 14494
E4EF  F0 04     BEQ $E4F5                        A:44 X:33 Y:78 P:47 S:FB PPU:127,184 14496
E4F5  A9 97     LDA #$97                         A:44 X:33 Y:78 P:47 S:FB PPU:127,193 14499
E4F7  8D 7F 06  STA $067F = $00                  A:97 X:33 Y:78 P:C5 S:FB PPU:127,199 14501
E4FA  A9 47     LDA #$47                         A:97 X:33 Y:78 P:C5 S:FB PPU:127,211 14505
E4FC  A0 FF     LDY #$FF                         A:47 X:33 Y:78 P:45 S:FB PPU:127,217 14507
E4FE  A2 00     LDX #$00                         A:47 X:33 Y:FF P:C5 S:FB PPU:127,223 14509
E500  18        CLC                              A:47 X:00 Y:FF P:47 S:FB PPU:127,229 14511
E501  B8        CLV                              A:47 X:00 Y:FF P:46 S:FB PPU:127,235 14513
E502  BE 80 05  LDX $0580,Y = $97                A:47 X:00 Y:FF P:06 S:FB PPU:127,241 14515
E505  B0 12     BCS $E519                        A:47 X:97 Y:FF P:84 S:FB PPU:127,256 14520
E507  70 10     BVS $E519                        A:47 X:97 Y:FF P:84 S:FB PPU:127,262 14522
E509  10 0E     BPL $E519                        A:47 X:97 Y:FF P:84 S:FB PPU:127,268 14524
E50B  F0 0C     BEQ $E519                        A:47 X:97 Y:FF P:84 S:FB PPU:127,274 14526
E50D  E0 97     CPX #$97                         A:47 X:97 Y:FF P:84 S:FB PPU:127,280 14528
E50F  D0 08     BNE $E519                        A:47 X:97 Y:FF P:07 S:FB PPU:127,286 14530
E511  C0 FF     CPY #$FF                         A:47 X:97 Y:FF P:07 S:FB PPU:127,292 14532
E513  D0 04     BNE $E519                        A:47 X:97 Y:FF P:07 S:FB PPU:127,298 14534
E515  C9 47     CMP #$47                         A:47 X:97 Y:FF P:07 S:FB PPU:127,304 14536
E517  F0 04     BEQ $E51D                        A:47 X:97 Y:FF P:07 S:FB PPU:127,310 14538
E51D  60        RTS                              A:47 X:97 Y:FF P:07 S:FB PPU:127,319 14541
C62F  20 A3 C6  JSR $C6A3                        A:47 X:97 Y:FF P:07 S:FD PPU:127,337 14547
C6A3  A0 4E     LDY #$4E                         A:47 X:97 Y:FF P:07 S:FB PPU:128,14  14553
C6A5  A9 FF     LDA #$FF                         A:47 X:97 Y:4E P:05 S:FB PPU:128,20  14555
C6A7  85 01     STA $01 = $FF                    A:FF X:97 Y:4E P:85 S:FB PPU:128,26  14557
C6A9  20 B0 C6  JSR $C6B0                        A:FF X:97 Y:4E P:85 S:FB PPU:128,35  14560
C6B0  A9 FF     LDA #$FF                         A:FF X:97 Y:4E P:85 S:F9 PPU:128,53  14566
C6B2  48        PHA                              A:FF X:97 Y:4E P:85 S:F9 PPU:128,59  14568
C6B3  A9 AA     LDA #$AA                         A:FF X:97 Y:4E P:85 S:F8 PPU:128,68  14571
C6B5  D0 05     BNE $C6BC                        A:AA X:97 Y:4E P:85 S:F8 PPU:128,74  14573
C6BC  28        PLP                              A:AA X:97 Y:4E P:85 S:F8 PPU:128,83  14576
C6BD  04 A9     NOP $A9 = $00                    A:AA X:97 Y:4E P:CF S:F9 PPU:128,95  14580
C6BF  44 A9     NOP $A9 = $00                    A:AA X:97 Y:4E P:CF S:F9 PPU:128,104 14583
C6C1  64 A9     NOP $A9 = $00                    A:AA X:97 Y:4E P:CF S:F9 PPU:128,113 14586
C6C3  EA        NOP                              A:AA X:97 Y:4E P:CF S:F9 PPU:128,122 14589
C6C4  EA        NOP                              A:AA X:97 Y:4E P:CF S:F9 PPU:128,128 14591
C6C5  EA        NOP                              A:AA X:97 Y:4E P:CF S:F9 PPU:128,134 14593
C6C6  EA        NOP                              A:AA X:97 Y:4E P:CF S:F9 PPU:128,140 14595
C6C7  08        PHP                              A:AA X:97 Y:4E P:CF S:F9 PPU:128,146 14597
C6C8  48        PHA                              A:AA X:97 Y:4E P:CF S:F8 PPU:128,155 14600
C6C9  0C A9 A9  NOP $A9A9 = $A9                  A:AA X:97 Y:4E P:CF S:F7 PPU:128,164 14603
C6CC  EA        NOP                              A:AA X:97 Y:4E P:CF S:F7 PPU:128,176 14607
C6CD  EA        NOP                              A:AA X:97 Y:4E P:CF S:F7 PPU:128,182 14609
C6CE  EA        NOP                              A:AA X:97 Y:4E P:CF S:F7 PPU:128,188 14611
C6CF  EA        NOP                              A:AA X:97 Y:4E P:CF S:F7 PPU:128,194 14613
C6D0  08        PHP                              A:AA X:97 Y:4E P:CF S:F7 PPU:128,200 14615
C6D1  48        PHA                              A:AA X:97 Y:4E P:CF S:F6 PPU:128,209 14618
C6D2  14 A9     NOP $A9,X = $00                  A:AA X:97 Y:4E P:CF S:F5 PPU:128,218 14621
C6D4  34 A9     NOP $A9,X = $00                  A:AA X:97 Y:4E P:CF S:F5 PPU:128,230 14625
C6D6  54 A9     NOP $A9,X = $00                  A:AA X:97 Y:4E P:CF S:F5 PPU:128,242 14629
C6D8  74 A9     NOP $A9,X = $00                  A:AA X:97 Y:4E P:CF S:F5 PPU:128,254 14633
C6DA  D4 A9     NOP $A9,X = $00                  A:AA X:97 Y:4E P:CF S:F5 PPU:128,266 14637
C6DC  F4 A9     NOP $A9,X = $00                  A:AA X:97 Y:4E P:CF S:F5 PPU:128,278 14641
C6DE  EA        NOP                              A:AA X:97 Y:4E P:CF S:F5 PPU:128,290 14645
C6DF  EA        NOP                              A:AA X:97 Y:4E P:CF S:F5 PPU:128,296 14647
C6E0  EA        NOP                              A:AA X:97 Y:4E P:CF S:F5 PPU:128,302 14649
C6E1  EA        NOP                              A:AA X:97 Y:4E P:CF S:F5 PPU:128,308 14651
C6E2  08        PHP                              A:AA X:97 Y:4E P:CF S:F5 PPU:128,314 14653
C6E3  48        PHA                              A:AA X:97 Y:4E P:CF S:F4 PPU:128,323 14656
C6E4  1A        NOP                              A:AA X:97 Y:4E P:CF S:F3 PPU:128,332 14659
C6E5  3A        NOP                              A:AA X:97 Y:4E P:CF S:F3 PPU:128,338 14661
C6E6  5A        NOP                              A:AA X:97 Y:4E P:CF S:F3 PPU:129,3   14663
C6E7  7A        NOP                              A:AA X:97 Y:4E P:CF S:F3 PPU:129,9   14665
C6E8  DA        NOP                              A:AA X:97 Y:4E P:CF S:F3 PPU:129,15  14667
C6E9  FA        NOP                              A:AA X:97 Y:4E P:CF S:F3 PPU:129,21  14669
C6EA  80 89     NOP #$89                         A:AA X:97 Y:4E P:CF S:F3 PPU:129,27  14671
C6EC  EA        NOP                              A:AA X:97 Y:4E P:CF S:F3 PPU:129,33  14673
C6ED  EA        NOP                              A:AA X:97 Y:4E P:CF S:F3 PPU:129,39  14675
C6EE  EA        NOP                              A:AA X:97 Y:4E P:CF S:F3 PPU:129,45  14677
C6EF  EA        NOP                              A:AA X:97 Y:4E P:CF S:F3 PPU:129,51  14679
C6F0  08        PHP                              A:AA X:97 Y:4E P:CF S:F3 PPU:129,57  14681
C6F1  48        PHA                              A:AA X:97 Y:4E P:CF S:F2 PPU:129,66  14684
C6F2  1C A9 A9  NOP $A9A9,X = $00                A:AA X:97 Y:4E P:CF S:F1 PPU:129,75  14687
C6F5  3C A9 A9  NOP $A9A9,X = $00                A:AA X:97 Y:4E P:CF S:F1 PPU:129,90  14692
C6F8  5C A9 A9  NOP $A9A9,X = $00                A:AA X:97 Y:4E P:CF S:F1 PPU:129,105 14697
C6FB  7C A9 A9  NOP $A9A9,X = $00                A:AA X:97 Y:4E P:CF S:F1 PPU:129,120 14702
C6FE  DC A9 A9  NOP $A9A9,X = $00                A:AA X:97 Y:4E P:CF S:F1 PPU:129,135 14707
C701  FC A9 A9  NOP $A9A9,X = $00                A:AA X:97 Y:4E P:CF S:F1 PPU:129,150 14712
C704  EA        NOP                              A:AA X:97 Y:4E P:CF S:F1 PPU:129,165 14717
C705  EA        NOP                              A:AA X:97 Y:4E P:CF S:F1 PPU:129,171 14719
C706  EA        NOP                              A:AA X:97 Y:4E P:CF S:F1 PPU:129,177 14721
C707  EA        NOP                              A:AA X:97 Y:4E P:CF S:F1 PPU:129,183 14723
C708  08        PHP                              A:AA X:97 Y:4E P:CF S:F1 PPU:129,189 14725
C709  48        PHA                              A:AA X:97 Y:4E P:CF S:F0 PPU:129,198 14728
C70A  A2 05     LDX #$05                         A:AA X:97 Y:4E P:CF S:EF PPU:129,207 14731
C70C  68        PLA                              A:AA X:05 Y:4E P:4D S:EF PPU:129,213 14733
C70D  C9 55     CMP #$55                         A:AA X:05 Y:4E P:CD S:F0 PPU:129,225 14737
C70F  F0 0A     BEQ $C71B                        A:AA X:05 Y:4E P:4D S:F0 PPU:129,231 14739
C711  C9 AA     CMP #$AA                         A:AA X:05 Y:4E P:4D S:F0 PPU:129,237 14741
C713  F0 06     BEQ $C71B                        A:AA X:05 Y:4E P:4F S:F0 PPU:129,243 14743
C71B  68        PLA                              A:AA X:05 Y:4E P:4F S:F0 PPU:129,252 14746
C71C  29 CB     AND #$CB                         A:FF X:05 Y:4E P:CD S:F1 PPU:129,264 14750
C71E  C9 00     CMP #$00                         A:CB X:05 Y:4E P:CD S:F1 PPU:129,270 14752
C720  F0 06     BEQ $C728                        A:CB X:05 Y:4E P:CD S:F1 PPU:129,276 14754
C722  C9 CB     CMP #$CB                         A:CB X:05 Y:4E P:CD S:F1 PPU:129,282 14756
C724  F0 02     BEQ $C728                        A:CB X:05 Y:4E P:4F S:F1 PPU:129,288 14758
C728  C8        INY                              A:CB X:05 Y:4E P:4F S:F1 PPU:129,297 14761
C729  CA        DEX                              A:CB X:05 Y:4F P:4D S:F1 PPU:129,303 14763
C72A  D0 E0     BNE $C70C                        A:CB X:04 Y:4F P:4D S:F1 PPU:129,309 14765
C70C  68        PLA                              A:CB X:04 Y:4F P:4D S:F1 PPU:129,318 14768
C70D  C9 55     CMP #$55                         A:AA X:04 Y:4F P:CD S:F2 PPU:129,330 14772
C70F  F0 0A     BEQ $C71B                        A:AA X:04 Y:4F P:4D S:F2 PPU:129,336 14774
C711  C9 AA     CMP #$AA                         A:AA X:04 Y:4F P:4D S:F2 PPU:130,1   14776
C713  F0 06     BEQ $C71B                        A:AA X:04 Y:4F P:4F S:F2 PPU:130,7   14778
C71B  68        PLA                              A:AA X:04 Y:4F P:4F S:F2 PPU:130,16  14781
C71C  29 CB     AND #$CB                         A:FF X:04 Y:4F P:CD S:F3 PPU:130,28  14785
C71E  C9 00     CMP #$00                         A:CB X:04 Y:4F P:CD S:F3 PPU:130,34  14787
C720  F0 06     BEQ $C728                        A:CB X:04 Y:4F P:CD S:F3 PPU:130,40  14789
C722  C9 CB     CMP #$CB                         A:CB X:04 Y:4F P:CD S:F3 PPU:130,46  14791
C724  F0 02     BEQ $C728                        A:CB X:04 Y:4F P:4F S:F3 PPU:130,52  14793
C728  C8        INY                              A:CB X:04 Y:4F P:4F S:F3 PPU:130,61  14796
C729  CA        DEX                              A:CB X:04 Y:50 P:4D S:F3 PPU:130,67  14798
C72A  D0 E0     BNE $C70C                        A:CB X:03 Y:50 P:4D S:F3 PPU:130,73  14800
C70C  68        PLA                              A:CB X:03 Y:50 P:4D S:F3 PPU:130,82  14803
C70D  C9 55     CMP #$55                         A:AA X:03 Y:50 P:CD S:F4 PPU:130,94  14807
C70F  F0 0A     BEQ $C71B                        A:AA X:03 Y:50 P:4D S:F4 PPU:130,100 14809
C711  C9 AA     CMP #$AA                         A:AA X:03 Y:50 P:4D S:F4 PPU:130,106 14811
C713  F0 06     BEQ $C71B                        A:AA X:03 Y:50 P:4F S:F4 PPU:130,112 14813
C71B  68        PLA                              A:AA X:03 Y:50 P:4F S:F4 PPU:130,121 14816
C71C  29 CB     AND #$CB                         A:FF X:03 Y:50 P:CD S:F5 PPU:130,133 14820
C71E  C9 00     CMP #$00                         A:CB X:03 Y:50 P:CD S:F5 PPU:130,139 14822
C720  F0 06     BEQ $C728                        A:CB X:03 Y:50 P:CD S:F5 PPU:130,145 14824
C722  C9 CB     CMP #$CB                         A:CB X:03 Y:50 P:CD S:F5 PPU:130,151 14826
C724  F0 02     BEQ $C728                        A:CB X:03 Y:50 P:4F S:F5 PPU:130,157 14828
C728  C8        INY                              A:CB X:03 Y:50 P:4F S:F5 PPU:130,166 14831
C729  CA        DEX                              A:CB X:03 Y:51 P:4D S:F5 PPU:130,172 14833
C72A  D0 E0     BNE $C70C                        A:CB X:02 Y:51 P:4D S:F5 PPU:130,178 14835
C70C  68        PLA                              A:CB X:02 Y:51 P:4D S:F5 PPU:130,187 14838
C70D  C9 55     CMP #$55                         A:AA X:02 Y:51 P:CD S:F6 PPU:130,199 14842
C70F  F0 0A     BEQ $C71B                        A:AA X:02 Y:51 P:4D S:F6 PPU:130,205 14844
C711  C9 AA     CMP #$AA                         A:AA X:02 Y:51 P:4D S:F6 PPU:130,211 14846
C713  F0 06     BEQ $C71B                        A:AA X:02 Y:51 P:4F S:F6 PPU:130,217 14848
C71B  68        PLA                              A:AA X:02 Y:51 P:4F S:F6 PPU:130,226 14851
C71C  29 CB     AND #$CB                         A:FF X:02 Y:51 P:CD S:F7 PPU:130,238 14855
C71E  C9 00     CMP #$00                         A:CB X:02 Y:51 P:CD S:F7 PPU:130,244 14857
C720  F0 06     BEQ $C728                        A:CB X:02 Y:51 P:CD S:F7 PPU:130,250 14859
C722  C9 CB     CMP #$CB                         A:CB X:02 Y:51 P:CD S:F7 PPU:130,256 14861
C724  F0 02     BEQ $C728                        A:CB X:02 Y:51 P:4F S:F7 PPU:130,262 14863
C728  C8        INY                              A:CB X:02 Y:51 P:4F S:F7 PPU:130,271 14866
C729  CA        DEX                              A:CB X:02 Y:52 P:4D S:F7 PPU:130,277 14868
C72A  D0 E0     BNE $C70C                        A:CB X:01 Y:52 P:4D S:F7 PPU:130,283 14870
C70C  68        PLA                              A:CB X:01 Y:52 P:4D S:F7 PPU:130,292 14873
C70D  C9 55     CMP #$55                         A:AA X:01 Y:52 P:CD S:F8 PPU:130,304 14877
C70F  F0 0A     BEQ $C71B                        A:AA X:01 Y:52 P:4D S:F8 PPU:130,310 14879
C711  C9 AA     CMP #$AA                         A:AA X:01 Y:52 P:4D S:F8 PPU:130,316 14881
C713  F0 06     BEQ $C71B                        A:AA X:01 Y:52 P:4F S:F8 PPU:130,322 14883
C71B  68        PLA                              A:AA X:01 Y:52 P:4F S:F8 PPU:130,331 14886
C71C  29 CB     AND #$CB                         A:FF X:01 Y:52 P:CD S:F9 PPU:131,2   14890
C71E  C9 00     CMP #$00                         A:CB X:01 Y:52 P:CD S:F9 PPU:131,8   14892
C720  F0 06     BEQ $C728                        A:CB X:01 Y:52 P:CD S:F9 PPU:131,14  14894
C722  C9 CB     CMP #$CB                         A:CB X:01 Y:52 P:CD S:F9 PPU:131,20  14896
C724  F0 02     BEQ $C728                        A:CB X:01 Y:52 P:4F S:F9 PPU:131,26  14898
C728  C8        INY                              A:CB X:01 Y:52 P:4F S:F9 PPU:131,35  14901
C729  CA        DEX                              A:CB X:01 Y:53 P:4D S:F9 PPU:131,41  14903
C72A  D0 E0     BNE $C70C                        A:CB X:00 Y:53 P:4F S:F9 PPU:131,47  14905
C72C  60        RTS                              A:CB X:00 Y:53 P:4F S:F9 PPU:131,53  14907
C6AC  20 B7 C6  JSR $C6B7                        A:CB X:00 Y:53 P:4F S:FB PPU:131,71  14913
C6B7  A9 34     LDA #$34                         A:CB X:00 Y:53 P:4F S:F9 PPU:131,89  14919
C6B9  48        PHA                              A:34 X:00 Y:53 P:4D S:F9 PPU:131,95  14921
C6BA  A9 55     LDA #$55                         A:34 X:00 Y:53 P:4D S:F8 PPU:131,104 14924
C6BC  28        PLP                              A:55 X:00 Y:53 P:4D S:F8 PPU:131,110 14926
C6BD  04 A9     NOP $A9 = $00                    A:55 X:00 Y:53 P:04 S:F9 PPU:131,122 14930
C6BF  44 A9     NOP $A9 = $00                    A:55 X:00 Y:53 P:04 S:F9 PPU:131,131 14933
C6C1  64 A9     NOP $A9 = $00                    A:55 X:00 Y:53 P:04 S:F9 PPU:131,140 14936
C6C3  EA        NOP                              A:55 X:00 Y:53 P:04 S:F9 PPU:131,149 14939
C6C4  EA        NOP                              A:55 X:00 Y:53 P:04 S:F9 PPU:131,155 14941
C6C5  EA        NOP                              A:55 X:00 Y:53 P:04 S:F9 PPU:131,161 14943
C6C6  EA        NOP                              A:55 X:00 Y:53 P:04 S:F9 PPU:131,167 14945
C6C7  08        PHP                              A:55 X:00 Y:53 P:04 S:F9 PPU:131,173 14947
C6C8  48        PHA                              A:55 X:00 Y:53 P:04 S:F8 PPU:131,182 14950
C6C9  0C A9 A9  NOP $A9A9 = $A9                  A:55 X:00 Y:53 P:04 S:F7 PPU:131,191 14953
C6CC  EA        NOP                              A:55 X:00 Y:53 P:04 S:F7 PPU:131,203 14957
C6CD  EA        NOP                              A:55 X:00 Y:53 P:04 S:F7 PPU:131,209 14959
C6CE  EA        NOP                              A:55 X:00 Y:53 P:04 S:F7 PPU:131,215 14961
C6CF  EA        NOP                              A:55 X:00 Y:53 P:04 S:F7 PPU:131,221 14963
C6D0  08        PHP                              A:55 X:00 Y:53 P:04 S:F7 PPU:131,227 14965
C6D1  48        PHA                              A:55 X:00 Y:53 P:04 S:F6 PPU:131,236 14968
C6D2  14 A9     NOP $A9,X = $00                  A:55 X:00 Y:53 P:04 S:F5 PPU:131,245 14971
C6D4  34 A9     NOP $A9,X = $00                  A:55 X:00 Y:53 P:04 S:F5 PPU:131,257 14975
C6D6  54 A9     NOP $A9,X = $00                  A:55 X:00 Y:53 P:04 S:F5 PPU:131,269 14979
C6D8  74 A9     NOP $A9,X = $00                  A:55 X:00 Y:53 P:04 S:F5 PPU:131,281 14983
C6DA  D4 A9     NOP $A9,X = $00                  A:55 X:00 Y:53 P:04 S:F5 PPU:131,293 14987
C6DC  F4 A9     NOP $A9,X = $00                  A:55 X:00 Y:53 P:04 S:F5 PPU:131,305 14991
C6DE  EA        NOP                              A:55 X:00 Y:53 P:04 S:F5 PPU:131,317 14995
C6DF  EA        NOP                              A:55 X:00 Y:53 P:04 S:F5 PPU:131,323 14997
C6E0  EA        NOP                              A:55 X:00 Y:53 P:04 S:F5 PPU:131,329 14999
C6E1  EA        NOP                              A:55 X:00 Y:53 P:04 S:F5 PPU:131,335 15001
C6E2  08        PHP                              A:55 X:00 Y:53 P:04 S:F5 PPU:132,0   15003
C6E3  48        PHA                              A:55 X:00 Y:53 P:04 S:F4 PPU:132,9   15006
C6E4  1A        NOP                              A:55 X:00 Y:53 P:04 S:F3 PPU:132,18  15009
C6E5  3A        NOP                              A:55 X:00 Y:53 P:04 S:F3 PPU:132,24  15011
C6E6  5A        NOP                              A:55 X:00 Y:53 P:04 S:F3 PPU:132,30  15013
C6E7  7A        NOP                              A:55 X:00 Y:53 P:04 S:F3 PPU:132,36  15015
C6E8  DA        NOP                              A:55 X:00 Y:53 P:04 S:F3 PPU:132,42  15017
C6E9  FA        NOP                              A:55 X:00 Y:53 P:04 S:F3 PPU:132,48  15019
C6EA  80 89     NOP #$89                         A:55 X:00 Y:53 P:04 S:F3 PPU:132,54  15021
C6EC  EA        NOP                              A:55 X:00 Y:53 P:04 S:F3 PPU:132,60  15023
C6ED  EA        NOP                              A:55 X:00 Y:53 P:04 S:F3 PPU:132,66  15025
C6EE  EA        NOP                              A:55 X:00 Y:53 P:04 S:F3 PPU:132,72  15027
C6EF  EA        NOP                              A:55 X:00 Y:53 P:04 S:F3 PPU:132,78  15029
C6F0  08        PHP                              A:55 X:00 Y:53 P:04 S:F3 PPU:132,84  15031
C6F1  48        PHA                              A:55 X:00 Y:53 P:04 S:F2 PPU:132,93  15034
C6F2  1C A9 A9  NOP $A9A9,X = $A9                A:55 X:00 Y:53 P:04 S:F1 PPU:132,102 15037
C6F5  3C A9 A9  NOP $A9A9,X = $A9                A:55 X:00 Y:53 P:04 S:F1 PPU:132,114 15041
C6F8  5C A9 A9  NOP $A9A9,X = $A9                A:55 X:00 Y:53 P:04 S:F1 PPU:132,126 15045
C6FB  7C A9 A9  NOP $A9A9,X = $A9                A:55 X:00 Y:53 P:04 S:F1 PPU:132,138 15049
C6FE  DC A9 A9  NOP $A9A9,X = $A9                A:55 X:00 Y:53 P:04 S:F1 PPU:132,150 15053
C701  FC A9 A9  NOP $A9A9,X = $A9                A:55 X:00 Y:53 P:04 S:F1 PPU:132,162 15057
C704  EA        NOP                              A:55 X:00 Y:53 P:04 S:F1 PPU:132,174 15061
C705  EA        NOP                              A:55 X:00 Y:53 P:04 S:F1 PPU:132,180 15063
C706  EA        NOP                              A:55 X:00 Y:53 P:04 S:F1 PPU:132,186 15065
C707  EA        NOP                              A:55 X:00 Y:53 P:04 S:F1 PPU:132,192 15067
C708  08        PHP                              A:55 X:00 Y:53 P:04 S:F1 PPU:132,198 15069
C709  48        PHA                              A:55 X:00 Y:53 P:04 S:F0 PPU:132,207 15072
C70A  A2 05     LDX #$05                         A:55 X:00 Y:53 P:04 S:EF PPU:132,216 15075
C70C  68        PLA                              A:55 X:05 Y:53 P:04 S:EF PPU:132,222 15077
C70D  C9 55     CMP #$55                         A:55 X:05 Y:53 P:04 S:F0 PPU:132,234 15081
C70F  F0 0A     BEQ $C71B                        A:55 X:05 Y:53 P:07 S:F0 PPU:132,240 15083
C71B  68        PLA                              A:55 X:05 Y:53 P:07 S:F0 PPU:132,249 15086
C71C  29 CB     AND #$CB                         A:34 X:05 Y:53 P:05 S:F1 PPU:132,261 15090
C71E  C9 00     CMP #$00                         A:00 X:05 Y:53 P:07 S:F1 PPU:132,267 15092
C720  F0 06     BEQ $C728                        A:00 X:05 Y:53 P:07 S:F1 PPU:132,273 15094
C728  C8        INY                              A:00 X:05 Y:53 P:07 S:F1 PPU:132,282 15097
C729  CA        DEX                              A:00 X:05 Y:54 P:05 S:F1 PPU:132,288 15099
C72A  D0 E0     BNE $C70C                        A:00 X:04 Y:54 P:05 S:F1 PPU:132,294 15101
C70C  68        PLA                              A:00 X:04 Y:54 P:05 S:F1 PPU:132,303 15104
C70D  C9 55     CMP #$55                         A:55 X:04 Y:54 P:05 S:F2 PPU:132,315 15108
C70F  F0 0A     BEQ $C71B                        A:55 X:04 Y:54 P:07 S:F2 PPU:132,321 15110
C71B  68        PLA                              A:55 X:04 Y:54 P:07 S:F2 PPU:132,330 15113
C71C  29 CB     AND #$CB                         A:34 X:04 Y:54 P:05 S:F3 PPU:133,1   15117
C71E  C9 00     CMP #$00                         A:00 X:04 Y:54 P:07 S:F3 PPU:133,7   15119
C720  F0 06     BEQ $C728                        A:00 X:04 Y:54 P:07 S:F3 PPU:133,13  15121
C728  C8        INY                              A:00 X:04 Y:54 P:07 S:F3 PPU:133,22  15124
C729  CA        DEX                              A:00 X:04 Y:55 P:05 S:F3 PPU:133,28  15126
C72A  D0 E0     BNE $C70C                        A:00 X:03 Y:55 P:05 S:F3 PPU:133,34  15128
C70C  68        PLA                              A:00 X:03 Y:55 P:05 S:F3 PPU:133,43  15131
C70D  C9 55     CMP #$55                         A:55 X:03 Y:55 P:05 S:F4 PPU:133,55  15135
C70F  F0 0A     BEQ $C71B                        A:55 X:03 Y:55 P:07 S:F4 PPU:133,61  15137
C71B  68        PLA                              A:55 X:03 Y:55 P:07 S:F4 PPU:133,70  15140
C71C  29 CB     AND #$CB                         A:34 X:03 Y:55 P:05 S:F5 PPU:133,82  15144
C71E  C9 00     CMP #$00                         A:00 X:03 Y:55 P:07 S:F5 PPU:133,88  15146
C720  F0 06     BEQ $C728                        A:00 X:03 Y:55 P:07 S:F5 PPU:133,94  15148
C728  C8        INY                              A:00 X:03 Y:55 P:07 S:F5 PPU:133,103 15151
C729  CA        DEX                              A:00 X:03 Y:56 P:05 S:F5 PPU:133,109 15153
C72A  D0 E0     BNE $C70C                        A:00 X:02 Y:56 P:05 S:F5 PPU:133,115 15155
C70C  68        PLA                              A:00 X:02 Y:56 P:05 S:F5 PPU:133,124 15158
C70D  C9 55     CMP #$55                         A:55 X:02 Y:56 P:05 S:F6 PPU:133,136 15162
C70F  F0 0A     BEQ $C71B                        A:55 X:02 Y:56 P:07 S:F6 PPU:133,142 15164
C71B  68        PLA                              A:55 X:02 Y:56 P:07 S:F6 PPU:133,151 15167
C71C  29 CB     AND #$CB                         A:34 X:02 Y:56 P:05 S:F7 PPU:133,163 15171
C71E  C9 00     CMP #$00                         A:00 X:02 Y:56 P:07 S:F7 PPU:133,169 15173
C720  F0 06     BEQ $C728                        A:00 X:02 Y:56 P:07 S:F7 PPU:133,175 15175
C728  C8        INY                              A:00 X:02 Y:56 P:07 S:F7 PPU:133,184 15178
C729  CA        DEX                              A:00 X:02 Y:57 P:05 S:F7 PPU:133,190 15180
C72A  D0 E0     BNE $C70C                        A:00 X:01 Y:57 P:05 S:F7 PPU:133,196 15182
C70C  68        PLA                              A:00 X:01 Y:57 P:05 S:F7 PPU:133,205 15185
C70D  C9 55     CMP #$55                         A:55 X:01 Y:57 P:05 S:F8 PPU:133,217 15189
C70F  F0 0A     BEQ $C71B                        A:55 X:01 Y:57 P:07 S:F8 PPU:133,223 15191
C71B  68        PLA                              A:55 X:01 Y:57 P:07 S:F8 PPU:133,232 15194
C71C  29 CB     AND #$CB                         A:34 X:01 Y:57 P:05 S:F9 PPU:133,244 15198
C71E  C9 00     CMP #$00                         A:00 X:01 Y:57 P:07 S:F9 PPU:133,250 15200
C720  F0 06     BEQ $C728                        A:00 X:01 Y:57 P:07 S:F9 PPU:133,256 15202
C728  C8        INY                              A:00 X:01 Y:57 P:07 S:F9 PPU:133,265 15205
C729  CA        DEX                              A:00 X:01 Y:58 P:05 S:F9 PPU:133,271 15207
C72A  D0 E0     BNE $C70C                        A:00 X:00 Y:58 P:07 S:F9 PPU:133,277 15209
C72C  60        RTS                              A:00 X:00 Y:58 P:07 S:F9 PPU:133,283 15211
C6AF  60        RTS                              A:00 X:00 Y:58 P:07 S:FB PPU:133,301 15217
C632  20 1E E5  JSR $E51E                        A:00 X:00 Y:58 P:07 S:FD PPU:133,319 15223
E51E  A9 55     LDA #$55                         A:00 X:00 Y:58 P:07 S:FB PPU:133,337 15229
E520  8D 80 05  STA $0580 = $00                  A:55 X:00 Y:58 P:05 S:FB PPU:134,2   15231
E523  A9 AA     LDA #$AA                         A:55 X:00 Y:58 P:05 S:FB PPU:134,14  15235
E525  8D 32 04  STA $0432 = $00                  A:AA X:00 Y:58 P:85 S:FB PPU:134,20  15237
E528  A9 80     LDA #$80                         A:AA X:00 Y:58 P:85 S:FB PPU:134,32  15241
E52A  85 43     STA $43 = $00                    A:80 X:00 Y:58 P:85 S:FB PPU:134,38  15243
E52C  A9 05     LDA #$05                         A:80 X:00 Y:58 P:85 S:FB PPU:134,47  15246
E52E  85 44     STA $44 = $00                    A:05 X:00 Y:58 P:05 S:FB PPU:134,53  15248
E530  A9 32     LDA #$32                         A:05 X:00 Y:58 P:05 S:FB PPU:134,62  15251
E532  85 45     STA $45 = $00                    A:32 X:00 Y:58 P:05 S:FB PPU:134,68  15253
E534  A9 04     LDA #$04                         A:32 X:00 Y:58 P:05 S:FB PPU:134,77  15256
E536  85 46     STA $46 = $00                    A:04 X:00 Y:58 P:05 S:FB PPU:134,83  15258
E538  A2 03     LDX #$03                         A:04 X:00 Y:58 P:05 S:FB PPU:134,92  15261
E53A  A0 77     LDY #$77                         A:04 X:03 Y:58 P:05 S:FB PPU:134,98  15263
E53C  A9 FF     LDA #$FF                         A:04 X:03 Y:77 P:05 S:FB PPU:134,104 15265
E53E  85 01     STA $01 = $FF                    A:FF X:03 Y:77 P:85 S:FB PPU:134,110 15267
E540  24 01     BIT $01 = $FF                    A:FF X:03 Y:77 P:85 S:FB PPU:134,119 15270
E542  38        SEC                              A:FF X:03 Y:77 P:C5 S:FB PPU:134,128 15273
E543  A9 00     LDA #$00                         A:FF X:03 Y:77 P:C5 S:FB PPU:134,134 15275
E545  A3 40     LAX ($40,X) = $55                A:00 X:03 Y:77 P:47 S:FB PPU:134,140 15277
E547  EA        NOP                              A:55 X:55 Y:77 P:45 S:FB PPU:134,158 15283
E548  EA        NOP                              A:55 X:55 Y:77 P:45 S:FB PPU:134,164 15285
E549  EA        NOP                              A:55 X:55 Y:77 P:45 S:FB PPU:134,170 15287
E54A  EA        NOP                              A:55 X:55 Y:77 P:45 S:FB PPU:134,176 15289
E54B  F0 12     BEQ $E55F                        A:55 X:55 Y:77 P:45 S:FB PPU:134,182 15291
E54D  30 10     BMI $E55F                        A:55 X:55 Y:77 P:45 S:FB PPU:134,188 15293
E54F  50 0E     BVC $E55F                        A:55 X:55 Y:77 P:45 S:FB PPU:134,194 15295
E551  90 0C     BCC $E55F                        A:55 X:55 Y:77 P:45 S:FB PPU:134,200 15297
E553  C9 55     CMP #$55                         A:55 X:55 Y:77 P:45 S:FB PPU:134,206 15299
E555  D0 08     BNE $E55F                        A:55 X:55 Y:77 P:47 S:FB PPU:134,212 15301
E557  E0 55     CPX #$55                         A:55 X:55 Y:77 P:47 S:FB PPU:134,218 15303
E559  D0 04     BNE $E55F                        A:55 X:55 Y:77 P:47 S:FB PPU:134,224 15305
E55B  C0 77     CPY #$77                         A:55 X:55 Y:77 P:47 S:FB PPU:134,230 15307
E55D  F0 04     BEQ $E563                        A:55 X:55 Y:77 P:47 S:FB PPU:134,236 15309
E563  A2 05     LDX #$05                         A:55 X:55 Y:77 P:47 S:FB PPU:134,245 15312
E565  A0 33     LDY #$33                         A:55 X:05 Y:77 P:45 S:FB PPU:134,251 15314
E567  B8        CLV                              A:55 X:05 Y:33 P:45 S:FB PPU:134,257 15316
E568  18        CLC                              A:55 X:05 Y:33 P:05 S:FB PPU:134,263 15318
E569  A9 00     LDA #$00                         A:55 X:05 Y:33 P:04 S:FB PPU:134,269 15320
E56B  A3 40     LAX ($40,X) = $AA                A:00 X:05 Y:33 P:06 S:FB PPU:134,275 15322
E56D  EA        NOP                              A:AA X:AA Y:33 P:84 S:FB PPU:134,293 15328
E56E  EA        NOP                              A:AA X:AA Y:33 P:84 S:FB PPU:134,299 15330
E56F  EA        NOP                              A:AA X:AA Y:33 P:84 S:FB PPU:134,305 15332
E570  EA        NOP                              A:AA X:AA Y:33 P:84 S:FB PPU:134,311 15334
E571  F0 12     BEQ $E585                        A:AA X:AA Y:33 P:84 S:FB PPU:134,317 15336
E573  10 10     BPL $E585                        A:AA X:AA Y:33 P:84 S:FB PPU:134,323 15338
E575  70 0E     BVS $E585                        A:AA X:AA Y:33 P:84 S:FB PPU:134,329 15340
E577  B0 0C     BCS $E585                        A:AA X:AA Y:33 P:84 S:FB PPU:134,335 15342
E579  C9 AA     CMP #$AA                         A:AA X:AA Y:33 P:84 S:FB PPU:135,0   15344
E57B  D0 08     BNE $E585                        A:AA X:AA Y:33 P:07 S:FB PPU:135,6   15346
E57D  E0 AA     CPX #$AA                         A:AA X:AA Y:33 P:07 S:FB PPU:135,12  15348
E57F  D0 04     BNE $E585                        A:AA X:AA Y:33 P:07 S:FB PPU:135,18  15350
E581  C0 33     CPY #$33                         A:AA X:AA Y:33 P:07 S:FB PPU:135,24  15352
E583  F0 04     BEQ $E589                        A:AA X:AA Y:33 P:07 S:FB PPU:135,30  15354
E589  A9 87     LDA #$87                         A:AA X:AA Y:33 P:07 S:FB PPU:135,39  15357
E58B  85 67     STA $67 = $00                    A:87 X:AA Y:33 P:85 S:FB PPU:135,45  15359
E58D  A9 32     LDA #$32                         A:87 X:AA Y:33 P:85 S:FB PPU:135,54  15362
E58F  85 68     STA $68 = $00                    A:32 X:AA Y:33 P:05 S:FB PPU:135,60  15364
E591  A0 57     LDY #$57                         A:32 X:AA Y:33 P:05 S:FB PPU:135,69  15367
E593  24 01     BIT $01 = $FF                    A:32 X:AA Y:57 P:05 S:FB PPU:135,75  15369
E595  38        SEC                              A:32 X:AA Y:57 P:C5 S:FB PPU:135,84  15372
E596  A9 00     LDA #$00                         A:32 X:AA Y:57 P:C5 S:FB PPU:135,90  15374
E598  A7 67     LAX $67 = $87                    A:00 X:AA Y:57 P:47 S:FB PPU:135,96  15376
E59A  EA        NOP                              A:87 X:87 Y:57 P:C5 S:FB PPU:135,105 15379
E59B  EA        NOP                              A:87 X:87 Y:57 P:C5 S:FB PPU:135,111 15381
E59C  EA        NOP                              A:87 X:87 Y:57 P:C5 S:FB PPU:135,117 15383
E59D  EA        NOP                              A:87 X:87 Y:57 P:C5 S:FB PPU:135,123 15385
E59E  F0 12     BEQ $E5B2                        A:87 X:87 Y:57 P:C5 S:FB PPU:135,129 15387
E5A0  10 10     BPL $E5B2                        A:87 X:87 Y:57 P:C5 S:FB PPU:135,135 15389
E5A2  50 0E     BVC $E5B2                        A:87 X:87 Y:57 P:C5 S:FB PPU:135,141 15391
E5A4  90 0C     BCC $E5B2                        A:87 X:87 Y:57 P:C5 S:FB PPU:135,147 15393
E5A6  C9 87     CMP #$87                         A:87 X:87 Y:57 P:C5 S:FB PPU:135,153 15395
E5A8  D0 08     BNE $E5B2                        A:87 X:87 Y:57 P:47 S:FB PPU:135,159 15397
E5AA  E0 87     CPX #$87                         A:87 X:87 Y:57 P:47 S:FB PPU:135,165 15399
E5AC  D0 04     BNE $E5B2                        A:87 X:87 Y:57 P:47 S:FB PPU:135,171 15401
E5AE  C0 57     CPY #$57                         A:87 X:87 Y:57 P:47 S:FB PPU:135,177 15403
E5B0  F0 04     BEQ $E5B6                        A:87 X:87 Y:57 P:47 S:FB PPU:135,183 15405
E5B6  A0 53     LDY #$53                         A:87 X:87 Y:57 P:47 S:FB PPU:135,192 15408
E5B8  B8        CLV                              A:87 X:87 Y:53 P:45 S:FB PPU:135,198 15410
E5B9  18        CLC                              A:87 X:87 Y:53 P:05 S:FB PPU:135,204 15412
E5BA  A9 00     LDA #$00                         A:87 X:87 Y:53 P:04 S:FB PPU:135,210 15414
E5BC  A7 68     LAX $68 = $32                    A:00 X:87 Y:53 P:06 S:FB PPU:135,216 15416
E5BE  EA        NOP                              A:32 X:32 Y:53 P:04 S:FB PPU:135,225 15419
E5BF  EA        NOP                              A:32 X:32 Y:53 P:04 S:FB PPU:135,231 15421
E5C0  EA        NOP                              A:32 X:32 Y:53 P:04 S:FB PPU:135,237 15423
E5C1  EA        NOP                              A:32 X:32 Y:53 P:04 S:FB PPU:135,243 15425
E5C2  F0 12     BEQ $E5D6                        A:32 X:32 Y:53 P:04 S:FB PPU:135,249 15427
E5C4  30 10     BMI $E5D6                        A:32 X:32 Y:53 P:04 S:FB PPU:135,255 15429
E5C6  70 0E     BVS $E5D6                        A:32 X:32 Y:53 P:04 S:FB PPU:135,261 15431
E5C8  B0 0C     BCS $E5D6                        A:32 X:32 Y:53 P:04 S:FB PPU:135,267 15433
E5CA  C9 32     CMP #$32                         A:32 X:32 Y:53 P:04 S:FB PPU:135,273 15435
E5CC  D0 08     BNE $E5D6                        A:32 X:32 Y:53 P:07 S:FB PPU:135,279 15437
E5CE  E0 32     CPX #$32                         A:32 X:32 Y:53 P:07 S:FB PPU:135,285 15439
E5D0  D0 04     BNE $E5D6                        A:32 X:32 Y:53 P:07 S:FB PPU:135,291 15441
E5D2  C0 53     CPY #$53                         A:32 X:32 Y:53 P:07 S:FB PPU:135,297 15443
E5D4  F0 04     BEQ $E5DA                        A:32 X:32 Y:53 P:07 S:FB PPU:135,303 15445
E5DA  A9 87     LDA #$87                         A:32 X:32 Y:53 P:07 S:FB PPU:135,312 15448
E5DC  8D 77 05  STA $0577 = $00                  A:87 X:32 Y:53 P:85 S:FB PPU:135,318 15450
E5DF  A9 32     LDA #$32                         A:87 X:32 Y:53 P:85 S:FB PPU:135,330 15454
E5E1  8D 78 05  STA $0578 = $00                  A:32 X:32 Y:53 P:05 S:FB PPU:135,336 15456
E5E4  A0 57     LDY #$57                         A:32 X:32 Y:53 P:05 S:FB PPU:136,7   15460
E5E6  24 01     BIT $01 = $FF                    A:32 X:32 Y:57 P:05 S:FB PPU:136,13  15462
E5E8  38        SEC                              A:32 X:32 Y:57 P:C5 S:FB PPU:136,22  15465
E5E9  A9 00     LDA #$00                         A:32 X:32 Y:57 P:C5 S:FB PPU:136,28  15467
E5EB  AF 77 05  LAX $0577 = $87                  A:00 X:32 Y:57 P:47 S:FB PPU:136,34  15469
E5EE  EA        NOP                              A:87 X:87 Y:57 P:C5 S:FB PPU:136,46  15473
E5EF  EA        NOP                              A:87 X:87 Y:57 P:C5 S:FB PPU:136,52  15475
E5F0  EA        NOP                              A:87 X:87 Y:57 P:C5 S:FB PPU:136,58  15477
E5F1  EA        NOP                              A:87 X:87 Y:57 P:C5 S:FB PPU:136,64  15479
E5F2  F0 12     BEQ $E606                        A:87 X:87 Y:57 P:C5 S:FB PPU:136,70  15481
E5F4  10 10     BPL $E606                        A:87 X:87 Y:57 P:C5 S:FB PPU:136,76  15483
E5F6  50 0E     BVC $E606                        A:87 X:87 Y:57 P:C5 S:FB PPU:136,82  15485
E5F8  90 0C     BCC $E606                        A:87 X:87 Y:57 P:C5 S:FB PPU:136,88  15487
E5FA  C9 87     CMP #$87                         A:87 X:87 Y:57 P:C5 S:FB PPU:136,94  15489
E5FC  D0 08     BNE $E606                        A:87 X:87 Y:57 P:47 S:FB PPU:136,100 15491
E5FE  E0 87     CPX #$87                         A:87 X:87 Y:57 P:47 S:FB PPU:136,106 15493
E600  D0 04     BNE $E606                        A:87 X:87 Y:57 P:47 S:FB PPU:136,112 15495
E602  C0 57     CPY #$57                         A:87 X:87 Y:57 P:47 S:FB PPU:136,118 15497
E604  F0 04     BEQ $E60A                        A:87 X:87 Y:57 P:47 S:FB PPU:136,124 15499
E60A  A0 53     LDY #$53                         A:87 X:87 Y:57 P:47 S:FB PPU:136,133 15502
E60C  B8        CLV                              A:87 X:87 Y:53 P:45 S:FB PPU:136,139 15504
E60D  18        CLC                              A:87 X:87 Y:53 P:05 S:FB PPU:136,145 15506
E60E  A9 00     LDA #$00                         A:87 X:87 Y:53 P:04 S:FB PPU:136,151 15508
E610  AF 78 05  LAX $0578 = $32                  A:00 X:87 Y:53 P:06 S:FB PPU:136,157 15510
E613  EA        NOP                              A:32 X:32 Y:53 P:04 S:FB PPU:136,169 15514
E614  EA        NOP                              A:32 X:32 Y:53 P:04 S:FB PPU:136,175 15516
E615  EA        NOP                              A:32 X:32 Y:53 P:04 S:FB PPU:136,181 15518
E616  EA        NOP                              A:32 X:32 Y:53 P:04 S:FB PPU:136,187 15520
E617  F0 12     BEQ $E62B                        A:32 X:32 Y:53 P:04 S:FB PPU:136,193 15522
E619  30 10     BMI $E62B                        A:32 X:32 Y:53 P:04 S:FB PPU:136,199 15524
E61B  70 0E     BVS $E62B                        A:32 X:32 Y:53 P:04 S:FB PPU:136,205 15526
E61D  B0 0C     BCS $E62B                        A:32 X:32 Y:53 P:04 S:FB PPU:136,211 15528
E61F  C9 32     CMP #$32                         A:32 X:32 Y:53 P:04 S:FB PPU:136,217 15530
E621  D0 08     BNE $E62B                        A:32 X:32 Y:53 P:07 S:FB PPU:136,223 15532
E623  E0 32     CPX #$32                         A:32 X:32 Y:53 P:07 S:FB PPU:136,229 15534
E625  D0 04     BNE $E62B                        A:32 X:32 Y:53 P:07 S:FB PPU:136,235 15536
E627  C0 53     CPY #$53                         A:32 X:32 Y:53 P:07 S:FB PPU:136,241 15538
E629  F0 04     BEQ $E62F                        A:32 X:32 Y:53 P:07 S:FB PPU:136,247 15540
E62F  A9 FF     LDA #$FF                         A:32 X:32 Y:53 P:07 S:FB PPU:136,256 15543
E631  85 43     STA $43 = $80                    A:FF X:32 Y:53 P:85 S:FB PPU:136,262 15545
E633  A9 04     LDA #$04                         A:FF X:32 Y:53 P:85 S:FB PPU:136,271 15548
E635  85 44     STA $44 = $05                    A:04 X:32 Y:53 P:05 S:FB PPU:136,277 15550
E637  A9 32     LDA #$32                         A:04 X:32 Y:53 P:05 S:FB PPU:136,286 15553
E639  85 45     STA $45 = $32                    A:32 X:32 Y:53 P:05 S:FB PPU:136,292 15555
E63B  A9 04     LDA #$04                         A:32 X:32 Y:53 P:05 S:FB PPU:136,301 15558
E63D  85 46     STA $46 = $04                    A:04 X:32 Y:53 P:05 S:FB PPU:136,307 15560
E63F  A9 55     LDA #$55                         A:04 X:32 Y:53 P:05 S:FB PPU:136,316 15563
E641  8D 80 05  STA $0580 = $55                  A:55 X:32 Y:53 P:05 S:FB PPU:136,322 15565
E644  A9 AA     LDA #$AA                         A:55 X:32 Y:53 P:05 S:FB PPU:136,334 15569
E646  8D 32 04  STA $0432 = $AA                  A:AA X:32 Y:53 P:85 S:FB PPU:136,340 15571
E649  A2 03     LDX #$03                         A:AA X:32 Y:53 P:85 S:FB PPU:137,11  15575
E64B  A0 81     LDY #$81                         A:AA X:03 Y:53 P:05 S:FB PPU:137,17  15577
E64D  24 01     BIT $01 = $FF                    A:AA X:03 Y:81 P:85 S:FB PPU:137,23  15579
E64F  38        SEC                              A:AA X:03 Y:81 P:C5 S:FB PPU:137,32  15582
E650  A9 00     LDA #$00                         A:AA X:03 Y:81 P:C5 S:FB PPU:137,38  15584
E652  B3 43     LAX ($43),Y = $55                A:00 X:03 Y:81 P:47 S:FB PPU:137,44  15586
E654  EA        NOP                              A:55 X:55 Y:81 P:45 S:FB PPU:137,62  15592
E655  EA        NOP                              A:55 X:55 Y:81 P:45 S:FB PPU:137,68  15594
E656  EA        NOP                              A:55 X:55 Y:81 P:45 S:FB PPU:137,74  15596
E657  EA        NOP                              A:55 X:55 Y:81 P:45 S:FB PPU:137,80  15598
E658  F0 12     BEQ $E66C                        A:55 X:55 Y:81 P:45 S:FB PPU:137,86  15600
E65A  30 10     BMI $E66C                        A:55 X:55 Y:81 P:45 S:FB PPU:137,92  15602
E65C  50 0E     BVC $E66C                        A:55 X:55 Y:81 P:45 S:FB PPU:137,98  15604
E65E  90 0C     BCC $E66C                        A:55 X:55 Y:81 P:45 S:FB PPU:137,104 15606
E660  C9 55     CMP #$55                         A:55 X:55 Y:81 P:45 S:FB PPU:137,110 15608
E662  D0 08     BNE $E66C                        A:55 X:55 Y:81 P:47 S:FB PPU:137,116 15610
E664  E0 55     CPX #$55                         A:55 X:55 Y:81 P:47 S:FB PPU:137,122 15612
E666  D0 04     BNE $E66C                        A:55 X:55 Y:81 P:47 S:FB PPU:137,128 15614
E668  C0 81     CPY #$81                         A:55 X:55 Y:81 P:47 S:FB PPU:137,134 15616
E66A  F0 04     BEQ $E670                        A:55 X:55 Y:81 P:47 S:FB PPU:137,140 15618
E670  A2 05     LDX #$05                         A:55 X:55 Y:81 P:47 S:FB PPU:137,149 15621
E672  A0 00     LDY #$00                         A:55 X:05 Y:81 P:45 S:FB PPU:137,155 15623
E674  B8        CLV                              A:55 X:05 Y:00 P:47 S:FB PPU:137,161 15625
E675  18        CLC                              A:55 X:05 Y:00 P:07 S:FB PPU:137,167 15627
E676  A9 00     LDA #$00                         A:55 X:05 Y:00 P:06 S:FB PPU:137,173 15629
E678  B3 45     LAX ($45),Y = $AA                A:00 X:05 Y:00 P:06 S:FB PPU:137,179 15631
E67A  EA        NOP                              A:AA X:AA Y:00 P:84 S:FB PPU:137,194 15636
E67B  EA        NOP                              A:AA X:AA Y:00 P:84 S:FB PPU:137,200 15638
E67C  EA        NOP                              A:AA X:AA Y:00 P:84 S:FB PPU:137,206 15640
E67D  EA        NOP                              A:AA X:AA Y:00 P:84 S:FB PPU:137,212 15642
E67E  F0 12     BEQ $E692                        A:AA X:AA Y:00 P:84 S:FB PPU:137,218 15644
E680  10 10     BPL $E692                        A:AA X:AA Y:00 P:84 S:FB PPU:137,224 15646
E682  70 0E     BVS $E692                        A:AA X:AA Y:00 P:84 S:FB PPU:137,230 15648
E684  B0 0C     BCS $E692                        A:AA X:AA Y:00 P:84 S:FB PPU:137,236 15650
E686  C9 AA     CMP #$AA                         A:AA X:AA Y:00 P:84 S:FB PPU:137,242 15652
E688  D0 08     BNE $E692                        A:AA X:AA Y:00 P:07 S:FB PPU:137,248 15654
E68A  E0 AA     CPX #$AA                         A:AA X:AA Y:00 P:07 S:FB PPU:137,254 15656
E68C  D0 04     BNE $E692                        A:AA X:AA Y:00 P:07 S:FB PPU:137,260 15658
E68E  C0 00     CPY #$00                         A:AA X:AA Y:00 P:07 S:FB PPU:137,266 15660
E690  F0 04     BEQ $E696                        A:AA X:AA Y:00 P:07 S:FB PPU:137,272 15662
E696  A9 87     LDA #$87                         A:AA X:AA Y:00 P:07 S:FB PPU:137,281 15665
E698  85 67     STA $67 = $87                    A:87 X:AA Y:00 P:85 S:FB PPU:137,287 15667
E69A  A9 32     LDA #$32                         A:87 X:AA Y:00 P:85 S:FB PPU:137,296 15670
E69C  85 68     STA $68 = $32                    A:32 X:AA Y:00 P:05 S:FB PPU:137,302 15672
E69E  A0 57     LDY #$57                         A:32 X:AA Y:00 P:05 S:FB PPU:137,311 15675
E6A0  24 01     BIT $01 = $FF                    A:32 X:AA Y:57 P:05 S:FB PPU:137,317 15677
E6A2  38        SEC                              A:32 X:AA Y:57 P:C5 S:FB PPU:137,326 15680
E6A3  A9 00     LDA #$00                         A:32 X:AA Y:57 P:C5 S:FB PPU:137,332 15682
E6A5  B7 10     LAX $10,Y = $87                  A:00 X:AA Y:57 P:47 S:FB PPU:137,338 15684
E6A7  EA        NOP                              A:87 X:87 Y:57 P:C5 S:FB PPU:138,9   15688
E6A8  EA        NOP                              A:87 X:87 Y:57 P:C5 S:FB PPU:138,15  15690
E6A9  EA        NOP                              A:87 X:87 Y:57 P:C5 S:FB PPU:138,21  15692
E6AA  EA        NOP                              A:87 X:87 Y:57 P:C5 S:FB PPU:138,27  15694
E6AB  F0 12     BEQ $E6BF                        A:87 X:87 Y:57 P:C5 S:FB PPU:138,33  15696
E6AD  10 10     BPL $E6BF                        A:87 X:87 Y:57 P:C5 S:FB PPU:138,39  15698
E6AF  50 0E     BVC $E6BF                        A:87 X:87 Y:57 P:C5 S:FB PPU:138,45  15700
E6B1  90 0C     BCC $E6BF                        A:87 X:87 Y:57 P:C5 S:FB PPU:138,51  15702
E6B3  C9 87     CMP #$87                         A:87 X:87 Y:57 P:C5 S:FB PPU:138,57  15704
E6B5  D0 08     BNE $E6BF                        A:87 X:87 Y:57 P:47 S:FB PPU:138,63  15706
E6B7  E0 87     CPX #$87                         A:87 X:87 Y:57 P:47 S:FB PPU:138,69  15708
E6B9  D0 04     BNE $E6BF                        A:87 X:87 Y:57 P:47 S:FB PPU:138,75  15710
E6BB  C0 57     CPY #$57                         A:87 X:87 Y:57 P:47 S:FB PPU:138,81  15712
E6BD  F0 04     BEQ $E6C3                        A:87 X:87 Y:57 P:47 S:FB PPU:138,87  15714
E6C3  A0 FF     LDY #$FF                         A:87 X:87 Y:57 P:47 S:FB PPU:138,96  15717
E6C5  B8        CLV                              A:87 X:87 Y:FF P:C5 S:FB PPU:138,102 15719
E6C6  18        CLC                              A:87 X:87 Y:FF P:85 S:FB PPU:138,108 15721
E6C7  A9 00     LDA #$00                         A:87 X:87 Y:FF P:84 S:FB PPU:138,114 15723
E6C9  B7 69     LAX $69,Y = $32                  A:00 X:87 Y:FF P:06 S:FB PPU:138,120 15725
E6CB  EA        NOP                              A:32 X:32 Y:FF P:04 S:FB PPU:138,132 15729
E6CC  EA        NOP                              A:32 X:32 Y:FF P:04 S:FB PPU:138,138 15731
E6CD  EA        NOP                              A:32 X:32 Y:FF P:04 S:FB PPU:138,144 15733
E6CE  EA        NOP                              A:32 X:32 Y:FF P:04 S:FB PPU:138,150 15735
E6CF  F0 12     BEQ $E6E3                        A:32 X:32 Y:FF P:04 S:FB PPU:138,156 15737
E6D1  30 10     BMI $E6E3                        A:32 X:32 Y:FF P:04 S:FB PPU:138,162 15739
E6D3  70 0E     BVS $E6E3                        A:32 X:32 Y:FF P:04 S:FB PPU:138,168 15741
E6D5  B0 0C     BCS $E6E3                        A:32 X:32 Y:FF P:04 S:FB PPU:138,174 15743
E6D7  C9 32     CMP #$32                         A:32 X:32 Y:FF P:04 S:FB PPU:138,180 15745
E6D9  D0 08     BNE $E6E3                        A:32 X:32 Y:FF P:07 S:FB PPU:138,186 15747
E6DB  E0 32     CPX #$32                         A:32 X:32 Y:FF P:07 S:FB PPU:138,192 15749
E6DD  D0 04     BNE $E6E3                        A:32 X:32 Y:FF P:07 S:FB PPU:138,198 15751
E6DF  C0 FF     CPY #$FF                         A:32 X:32 Y:FF P:07 S:FB PPU:138,204 15753
E6E1  F0 04     BEQ $E6E7                        A:32 X:32 Y:FF P:07 S:FB PPU:138,210 15755
E6E7  A9 87     LDA #$87                         A:32 X:32 Y:FF P:07 S:FB PPU:138,219 15758
E6E9  8D 87 05  STA $0587 = $00                  A:87 X:32 Y:FF P:85 S:FB PPU:138,225 15760
E6EC  A9 32     LDA #$32                         A:87 X:32 Y:FF P:85 S:FB PPU:138,237 15764
E6EE  8D 88 05  STA $0588 = $00                  A:32 X:32 Y:FF P:05 S:FB PPU:138,243 15766
E6F1  A0 30     LDY #$30                         A:32 X:32 Y:FF P:05 S:FB PPU:138,255 15770
E6F3  24 01     BIT $01 = $FF                    A:32 X:32 Y:30 P:05 S:FB PPU:138,261 15772
E6F5  38        SEC                              A:32 X:32 Y:30 P:C5 S:FB PPU:138,270 15775
E6F6  A9 00     LDA #$00                         A:32 X:32 Y:30 P:C5 S:FB PPU:138,276 15777
E6F8  BF 57 05  LAX $0557,Y = $87                A:00 X:32 Y:30 P:47 S:FB PPU:138,282 15779
E6FB  EA        NOP                              A:87 X:87 Y:30 P:C5 S:FB PPU:138,294 15783
E6FC  EA        NOP                              A:87 X:87 Y:30 P:C5 S:FB PPU:138,300 15785
E6FD  EA        NOP                              A:87 X:87 Y:30 P:C5 S:FB PPU:138,306 15787
E6FE  EA        NOP                              A:87 X:87 Y:30 P:C5 S:FB PPU:138,312 15789
E6FF  F0 12     BEQ $E713                        A:87 X:87 Y:30 P:C5 S:FB PPU:138,318 15791
E701  10 10     BPL $E713                        A:87 X:87 Y:30 P:C5 S:FB PPU:138,324 15793
E703  50 0E     BVC $E713                        A:87 X:87 Y:30 P:C5 S:FB PPU:138,330 15795
E705  90 0C     BCC $E713                        A:87 X:87 Y:30 P:C5 S:FB PPU:138,336 15797
E707  C9 87     CMP #$87                         A:87 X:87 Y:30 P:C5 S:FB PPU:139,1   15799
E709  D0 08     BNE $E713                        A:87 X:87 Y:30 P:47 S:FB PPU:139,7   15801
E70B  E0 87     CPX #$87                         A:87 X:87 Y:30 P:47 S:FB PPU:139,13  15803
E70D  D0 04     BNE $E713                        A:87 X:87 Y:30 P:47 S:FB PPU:139,19  15805
E70F  C0 30     CPY #$30                         A:87 X:87 Y:30 P:47 S:FB PPU:139,25  15807
E711  F0 04     BEQ $E717                        A:87 X:87 Y:30 P:47 S:FB PPU:139,31  15809
E717  A0 40     LDY #$40                         A:87 X:87 Y:30 P:47 S:FB PPU:139,40  15812
E719  B8        CLV                              A:87 X:87 Y:40 P:45 S:FB PPU:139,46  15814
E71A  18        CLC                              A:87 X:87 Y:40 P:05 S:FB PPU:139,52  15816
E71B  A9 00     LDA #$00                         A:87 X:87 Y:40 P:04 S:FB PPU:139,58  15818
E71D  BF 48 05  LAX $0548,Y = $32                A:00 X:87 Y:40 P:06 S:FB PPU:139,64  15820
E720  EA        NOP                              A:32 X:32 Y:40 P:04 S:FB PPU:139,76  15824
E721  EA        NOP                              A:32 X:32 Y:40 P:04 S:FB PPU:139,82  15826
E722  EA        NOP                              A:32 X:32 Y:40 P:04 S:FB PPU:139,88  15828
E723  EA        NOP                              A:32 X:32 Y:40 P:04 S:FB PPU:139,94  15830
E724  F0 12     BEQ $E738                        A:32 X:32 Y:40 P:04 S:FB PPU:139,100 15832
E726  30 10     BMI $E738                        A:32 X:32 Y:40 P:04 S:FB PPU:139,106 15834
E728  70 0E     BVS $E738                        A:32 X:32 Y:40 P:04 S:FB PPU:139,112 15836
E72A  B0 0C     BCS $E738                        A:32 X:32 Y:40 P:04 S:FB PPU:139,118 15838
E72C  C9 32     CMP #$32                         A:32 X:32 Y:40 P:04 S:FB PPU:139,124 15840
E72E  D0 08     BNE $E738                        A:32 X:32 Y:40 P:07 S:FB PPU:139,130 15842
E730  E0 32     CPX #$32                         A:32 X:32 Y:40 P:07 S:FB PPU:139,136 15844
E732  D0 04     BNE $E738                        A:32 X:32 Y:40 P:07 S:FB PPU:139,142 15846
E734  C0 40     CPY #$40                         A:32 X:32 Y:40 P:07 S:FB PPU:139,148 15848
E736  F0 04     BEQ $E73C                        A:32 X:32 Y:40 P:07 S:FB PPU:139,154 15850
E73C  60        RTS                              A:32 X:32 Y:40 P:07 S:FB PPU:139,163 15853
C635  20 3D E7  JSR $E73D                        A:32 X:32 Y:40 P:07 S:FD PPU:139,181 15859
E73D  A9 C0     LDA #$C0                         A:32 X:32 Y:40 P:07 S:FB PPU:139,199 15865
E73F  85 01     STA $01 = $FF                    A:C0 X:32 Y:40 P:85 S:FB PPU:139,205 15867
E741  A9 00     LDA #$00                         A:C0 X:32 Y:40 P:85 S:FB PPU:139,214 15870
E743  8D 89 04  STA $0489 = $00                  A:00 X:32 Y:40 P:07 S:FB PPU:139,220 15872
E746  A9 89     LDA #$89                         A:00 X:32 Y:40 P:07 S:FB PPU:139,232 15876
E748  85 60     STA $60 = $00                    A:89 X:32 Y:40 P:85 S:FB PPU:139,238 15878
E74A  A9 04     LDA #$04                         A:89 X:32 Y:40 P:85 S:FB PPU:139,247 15881
E74C  85 61     STA $61 = $00                    A:04 X:32 Y:40 P:05 S:FB PPU:139,253 15883
E74E  A0 44     LDY #$44                         A:04 X:32 Y:40 P:05 S:FB PPU:139,262 15886
E750  A2 17     LDX #$17                         A:04 X:32 Y:44 P:05 S:FB PPU:139,268 15888
E752  A9 3E     LDA #$3E                         A:04 X:17 Y:44 P:05 S:FB PPU:139,274 15890
E754  24 01     BIT $01 = $C0                    A:3E X:17 Y:44 P:05 S:FB PPU:139,280 15892
E756  18        CLC                              A:3E X:17 Y:44 P:C7 S:FB PPU:139,289 15895
E757  83 49     SAX ($49,X) = $00                A:3E X:17 Y:44 P:C6 S:FB PPU:139,295 15897
E759  EA        NOP                              A:3E X:17 Y:44 P:C6 S:FB PPU:139,313 15903
E75A  EA        NOP                              A:3E X:17 Y:44 P:C6 S:FB PPU:139,319 15905
E75B  EA        NOP                              A:3E X:17 Y:44 P:C6 S:FB PPU:139,325 15907
E75C  EA        NOP                              A:3E X:17 Y:44 P:C6 S:FB PPU:139,331 15909
E75D  D0 19     BNE $E778                        A:3E X:17 Y:44 P:C6 S:FB PPU:139,337 15911
E75F  B0 17     BCS $E778                        A:3E X:17 Y:44 P:C6 S:FB PPU:140,2   15913
E761  50 15     BVC $E778                        A:3E X:17 Y:44 P:C6 S:FB PPU:140,8   15915
E763  10 13     BPL $E778                        A:3E X:17 Y:44 P:C6 S:FB PPU:140,14  15917
E765  C9 3E     CMP #$3E                         A:3E X:17 Y:44 P:C6 S:FB PPU:140,20  15919
E767  D0 0F     BNE $E778                        A:3E X:17 Y:44 P:47 S:FB PPU:140,26  15921
E769  C0 44     CPY #$44                         A:3E X:17 Y:44 P:47 S:FB PPU:140,32  15923
E76B  D0 0B     BNE $E778                        A:3E X:17 Y:44 P:47 S:FB PPU:140,38  15925
E76D  E0 17     CPX #$17                         A:3E X:17 Y:44 P:47 S:FB PPU:140,44  15927
E76F  D0 07     BNE $E778                        A:3E X:17 Y:44 P:47 S:FB PPU:140,50  15929
E771  AD 89 04  LDA $0489 = $16                  A:3E X:17 Y:44 P:47 S:FB PPU:140,56  15931
E774  C9 16     CMP #$16                         A:16 X:17 Y:44 P:45 S:FB PPU:140,68  15935
E776  F0 04     BEQ $E77C                        A:16 X:17 Y:44 P:47 S:FB PPU:140,74  15937
E77C  A0 44     LDY #$44                         A:16 X:17 Y:44 P:47 S:FB PPU:140,83  15940
E77E  A2 7A     LDX #$7A                         A:16 X:17 Y:44 P:45 S:FB PPU:140,89  15942
E780  A9 66     LDA #$66                         A:16 X:7A Y:44 P:45 S:FB PPU:140,95  15944
E782  38        SEC                              A:66 X:7A Y:44 P:45 S:FB PPU:140,101 15946
E783  B8        CLV                              A:66 X:7A Y:44 P:45 S:FB PPU:140,107 15948
E784  83 E6     SAX ($E6,X) = $16                A:66 X:7A Y:44 P:05 S:FB PPU:140,113 15950
E786  EA        NOP                              A:66 X:7A Y:44 P:05 S:FB PPU:140,131 15956
E787  EA        NOP                              A:66 X:7A Y:44 P:05 S:FB PPU:140,137 15958
E788  EA        NOP                              A:66 X:7A Y:44 P:05 S:FB PPU:140,143 15960
E789  EA        NOP                              A:66 X:7A Y:44 P:05 S:FB PPU:140,149 15962
E78A  F0 19     BEQ $E7A5                        A:66 X:7A Y:44 P:05 S:FB PPU:140,155 15964
E78C  90 17     BCC $E7A5                        A:66 X:7A Y:44 P:05 S:FB PPU:140,161 15966
E78E  70 15     BVS $E7A5                        A:66 X:7A Y:44 P:05 S:FB PPU:140,167 15968
E790  30 13     BMI $E7A5                        A:66 X:7A Y:44 P:05 S:FB PPU:140,173 15970
E792  C9 66     CMP #$66                         A:66 X:7A Y:44 P:05 S:FB PPU:140,179 15972
E794  D0 0F     BNE $E7A5                        A:66 X:7A Y:44 P:07 S:FB PPU:140,185 15974
E796  C0 44     CPY #$44                         A:66 X:7A Y:44 P:07 S:FB PPU:140,191 15976
E798  D0 0B     BNE $E7A5                        A:66 X:7A Y:44 P:07 S:FB PPU:140,197 15978
E79A  E0 7A     CPX #$7A                         A:66 X:7A Y:44 P:07 S:FB PPU:140,203 15980
E79C  D0 07     BNE $E7A5                        A:66 X:7A Y:44 P:07 S:FB PPU:140,209 15982
E79E  AD 89 04  LDA $0489 = $62                  A:66 X:7A Y:44 P:07 S:FB PPU:140,215 15984
E7A1  C9 62     CMP #$62                         A:62 X:7A Y:44 P:05 S:FB PPU:140,227 15988
E7A3  F0 04     BEQ $E7A9                        A:62 X:7A Y:44 P:07 S:FB PPU:140,233 15990
E7A9  A9 FF     LDA #$FF                         A:62 X:7A Y:44 P:07 S:FB PPU:140,242 15993
E7AB  85 49     STA $49 = $00                    A:FF X:7A Y:44 P:85 S:FB PPU:140,248 15995
E7AD  A0 44     LDY #$44                         A:FF X:7A Y:44 P:85 S:FB PPU:140,257 15998
E7AF  A2 AA     LDX #$AA                         A:FF X:7A Y:44 P:05 S:FB PPU:140,263 16000
E7B1  A9 55     LDA #$55                         A:FF X:AA Y:44 P:85 S:FB PPU:140,269 16002
E7B3  24 01     BIT $01 = $C0                    A:55 X:AA Y:44 P:05 S:FB PPU:140,275 16004
E7B5  18        CLC                              A:55 X:AA Y:44 P:C5 S:FB PPU:140,284 16007
E7B6  87 49     SAX $49 = $FF                    A:55 X:AA Y:44 P:C4 S:FB PPU:140,290 16009
E7B8  EA        NOP                              A:55 X:AA Y:44 P:C4 S:FB PPU:140,299 16012
E7B9  EA        NOP                              A:55 X:AA Y:44 P:C4 S:FB PPU:140,305 16014
E7BA  EA        NOP                              A:55 X:AA Y:44 P:C4 S:FB PPU:140,311 16016
E7BB  EA        NOP                              A:55 X:AA Y:44 P:C4 S:FB PPU:140,317 16018
E7BC  F0 18     BEQ $E7D6                        A:55 X:AA Y:44 P:C4 S:FB PPU:140,323 16020
E7BE  B0 16     BCS $E7D6                        A:55 X:AA Y:44 P:C4 S:FB PPU:140,329 16022
E7C0  50 14     BVC $E7D6                        A:55 X:AA Y:44 P:C4 S:FB PPU:140,335 16024
E7C2  10 12     BPL $E7D6                        A:55 X:AA Y:44 P:C4 S:FB PPU:141,0   16026
E7C4  C9 55     CMP #$55                         A:55 X:AA Y:44 P:C4 S:FB PPU:141,6   16028
E7C6  D0 0E     BNE $E7D6                        A:55 X:AA Y:44 P:47 S:FB PPU:141,12  16030
E7C8  C0 44     CPY #$44                         A:55 X:AA Y:44 P:47 S:FB PPU:141,18  16032
E7CA  D0 0A     BNE $E7D6                        A:55 X:AA Y:44 P:47 S:FB PPU:141,24  16034
E7CC  E0 AA     CPX #$AA                         A:55 X:AA Y:44 P:47 S:FB PPU:141,30  16036
E7CE  D0 06     BNE $E7D6                        A:55 X:AA Y:44 P:47 S:FB PPU:141,36  16038
E7D0  A5 49     LDA $49 = $00                    A:55 X:AA Y:44 P:47 S:FB PPU:141,42  16040
E7D2  C9 00     CMP #$00                         A:00 X:AA Y:44 P:47 S:FB PPU:141,51  16043
E7D4  F0 04     BEQ $E7DA                        A:00 X:AA Y:44 P:47 S:FB PPU:141,57  16045
E7DA  A9 00     LDA #$00                         A:00 X:AA Y:44 P:47 S:FB PPU:141,66  16048
E7DC  85 56     STA $56 = $00                    A:00 X:AA Y:44 P:47 S:FB PPU:141,72  16050
E7DE  A0 58     LDY #$58                         A:00 X:AA Y:44 P:47 S:FB PPU:141,81  16053
E7E0  A2 EF     LDX #$EF                         A:00 X:AA Y:58 P:45 S:FB PPU:141,87  16055
E7E2  A9 66     LDA #$66                         A:00 X:EF Y:58 P:C5 S:FB PPU:141,93  16057
E7E4  38        SEC                              A:66 X:EF Y:58 P:45 S:FB PPU:141,99  16059
E7E5  B8        CLV                              A:66 X:EF Y:58 P:45 S:FB PPU:141,105 16061
E7E6  87 56     SAX $56 = $00                    A:66 X:EF Y:58 P:05 S:FB PPU:141,111 16063
E7E8  EA        NOP                              A:66 X:EF Y:58 P:05 S:FB PPU:141,120 16066
E7E9  EA        NOP                              A:66 X:EF Y:58 P:05 S:FB PPU:141,126 16068
E7EA  EA        NOP                              A:66 X:EF Y:58 P:05 S:FB PPU:141,132 16070
E7EB  EA        NOP                              A:66 X:EF Y:58 P:05 S:FB PPU:141,138 16072
E7EC  F0 18     BEQ $E806                        A:66 X:EF Y:58 P:05 S:FB PPU:141,144 16074
E7EE  90 16     BCC $E806                        A:66 X:EF Y:58 P:05 S:FB PPU:141,150 16076
E7F0  70 14     BVS $E806                        A:66 X:EF Y:58 P:05 S:FB PPU:141,156 16078
E7F2  30 12     BMI $E806                        A:66 X:EF Y:58 P:05 S:FB PPU:141,162 16080
E7F4  C9 66     CMP #$66                         A:66 X:EF Y:58 P:05 S:FB PPU:141,168 16082
E7F6  D0 0E     BNE $E806                        A:66 X:EF Y:58 P:07 S:FB PPU:141,174 16084
E7F8  C0 58     CPY #$58                         A:66 X:EF Y:58 P:07 S:FB PPU:141,180 16086
E7FA  D0 0A     BNE $E806                        A:66 X:EF Y:58 P:07 S:FB PPU:141,186 16088
E7FC  E0 EF     CPX #$EF                         A:66 X:EF Y:58 P:07 S:FB PPU:141,192 16090
E7FE  D0 06     BNE $E806                        A:66 X:EF Y:58 P:07 S:FB PPU:141,198 16092
E800  A5 56     LDA $56 = $66                    A:66 X:EF Y:58 P:07 S:FB PPU:141,204 16094
E802  C9 66     CMP #$66                         A:66 X:EF Y:58 P:05 S:FB PPU:141,213 16097
E804  F0 04     BEQ $E80A                        A:66 X:EF Y:58 P:07 S:FB PPU:141,219 16099
E80A  A9 FF     LDA #$FF                         A:66 X:EF Y:58 P:07 S:FB PPU:141,228 16102
E80C  8D 49 05  STA $0549 = $00                  A:FF X:EF Y:58 P:85 S:FB PPU:141,234 16104
E80F  A0 E5     LDY #$E5                         A:FF X:EF Y:58 P:85 S:FB PPU:141,246 16108
E811  A2 AF     LDX #$AF                         A:FF X:EF Y:E5 P:85 S:FB PPU:141,252 16110
E813  A9 F5     LDA #$F5                         A:FF X:AF Y:E5 P:85 S:FB PPU:141,258 16112
E815  24 01     BIT $01 = $C0                    A:F5 X:AF Y:E5 P:85 S:FB PPU:141,264 16114
E817  18        CLC                              A:F5 X:AF Y:E5 P:C5 S:FB PPU:141,273 16117
E818  8F 49 05  SAX $0549 = $FF                  A:F5 X:AF Y:E5 P:C4 S:FB PPU:141,279 16119
E81B  EA        NOP                              A:F5 X:AF Y:E5 P:C4 S:FB PPU:141,291 16123
E81C  EA        NOP                              A:F5 X:AF Y:E5 P:C4 S:FB PPU:141,297 16125
E81D  EA        NOP                              A:F5 X:AF Y:E5 P:C4 S:FB PPU:141,303 16127
E81E  EA        NOP                              A:F5 X:AF Y:E5 P:C4 S:FB PPU:141,309 16129
E81F  F0 19     BEQ $E83A                        A:F5 X:AF Y:E5 P:C4 S:FB PPU:141,315 16131
E821  B0 17     BCS $E83A                        A:F5 X:AF Y:E5 P:C4 S:FB PPU:141,321 16133
E823  50 15     BVC $E83A                        A:F5 X:AF Y:E5 P:C4 S:FB PPU:141,327 16135
E825  10 13     BPL $E83A                        A:F5 X:AF Y:E5 P:C4 S:FB PPU:141,333 16137
E827  C9 F5     CMP #$F5                         A:F5 X:AF Y:E5 P:C4 S:FB PPU:141,339 16139
E829  D0 0F     BNE $E83A                        A:F5 X:AF Y:E5 P:47 S:FB PPU:142,4   16141
E82B  C0 E5     CPY #$E5                         A:F5 X:AF Y:E5 P:47 S:FB PPU:142,10  16143
E82D  D0 0B     BNE $E83A                        A:F5 X:AF Y:E5 P:47 S:FB PPU:142,16  16145
E82F  E0 AF     CPX #$AF                         A:F5 X:AF Y:E5 P:47 S:FB PPU:142,22  16147
E831  D0 07     BNE $E83A                        A:F5 X:AF Y:E5 P:47 S:FB PPU:142,28  16149
E833  AD 49 05  LDA $0549 = $A5                  A:F5 X:AF Y:E5 P:47 S:FB PPU:142,34  16151
E836  C9 A5     CMP #$A5                         A:A5 X:AF Y:E5 P:C5 S:FB PPU:142,46  16155
E838  F0 04     BEQ $E83E                        A:A5 X:AF Y:E5 P:47 S:FB PPU:142,52  16157
E83E  A9 00     LDA #$00                         A:A5 X:AF Y:E5 P:47 S:FB PPU:142,61  16160
E840  8D 56 05  STA $0556 = $00                  A:00 X:AF Y:E5 P:47 S:FB PPU:142,67  16162
E843  A0 58     LDY #$58                         A:00 X:AF Y:E5 P:47 S:FB PPU:142,79  16166
E845  A2 B3     LDX #$B3                         A:00 X:AF Y:58 P:45 S:FB PPU:142,85  16168
E847  A9 97     LDA #$97                         A:00 X:B3 Y:58 P:C5 S:FB PPU:142,91  16170
E849  38        SEC                              A:97 X:B3 Y:58 P:C5 S:FB PPU:142,97  16172
E84A  B8        CLV                              A:97 X:B3 Y:58 P:C5 S:FB PPU:142,103 16174
E84B  8F 56 05  SAX $0556 = $00                  A:97 X:B3 Y:58 P:85 S:FB PPU:142,109 16176
E84E  EA        NOP                              A:97 X:B3 Y:58 P:85 S:FB PPU:142,121 16180
E84F  EA        NOP                              A:97 X:B3 Y:58 P:85 S:FB PPU:142,127 16182
E850  EA        NOP                              A:97 X:B3 Y:58 P:85 S:FB PPU:142,133 16184
E851  EA        NOP                              A:97 X:B3 Y:58 P:85 S:FB PPU:142,139 16186
E852  F0 19     BEQ $E86D                        A:97 X:B3 Y:58 P:85 S:FB PPU:142,145 16188
E854  90 17     BCC $E86D                        A:97 X:B3 Y:58 P:85 S:FB PPU:142,151 16190
E856  70 15     BVS $E86D                        A:97 X:B3 Y:58 P:85 S:FB PPU:142,157 16192
E858  10 13     BPL $E86D                        A:97 X:B3 Y:58 P:85 S:FB PPU:142,163 16194
E85A  C9 97     CMP #$97                         A:97 X:B3 Y:58 P:85 S:FB PPU:142,169 16196
E85C  D0 0F     BNE $E86D                        A:97 X:B3 Y:58 P:07 S:FB PPU:142,175 16198
E85E  C0 58     CPY #$58                         A:97 X:B3 Y:58 P:07 S:FB PPU:142,181 16200
E860  D0 0B     BNE $E86D                        A:97 X:B3 Y:58 P:07 S:FB PPU:142,187 16202
E862  E0 B3     CPX #$B3                         A:97 X:B3 Y:58 P:07 S:FB PPU:142,193 16204
E864  D0 07     BNE $E86D                        A:97 X:B3 Y:58 P:07 S:FB PPU:142,199 16206
E866  AD 56 05  LDA $0556 = $93                  A:97 X:B3 Y:58 P:07 S:FB PPU:142,205 16208
E869  C9 93     CMP #$93                         A:93 X:B3 Y:58 P:85 S:FB PPU:142,217 16212
E86B  F0 04     BEQ $E871                        A:93 X:B3 Y:58 P:07 S:FB PPU:142,223 16214
E871  A9 FF     LDA #$FF                         A:93 X:B3 Y:58 P:07 S:FB PPU:142,232 16217
E873  85 49     STA $49 = $00                    A:FF X:B3 Y:58 P:85 S:FB PPU:142,238 16219
E875  A0 FF     LDY #$FF                         A:FF X:B3 Y:58 P:85 S:FB PPU:142,247 16222
E877  A2 AA     LDX #$AA                         A:FF X:B3 Y:FF P:85 S:FB PPU:142,253 16224
E879  A9 55     LDA #$55                         A:FF X:AA Y:FF P:85 S:FB PPU:142,259 16226
E87B  24 01     BIT $01 = $C0                    A:55 X:AA Y:FF P:05 S:FB PPU:142,265 16228
E87D  18        CLC                              A:55 X:AA Y:FF P:C5 S:FB PPU:142,274 16231
E87E  97 4A     SAX $4A,Y = $FF                  A:55 X:AA Y:FF P:C4 S:FB PPU:142,280 16233
E880  EA        NOP                              A:55 X:AA Y:FF P:C4 S:FB PPU:142,292 16237
E881  EA        NOP                              A:55 X:AA Y:FF P:C4 S:FB PPU:142,298 16239
E882  EA        NOP                              A:55 X:AA Y:FF P:C4 S:FB PPU:142,304 16241
E883  EA        NOP                              A:55 X:AA Y:FF P:C4 S:FB PPU:142,310 16243
E884  F0 18     BEQ $E89E                        A:55 X:AA Y:FF P:C4 S:FB PPU:142,316 16245
E886  B0 16     BCS $E89E                        A:55 X:AA Y:FF P:C4 S:FB PPU:142,322 16247
E888  50 14     BVC $E89E                        A:55 X:AA Y:FF P:C4 S:FB PPU:142,328 16249
E88A  10 12     BPL $E89E                        A:55 X:AA Y:FF P:C4 S:FB PPU:142,334 16251
E88C  C9 55     CMP #$55                         A:55 X:AA Y:FF P:C4 S:FB PPU:142,340 16253
E88E  D0 0E     BNE $E89E                        A:55 X:AA Y:FF P:47 S:FB PPU:143,5   16255
E890  C0 FF     CPY #$FF                         A:55 X:AA Y:FF P:47 S:FB PPU:143,11  16257
E892  D0 0A     BNE $E89E                        A:55 X:AA Y:FF P:47 S:FB PPU:143,17  16259
E894  E0 AA     CPX #$AA                         A:55 X:AA Y:FF P:47 S:FB PPU:143,23  16261
E896  D0 06     BNE $E89E                        A:55 X:AA Y:FF P:47 S:FB PPU:143,29  16263
E898  A5 49     LDA $49 = $00                    A:55 X:AA Y:FF P:47 S:FB PPU:143,35  16265
E89A  C9 00     CMP #$00                         A:00 X:AA Y:FF P:47 S:FB PPU:143,44  16268
E89C  F0 04     BEQ $E8A2                        A:00 X:AA Y:FF P:47 S:FB PPU:143,50  16270
E8A2  A9 00     LDA #$00                         A:00 X:AA Y:FF P:47 S:FB PPU:143,59  16273
E8A4  85 56     STA $56 = $66                    A:00 X:AA Y:FF P:47 S:FB PPU:143,65  16275
E8A6  A0 06     LDY #$06                         A:00 X:AA Y:FF P:47 S:FB PPU:143,74  16278
E8A8  A2 EF     LDX #$EF                         A:00 X:AA Y:06 P:45 S:FB PPU:143,80  16280
E8AA  A9 66     LDA #$66                         A:00 X:EF Y:06 P:C5 S:FB PPU:143,86  16282
E8AC  38        SEC                              A:66 X:EF Y:06 P:45 S:FB PPU:143,92  16284
E8AD  B8        CLV                              A:66 X:EF Y:06 P:45 S:FB PPU:143,98  16286
E8AE  97 50     SAX $50,Y = $00                  A:66 X:EF Y:06 P:05 S:FB PPU:143,104 16288
E8B0  EA        NOP                              A:66 X:EF Y:06 P:05 S:FB PPU:143,116 16292
E8B1  EA        NOP                              A:66 X:EF Y:06 P:05 S:FB PPU:143,122 16294
E8B2  EA        NOP                              A:66 X:EF Y:06 P:05 S:FB PPU:143,128 16296
E8B3  EA        NOP                              A:66 X:EF Y:06 P:05 S:FB PPU:143,134 16298
E8B4  F0 18     BEQ $E8CE                        A:66 X:EF Y:06 P:05 S:FB PPU:143,140 16300
E8B6  90 16     BCC $E8CE                        A:66 X:EF Y:06 P:05 S:FB PPU:143,146 16302
E8B8  70 14     BVS $E8CE                        A:66 X:EF Y:06 P:05 S:FB PPU:143,152 16304
E8BA  30 12     BMI $E8CE                        A:66 X:EF Y:06 P:05 S:FB PPU:143,158 16306
E8BC  C9 66     CMP #$66                         A:66 X:EF Y:06 P:05 S:FB PPU:143,164 16308
E8BE  D0 0E     BNE $E8CE                        A:66 X:EF Y:06 P:07 S:FB PPU:143,170 16310
E8C0  C0 06     CPY #$06                         A:66 X:EF Y:06 P:07 S:FB PPU:143,176 16312
E8C2  D0 0A     BNE $E8CE                        A:66 X:EF Y:06 P:07 S:FB PPU:143,182 16314
E8C4  E0 EF     CPX #$EF                         A:66 X:EF Y:06 P:07 S:FB PPU:143,188 16316
E8C6  D0 06     BNE $E8CE                        A:66 X:EF Y:06 P:07 S:FB PPU:143,194 16318
E8C8  A5 56     LDA $56 = $66                    A:66 X:EF Y:06 P:07 S:FB PPU:143,200 16320
E8CA  C9 66     CMP #$66                         A:66 X:EF Y:06 P:05 S:FB PPU:143,209 16323
E8CC  F0 04     BEQ $E8D2                        A:66 X:EF Y:06 P:07 S:FB PPU:143,215 16325
E8D2  60        RTS                              A:66 X:EF Y:06 P:07 S:FB PPU:143,224 16328
C638  20 D3 E8  JSR $E8D3                        A:66 X:EF Y:06 P:07 S:FD PPU:143,242 16334
E8D3  A0 90     LDY #$90                         A:66 X:EF Y:06 P:07 S:FB PPU:143,260 16340
E8D5  20 31 F9  JSR $F931                        A:66 X:EF Y:90 P:85 S:FB PPU:143,266 16342
F931  24 01     BIT $01 = $C0                    A:66 X:EF Y:90 P:85 S:F9 PPU:143,284 16348
F933  A9 40     LDA #$40                         A:66 X:EF Y:90 P:C5 S:F9 PPU:143,293 16351
F935  38        SEC                              A:40 X:EF Y:90 P:45 S:F9 PPU:143,299 16353
F936  60        RTS                              A:40 X:EF Y:90 P:45 S:F9 PPU:143,305 16355
E8D8  EB 40     SBC #$40                         A:40 X:EF Y:90 P:45 S:FB PPU:143,323 16361
E8DA  EA        NOP                              A:00 X:EF Y:90 P:07 S:FB PPU:143,329 16363
E8DB  EA        NOP                              A:00 X:EF Y:90 P:07 S:FB PPU:143,335 16365
E8DC  EA        NOP                              A:00 X:EF Y:90 P:07 S:FB PPU:144,0   16367
E8DD  EA        NOP                              A:00 X:EF Y:90 P:07 S:FB PPU:144,6   16369
E8DE  20 37 F9  JSR $F937                        A:00 X:EF Y:90 P:07 S:FB PPU:144,12  16371
F937  30 0B     BMI $F944                        A:00 X:EF Y:90 P:07 S:F9 PPU:144,30  16377
F939  90 09     BCC $F944                        A:00 X:EF Y:90 P:07 S:F9 PPU:144,36  16379
F93B  D0 07     BNE $F944                        A:00 X:EF Y:90 P:07 S:F9 PPU:144,42  16381
F93D  70 05     BVS $F944                        A:00 X:EF Y:90 P:07 S:F9 PPU:144,48  16383
F93F  C9 00     CMP #$00                         A:00 X:EF Y:90 P:07 S:F9 PPU:144,54  16385
F941  D0 01     BNE $F944                        A:00 X:EF Y:90 P:07 S:F9 PPU:144,60  16387
F943  60        RTS                              A:00 X:EF Y:90 P:07 S:F9 PPU:144,66  16389
E8E1  C8        INY                              A:00 X:EF Y:90 P:07 S:FB PPU:144,84  16395
E8E2  20 47 F9  JSR $F947                        A:00 X:EF Y:91 P:85 S:FB PPU:144,90  16397
F947  B8        CLV                              A:00 X:EF Y:91 P:85 S:F9 PPU:144,108 16403
F948  38        SEC                              A:00 X:EF Y:91 P:85 S:F9 PPU:144,114 16405
F949  A9 40     LDA #$40                         A:00 X:EF Y:91 P:85 S:F9 PPU:144,120 16407
F94B  60        RTS                              A:40 X:EF Y:91 P:05 S:F9 PPU:144,126 16409
E8E5  EB 3F     SBC #$3F                         A:40 X:EF Y:91 P:05 S:FB PPU:144,144 16415
E8E7  EA        NOP                              A:01 X:EF Y:91 P:05 S:FB PPU:144,150 16417
E8E8  EA        NOP                              A:01 X:EF Y:91 P:05 S:FB PPU:144,156 16419
E8E9  EA        NOP                              A:01 X:EF Y:91 P:05 S:FB PPU:144,162 16421
E8EA  EA        NOP                              A:01 X:EF Y:91 P:05 S:FB PPU:144,168 16423
E8EB  20 4C F9  JSR $F94C                        A:01 X:EF Y:91 P:05 S:FB PPU:144,174 16425
F94C  F0 0B     BEQ $F959                        A:01 X:EF Y:91 P:05 S:F9 PPU:144,192 16431
F94E  30 09     BMI $F959                        A:01 X:EF Y:91 P:05 S:F9 PPU:144,198 16433
F950  90 07     BCC $F959                        A:01 X:EF Y:91 P:05 S:F9 PPU:144,204 16435
F952  70 05     BVS $F959                        A:01 X:EF Y:91 P:05 S:F9 PPU:144,210 16437
F954  C9 01     CMP #$01                         A:01 X:EF Y:91 P:05 S:F9 PPU:144,216 16439
F956  D0 01     BNE $F959                        A:01 X:EF Y:91 P:07 S:F9 PPU:144,222 16441
F958  60        RTS                              A:01 X:EF Y:91 P:07 S:F9 PPU:144,228 16443
E8EE  C8        INY                              A:01 X:EF Y:91 P:07 S:FB PPU:144,246 16449
E8EF  20 5C F9  JSR $F95C                        A:01 X:EF Y:92 P:85 S:FB PPU:144,252 16451
F95C  A9 40     LDA #$40                         A:01 X:EF Y:92 P:85 S:F9 PPU:144,270 16457
F95E  38        SEC                              A:40 X:EF Y:92 P:05 S:F9 PPU:144,276 16459
F95F  24 01     BIT $01 = $C0                    A:40 X:EF Y:92 P:05 S:F9 PPU:144,282 16461
F961  60        RTS                              A:40 X:EF Y:92 P:C5 S:F9 PPU:144,291 16464
E8F2  EB 41     SBC #$41                         A:40 X:EF Y:92 P:C5 S:FB PPU:144,309 16470
E8F4  EA        NOP                              A:FF X:EF Y:92 P:84 S:FB PPU:144,315 16472
E8F5  EA        NOP                              A:FF X:EF Y:92 P:84 S:FB PPU:144,321 16474
E8F6  EA        NOP                              A:FF X:EF Y:92 P:84 S:FB PPU:144,327 16476
E8F7  EA        NOP                              A:FF X:EF Y:92 P:84 S:FB PPU:144,333 16478
E8F8  20 62 F9  JSR $F962                        A:FF X:EF Y:92 P:84 S:FB PPU:144,339 16480
F962  B0 0B     BCS $F96F                        A:FF X:EF Y:92 P:84 S:F9 PPU:145,16  16486
F964  F0 09     BEQ $F96F                        A:FF X:EF Y:92 P:84 S:F9 PPU:145,22  16488
F966  10 07     BPL $F96F                        A:FF X:EF Y:92 P:84 S:F9 PPU:145,28  16490
F968  70 05     BVS $F96F                        A:FF X:EF Y:92 P:84 S:F9 PPU:145,34  16492
F96A  C9 FF     CMP #$FF                         A:FF X:EF Y:92 P:84 S:F9 PPU:145,40  16494
F96C  D0 01     BNE $F96F                        A:FF X:EF Y:92 P:07 S:F9 PPU:145,46  16496
F96E  60        RTS                              A:FF X:EF Y:92 P:07 S:F9 PPU:145,52  16498
E8FB  C8        INY                              A:FF X:EF Y:92 P:07 S:FB PPU:145,70  16504
E8FC  20 72 F9  JSR $F972                        A:FF X:EF Y:93 P:85 S:FB PPU:145,76  16506
F972  18        CLC                              A:FF X:EF Y:93 P:85 S:F9 PPU:145,94  16512
F973  A9 80     LDA #$80                         A:FF X:EF Y:93 P:84 S:F9 PPU:145,100 16514
F975  60        RTS                              A:80 X:EF Y:93 P:84 S:F9 PPU:145,106 16516
E8FF  EB 00     SBC #$00                         A:80 X:EF Y:93 P:84 S:FB PPU:145,124 16522
E901  EA        NOP                              A:7F X:EF Y:93 P:45 S:FB PPU:145,130 16524
E902  EA        NOP                              A:7F X:EF Y:93 P:45 S:FB PPU:145,136 16526
E903  EA        NOP                              A:7F X:EF Y:93 P:45 S:FB PPU:145,142 16528
E904  EA        NOP                              A:7F X:EF Y:93 P:45 S:FB PPU:145,148 16530
E905  20 76 F9  JSR $F976                        A:7F X:EF Y:93 P:45 S:FB PPU:145,154 16532
F976  90 05     BCC $F97D                        A:7F X:EF Y:93 P:45 S:F9 PPU:145,172 16538
F978  C9 7F     CMP #$7F                         A:7F X:EF Y:93 P:45 S:F9 PPU:145,178 16540
F97A  D0 01     BNE $F97D                        A:7F X:EF Y:93 P:47 S:F9 PPU:145,184 16542
F97C  60        RTS                              A:7F X:EF Y:93 P:47 S:F9 PPU:145,190 16544
E908  C8        INY                              A:7F X:EF Y:93 P:47 S:FB PPU:145,208 16550
E909  20 80 F9  JSR $F980                        A:7F X:EF Y:94 P:C5 S:FB PPU:145,214 16552
F980  38        SEC                              A:7F X:EF Y:94 P:C5 S:F9 PPU:145,232 16558
F981  A9 81     LDA #$81                         A:7F X:EF Y:94 P:C5 S:F9 PPU:145,238 16560
F983  60        RTS                              A:81 X:EF Y:94 P:C5 S:F9 PPU:145,244 16562
E90C  EB 7F     SBC #$7F                         A:81 X:EF Y:94 P:C5 S:FB PPU:145,262 16568
E90E  EA        NOP                              A:02 X:EF Y:94 P:45 S:FB PPU:145,268 16570
E90F  EA        NOP                              A:02 X:EF Y:94 P:45 S:FB PPU:145,274 16572
E910  EA        NOP                              A:02 X:EF Y:94 P:45 S:FB PPU:145,280 16574
E911  EA        NOP                              A:02 X:EF Y:94 P:45 S:FB PPU:145,286 16576
E912  20 84 F9  JSR $F984                        A:02 X:EF Y:94 P:45 S:FB PPU:145,292 16578
F984  50 07     BVC $F98D                        A:02 X:EF Y:94 P:45 S:F9 PPU:145,310 16584
F986  90 05     BCC $F98D                        A:02 X:EF Y:94 P:45 S:F9 PPU:145,316 16586
F988  C9 02     CMP #$02                         A:02 X:EF Y:94 P:45 S:F9 PPU:145,322 16588
F98A  D0 01     BNE $F98D                        A:02 X:EF Y:94 P:47 S:F9 PPU:145,328 16590
F98C  60        RTS                              A:02 X:EF Y:94 P:47 S:F9 PPU:145,334 16592
E915  60        RTS                              A:02 X:EF Y:94 P:47 S:FB PPU:146,11  16598
C63B  20 16 E9  JSR $E916                        A:02 X:EF Y:94 P:47 S:FD PPU:146,29  16604
E916  A9 FF     LDA #$FF                         A:02 X:EF Y:94 P:47 S:FB PPU:146,47  16610
E918  85 01     STA $01 = $C0                    A:FF X:EF Y:94 P:C5 S:FB PPU:146,53  16612
E91A  A0 95     LDY #$95                         A:FF X:EF Y:94 P:C5 S:FB PPU:146,62  16615
E91C  A2 02     LDX #$02                         A:FF X:EF Y:95 P:C5 S:FB PPU:146,68  16617
E91E  A9 47     LDA #$47                         A:FF X:02 Y:95 P:45 S:FB PPU:146,74  16619
E920  85 47     STA $47 = $00                    A:47 X:02 Y:95 P:45 S:FB PPU:146,80  16621
E922  A9 06     LDA #$06                         A:47 X:02 Y:95 P:45 S:FB PPU:146,89  16624
E924  85 48     STA $48 = $00                    A:06 X:02 Y:95 P:45 S:FB PPU:146,95  16626
E926  A9 EB     LDA #$EB                         A:06 X:02 Y:95 P:45 S:FB PPU:146,104 16629
E928  8D 47 06  STA $0647 = $00                  A:EB X:02 Y:95 P:C5 S:FB PPU:146,110 16631
E92B  20 31 FA  JSR $FA31                        A:EB X:02 Y:95 P:C5 S:FB PPU:146,122 16635
FA31  24 01     BIT $01 = $FF                    A:EB X:02 Y:95 P:C5 S:F9 PPU:146,140 16641
FA33  18        CLC                              A:EB X:02 Y:95 P:C5 S:F9 PPU:146,149 16644
FA34  A9 40     LDA #$40                         A:EB X:02 Y:95 P:C4 S:F9 PPU:146,155 16646
FA36  60        RTS                              A:40 X:02 Y:95 P:44 S:F9 PPU:146,161 16648
E92E  C3 45     DCP ($45,X) = $EB                A:40 X:02 Y:95 P:44 S:FB PPU:146,179 16654
E930  EA        NOP                              A:40 X:02 Y:95 P:44 S:FB PPU:146,203 16662
E931  EA        NOP                              A:40 X:02 Y:95 P:44 S:FB PPU:146,209 16664
E932  EA        NOP                              A:40 X:02 Y:95 P:44 S:FB PPU:146,215 16666
E933  EA        NOP                              A:40 X:02 Y:95 P:44 S:FB PPU:146,221 16668
E934  20 37 FA  JSR $FA37                        A:40 X:02 Y:95 P:44 S:FB PPU:146,227 16670
FA37  50 2C     BVC $FA65                        A:40 X:02 Y:95 P:44 S:F9 PPU:146,245 16676
FA39  B0 2A     BCS $FA65                        A:40 X:02 Y:95 P:44 S:F9 PPU:146,251 16678
FA3B  30 28     BMI $FA65                        A:40 X:02 Y:95 P:44 S:F9 PPU:146,257 16680
FA3D  C9 40     CMP #$40                         A:40 X:02 Y:95 P:44 S:F9 PPU:146,263 16682
FA3F  D0 24     BNE $FA65                        A:40 X:02 Y:95 P:47 S:F9 PPU:146,269 16684
FA41  60        RTS                              A:40 X:02 Y:95 P:47 S:F9 PPU:146,275 16686
E937  AD 47 06  LDA $0647 = $EA                  A:40 X:02 Y:95 P:47 S:FB PPU:146,293 16692
E93A  C9 EA     CMP #$EA                         A:EA X:02 Y:95 P:C5 S:FB PPU:146,305 16696
E93C  F0 02     BEQ $E940                        A:EA X:02 Y:95 P:47 S:FB PPU:146,311 16698
E940  C8        INY                              A:EA X:02 Y:95 P:47 S:FB PPU:146,320 16701
E941  A9 00     LDA #$00                         A:EA X:02 Y:96 P:C5 S:FB PPU:146,326 16703
E943  8D 47 06  STA $0647 = $EA                  A:00 X:02 Y:96 P:47 S:FB PPU:146,332 16705
E946  20 42 FA  JSR $FA42                        A:00 X:02 Y:96 P:47 S:FB PPU:147,3   16709
FA42  B8        CLV                              A:00 X:02 Y:96 P:47 S:F9 PPU:147,21  16715
FA43  38        SEC                              A:00 X:02 Y:96 P:07 S:F9 PPU:147,27  16717
FA44  A9 FF     LDA #$FF                         A:00 X:02 Y:96 P:07 S:F9 PPU:147,33  16719
FA46  60        RTS                              A:FF X:02 Y:96 P:85 S:F9 PPU:147,39  16721
E949  C3 45     DCP ($45,X) = $00                A:FF X:02 Y:96 P:85 S:FB PPU:147,57  16727
E94B  EA        NOP                              A:FF X:02 Y:96 P:07 S:FB PPU:147,81  16735
E94C  EA        NOP                              A:FF X:02 Y:96 P:07 S:FB PPU:147,87  16737
E94D  EA        NOP                              A:FF X:02 Y:96 P:07 S:FB PPU:147,93  16739
E94E  EA        NOP                              A:FF X:02 Y:96 P:07 S:FB PPU:147,99  16741
E94F  20 47 FA  JSR $FA47                        A:FF X:02 Y:96 P:07 S:FB PPU:147,105 16743
FA47  70 1C     BVS $FA65                        A:FF X:02 Y:96 P:07 S:F9 PPU:147,123 16749
FA49  D0 1A     BNE $FA65                        A:FF X:02 Y:96 P:07 S:F9 PPU:147,129 16751
FA4B  30 18     BMI $FA65                        A:FF X:02 Y:96 P:07 S:F9 PPU:147,135 16753
FA4D  90 16     BCC $FA65                        A:FF X:02 Y:96 P:07 S:F9 PPU:147,141 16755
FA4F  C9 FF     CMP #$FF                         A:FF X:02 Y:96 P:07 S:F9 PPU:147,147 16757
FA51  D0 12     BNE $FA65                        A:FF X:02 Y:96 P:07 S:F9 PPU:147,153 16759
FA53  60        RTS                              A:FF X:02 Y:96 P:07 S:F9 PPU:147,159 16761
E952  AD 47 06  LDA $0647 = $FF                  A:FF X:02 Y:96 P:07 S:FB PPU:147,177 16767
E955  C9 FF     CMP #$FF                         A:FF X:02 Y:96 P:85 S:FB PPU:147,189 16771
E957  F0 02     BEQ $E95B                        A:FF X:02 Y:96 P:07 S:FB PPU:147,195 16773
E95B  C8        INY                              A:FF X:02 Y:96 P:07 S:FB PPU:147,204 16776
E95C  A9 37     LDA #$37                         A:FF X:02 Y:97 P:85 S:FB PPU:147,210 16778
E95E  8D 47 06  STA $0647 = $FF                  A:37 X:02 Y:97 P:05 S:FB PPU:147,216 16780
E961  20 54 FA  JSR $FA54                        A:37 X:02 Y:97 P:05 S:FB PPU:147,228 16784
FA54  24 01     BIT $01 = $FF                    A:37 X:02 Y:97 P:05 S:F9 PPU:147,246 16790
FA56  A9 F0     LDA #$F0                         A:37 X:02 Y:97 P:C5 S:F9 PPU:147,255 16793
FA58  60        RTS                              A:F0 X:02 Y:97 P:C5 S:F9 PPU:147,261 16795
E964  C3 45     DCP ($45,X) = $37                A:F0 X:02 Y:97 P:C5 S:FB PPU:147,279 16801
E966  EA        NOP                              A:F0 X:02 Y:97 P:C5 S:FB PPU:147,303 16809
E967  EA        NOP                              A:F0 X:02 Y:97 P:C5 S:FB PPU:147,309 16811
E968  EA        NOP                              A:F0 X:02 Y:97 P:C5 S:FB PPU:147,315 16813
E969  EA        NOP                              A:F0 X:02 Y:97 P:C5 S:FB PPU:147,321 16815
E96A  20 59 FA  JSR $FA59                        A:F0 X:02 Y:97 P:C5 S:FB PPU:147,327 16817
FA59  50 0A     BVC $FA65                        A:F0 X:02 Y:97 P:C5 S:F9 PPU:148,4   16823
FA5B  F0 08     BEQ $FA65                        A:F0 X:02 Y:97 P:C5 S:F9 PPU:148,10  16825
FA5D  10 06     BPL $FA65                        A:F0 X:02 Y:97 P:C5 S:F9 PPU:148,16  16827
FA5F  90 04     BCC $FA65                        A:F0 X:02 Y:97 P:C5 S:F9 PPU:148,22  16829
FA61  C9 F0     CMP #$F0                         A:F0 X:02 Y:97 P:C5 S:F9 PPU:148,28  16831
FA63  F0 02     BEQ $FA67                        A:F0 X:02 Y:97 P:47 S:F9 PPU:148,34  16833
FA67  60        RTS                              A:F0 X:02 Y:97 P:47 S:F9 PPU:148,43  16836
E96D  AD 47 06  LDA $0647 = $36                  A:F0 X:02 Y:97 P:47 S:FB PPU:148,61  16842
E970  C9 36     CMP #$36                         A:36 X:02 Y:97 P:45 S:FB PPU:148,73  16846
E972  F0 02     BEQ $E976                        A:36 X:02 Y:97 P:47 S:FB PPU:148,79  16848
E976  C8        INY                              A:36 X:02 Y:97 P:47 S:FB PPU:148,88  16851
E977  A9 EB     LDA #$EB                         A:36 X:02 Y:98 P:C5 S:FB PPU:148,94  16853
E979  85 47     STA $47 = $47                    A:EB X:02 Y:98 P:C5 S:FB PPU:148,100 16855
E97B  20 31 FA  JSR $FA31                        A:EB X:02 Y:98 P:C5 S:FB PPU:148,109 16858
FA31  24 01     BIT $01 = $FF                    A:EB X:02 Y:98 P:C5 S:F9 PPU:148,127 16864
FA33  18        CLC                              A:EB X:02 Y:98 P:C5 S:F9 PPU:148,136 16867
FA34  A9 40     LDA #$40                         A:EB X:02 Y:98 P:C4 S:F9 PPU:148,142 16869
FA36  60        RTS                              A:40 X:02 Y:98 P:44 S:F9 PPU:148,148 16871
E97E  C7 47     DCP $47 = $EB                    A:40 X:02 Y:98 P:44 S:FB PPU:148,166 16877
E980  EA        NOP                              A:40 X:02 Y:98 P:44 S:FB PPU:148,181 16882
E981  EA        NOP                              A:40 X:02 Y:98 P:44 S:FB PPU:148,187 16884
E982  EA        NOP                              A:40 X:02 Y:98 P:44 S:FB PPU:148,193 16886
E983  EA        NOP                              A:40 X:02 Y:98 P:44 S:FB PPU:148,199 16888
E984  20 37 FA  JSR $FA37                        A:40 X:02 Y:98 P:44 S:FB PPU:148,205 16890
FA37  50 2C     BVC $FA65                        A:40 X:02 Y:98 P:44 S:F9 PPU:148,223 16896
FA39  B0 2A     BCS $FA65                        A:40 X:02 Y:98 P:44 S:F9 PPU:148,229 16898
FA3B  30 28     BMI $FA65                        A:40 X:02 Y:98 P:44 S:F9 PPU:148,235 16900
FA3D  C9 40     CMP #$40                         A:40 X:02 Y:98 P:44 S:F9 PPU:148,241 16902
FA3F  D0 24     BNE $FA65                        A:40 X:02 Y:98 P:47 S:F9 PPU:148,247 16904
FA41  60        RTS                              A:40 X:02 Y:98 P:47 S:F9 PPU:148,253 16906
E987  A5 47     LDA $47 = $EA                    A:40 X:02 Y:98 P:47 S:FB PPU:148,271 16912
E989  C9 EA     CMP #$EA                         A:EA X:02 Y:98 P:C5 S:FB PPU:148,280 16915
E98B  F0 02     BEQ $E98F                        A:EA X:02 Y:98 P:47 S:FB PPU:148,286 16917
E98F  C8        INY                              A:EA X:02 Y:98 P:47 S:FB PPU:148,295 16920
E990  A9 00     LDA #$00                         A:EA X:02 Y:99 P:C5 S:FB PPU:148,301 16922
E992  85 47     STA $47 = $EA                    A:00 X:02 Y:99 P:47 S:FB PPU:148,307 16924
E994  20 42 FA  JSR $FA42                        A:00 X:02 Y:99 P:47 S:FB PPU:148,316 16927
FA42  B8        CLV                              A:00 X:02 Y:99 P:47 S:F9 PPU:148,334 16933
FA43  38        SEC                              A:00 X:02 Y:99 P:07 S:F9 PPU:148,340 16935
FA44  A9 FF     LDA #$FF                         A:00 X:02 Y:99 P:07 S:F9 PPU:149,5   16937
FA46  60        RTS                              A:FF X:02 Y:99 P:85 S:F9 PPU:149,11  16939
E997  C7 47     DCP $47 = $00                    A:FF X:02 Y:99 P:85 S:FB PPU:149,29  16945
E999  EA        NOP                              A:FF X:02 Y:99 P:07 S:FB PPU:149,44  16950
E99A  EA        NOP                              A:FF X:02 Y:99 P:07 S:FB PPU:149,50  16952
E99B  EA        NOP                              A:FF X:02 Y:99 P:07 S:FB PPU:149,56  16954
E99C  EA        NOP                              A:FF X:02 Y:99 P:07 S:FB PPU:149,62  16956
E99D  20 47 FA  JSR $FA47                        A:FF X:02 Y:99 P:07 S:FB PPU:149,68  16958
FA47  70 1C     BVS $FA65                        A:FF X:02 Y:99 P:07 S:F9 PPU:149,86  16964
FA49  D0 1A     BNE $FA65                        A:FF X:02 Y:99 P:07 S:F9 PPU:149,92  16966
FA4B  30 18     BMI $FA65                        A:FF X:02 Y:99 P:07 S:F9 PPU:149,98  16968
FA4D  90 16     BCC $FA65                        A:FF X:02 Y:99 P:07 S:F9 PPU:149,104 16970
FA4F  C9 FF     CMP #$FF                         A:FF X:02 Y:99 P:07 S:F9 PPU:149,110 16972
FA51  D0 12     BNE $FA65                        A:FF X:02 Y:99 P:07 S:F9 PPU:149,116 16974
FA53  60        RTS                              A:FF X:02 Y:99 P:07 S:F9 PPU:149,122 16976
E9A0  A5 47     LDA $47 = $FF                    A:FF X:02 Y:99 P:07 S:FB PPU:149,140 16982
E9A2  C9 FF     CMP #$FF                         A:FF X:02 Y:99 P:85 S:FB PPU:149,149 16985
E9A4  F0 02     BEQ $E9A8                        A:FF X:02 Y:99 P:07 S:FB PPU:149,155 16987
E9A8  C8        INY                              A:FF X:02 Y:99 P:07 S:FB PPU:149,164 16990
E9A9  A9 37     LDA #$37                         A:FF X:02 Y:9A P:85 S:FB PPU:149,170 16992
E9AB  85 47     STA $47 = $FF                    A:37 X:02 Y:9A P:05 S:FB PPU:149,176 16994
E9AD  20 54 FA  JSR $FA54                        A:37 X:02 Y:9A P:05 S:FB PPU:149,185 16997
FA54  24 01     BIT $01 = $FF                    A:37 X:02 Y:9A P:05 S:F9 PPU:149,203 17003
FA56  A9 F0     LDA #$F0                         A:37 X:02 Y:9A P:C5 S:F9 PPU:149,212 17006
FA58  60        RTS                              A:F0 X:02 Y:9A P:C5 S:F9 PPU:149,218 17008
E9B0  C7 47     DCP $47 = $37                    A:F0 X:02 Y:9A P:C5 S:FB PPU:149,236 17014
E9B2  EA        NOP                              A:F0 X:02 Y:9A P:C5 S:FB PPU:149,251 17019
E9B3  EA        NOP                              A:F0 X:02 Y:9A P:C5 S:FB PPU:149,257 17021
E9B4  EA        NOP                              A:F0 X:02 Y:9A P:C5 S:FB PPU:149,263 17023
E9B5  EA        NOP                              A:F0 X:02 Y:9A P:C5 S:FB PPU:149,269 17025
E9B6  20 59 FA  JSR $FA59                        A:F0 X:02 Y:9A P:C5 S:FB PPU:149,275 17027
FA59  50 0A     BVC $FA65                        A:F0 X:02 Y:9A P:C5 S:F9 PPU:149,293 17033
FA5B  F0 08     BEQ $FA65                        A:F0 X:02 Y:9A P:C5 S:F9 PPU:149,299 17035
FA5D  10 06     BPL $FA65                        A:F0 X:02 Y:9A P:C5 S:F9 PPU:149,305 17037
FA5F  90 04     BCC $FA65                        A:F0 X:02 Y:9A P:C5 S:F9 PPU:149,311 17039
FA61  C9 F0     CMP #$F0                         A:F0 X:02 Y:9A P:C5 S:F9 PPU:149,317 17041
FA63  F0 02     BEQ $FA67                        A:F0 X:02 Y:9A P:47 S:F9 PPU:149,323 17043
FA67  60        RTS                              A:F0 X:02 Y:9A P:47 S:F9 PPU:149,332 17046
E9B9  A5 47     LDA $47 = $36                    A:F0 X:02 Y:9A P:47 S:FB PPU:150,9   17052
E9BB  C9 36     CMP #$36                         A:36 X:02 Y:9A P:45 S:FB PPU:150,18  17055
E9BD  F0 02     BEQ $E9C1                        A:36 X:02 Y:9A P:47 S:FB PPU:150,24  17057
E9C1  C8        INY                              A:36 X:02 Y:9A P:47 S:FB PPU:150,33  17060
E9C2  A9 EB     LDA #$EB                         A:36 X:02 Y:9B P:C5 S:FB PPU:150,39  17062
E9C4  8D 47 06  STA $0647 = $36                  A:EB X:02 Y:9B P:C5 S:FB PPU:150,45  17064
E9C7  20 31 FA  JSR $FA31                        A:EB X:02 Y:9B P:C5 S:FB PPU:150,57  17068
FA31  24 01     BIT $01 = $FF                    A:EB X:02 Y:9B P:C5 S:F9 PPU:150,75  17074
FA33  18        CLC                              A:EB X:02 Y:9B P:C5 S:F9 PPU:150,84  17077
FA34  A9 40     LDA #$40                         A:EB X:02 Y:9B P:C4 S:F9 PPU:150,90  17079
FA36  60        RTS                              A:40 X:02 Y:9B P:44 S:F9 PPU:150,96  17081
E9CA  CF 47 06  DCP $0647 = $EB                  A:40 X:02 Y:9B P:44 S:FB PPU:150,114 17087
E9CD  EA        NOP                              A:40 X:02 Y:9B P:44 S:FB PPU:150,132 17093
E9CE  EA        NOP                              A:40 X:02 Y:9B P:44 S:FB PPU:150,138 17095
E9CF  EA        NOP                              A:40 X:02 Y:9B P:44 S:FB PPU:150,144 17097
E9D0  EA        NOP                              A:40 X:02 Y:9B P:44 S:FB PPU:150,150 17099
E9D1  20 37 FA  JSR $FA37                        A:40 X:02 Y:9B P:44 S:FB PPU:150,156 17101
FA37  50 2C     BVC $FA65                        A:40 X:02 Y:9B P:44 S:F9 PPU:150,174 17107
FA39  B0 2A     BCS $FA65                        A:40 X:02 Y:9B P:44 S:F9 PPU:150,180 17109
FA3B  30 28     BMI $FA65                        A:40 X:02 Y:9B P:44 S:F9 PPU:150,186 17111
FA3D  C9 40     CMP #$40                         A:40 X:02 Y:9B P:44 S:F9 PPU:150,192 17113
FA3F  D0 24     BNE $FA65                        A:40 X:02 Y:9B P:47 S:F9 PPU:150,198 17115
FA41  60        RTS                              A:40 X:02 Y:9B P:47 S:F9 PPU:150,204 17117
E9D4  AD 47 06  LDA $0647 = $EA                  A:40 X:02 Y:9B P:47 S:FB PPU:150,222 17123
E9D7  C9 EA     CMP #$EA                         A:EA X:02 Y:9B P:C5 S:FB PPU:150,234 17127
E9D9  F0 02     BEQ $E9DD                        A:EA X:02 Y:9B P:47 S:FB PPU:150,240 17129
E9DD  C8        INY                              A:EA X:02 Y:9B P:47 S:FB PPU:150,249 17132
E9DE  A9 00     LDA #$00                         A:EA X:02 Y:9C P:C5 S:FB PPU:150,255 17134
E9E0  8D 47 06  STA $0647 = $EA                  A:00 X:02 Y:9C P:47 S:FB PPU:150,261 17136
E9E3  20 42 FA  JSR $FA42                        A:00 X:02 Y:9C P:47 S:FB PPU:150,273 17140
FA42  B8        CLV                              A:00 X:02 Y:9C P:47 S:F9 PPU:150,291 17146
FA43  38        SEC                              A:00 X:02 Y:9C P:07 S:F9 PPU:150,297 17148
FA44  A9 FF     LDA #$FF                         A:00 X:02 Y:9C P:07 S:F9 PPU:150,303 17150
FA46  60        RTS                              A:FF X:02 Y:9C P:85 S:F9 PPU:150,309 17152
E9E6  CF 47 06  DCP $0647 = $00                  A:FF X:02 Y:9C P:85 S:FB PPU:150,327 17158
E9E9  EA        NOP                              A:FF X:02 Y:9C P:07 S:FB PPU:151,4   17164
E9EA  EA        NOP                              A:FF X:02 Y:9C P:07 S:FB PPU:151,10  17166
E9EB  EA        NOP                              A:FF X:02 Y:9C P:07 S:FB PPU:151,16  17168
E9EC  EA        NOP                              A:FF X:02 Y:9C P:07 S:FB PPU:151,22  17170
E9ED  20 47 FA  JSR $FA47                        A:FF X:02 Y:9C P:07 S:FB PPU:151,28  17172
FA47  70 1C     BVS $FA65                        A:FF X:02 Y:9C P:07 S:F9 PPU:151,46  17178
FA49  D0 1A     BNE $FA65                        A:FF X:02 Y:9C P:07 S:F9 PPU:151,52  17180
FA4B  30 18     BMI $FA65                        A:FF X:02 Y:9C P:07 S:F9 PPU:151,58  17182
FA4D  90 16     BCC $FA65                        A:FF X:02 Y:9C P:07 S:F9 PPU:151,64  17184
FA4F  C9 FF     CMP #$FF                         A:FF X:02 Y:9C P:07 S:F9 PPU:151,70  17186
FA51  D0 12     BNE $FA65                        A:FF X:02 Y:9C P:07 S:F9 PPU:151,76  17188
FA53  60        RTS                              A:FF X:02 Y:9C P:07 S:F9 PPU:151,82  17190
E9F0  AD 47 06  LDA $0647 = $FF                  A:FF X:02 Y:9C P:07 S:FB PPU:151,100 17196
E9F3  C9 FF     CMP #$FF                         A:FF X:02 Y:9C P:85 S:FB PPU:151,112 17200
E9F5  F0 02     BEQ $E9F9                        A:FF X:02 Y:9C P:07 S:FB PPU:151,118 17202
E9F9  C8        INY                              A:FF X:02 Y:9C P:07 S:FB PPU:151,127 17205
E9FA  A9 37     LDA #$37                         A:FF X:02 Y:9D P:85 S:FB PPU:151,133 17207
E9FC  8D 47 06  STA $0647 = $FF                  A:37 X:02 Y:9D P:05 S:FB PPU:151,139 17209
E9FF  20 54 FA  JSR $FA54                        A:37 X:02 Y:9D P:05 S:FB PPU:151,151 17213
FA54  24 01     BIT $01 = $FF                    A:37 X:02 Y:9D P:05 S:F9 PPU:151,169 17219
FA56  A9 F0     LDA #$F0                         A:37 X:02 Y:9D P:C5 S:F9 PPU:151,178 17222
FA58  60        RTS                              A:F0 X:02 Y:9D P:C5 S:F9 PPU:151,184 17224
EA02  CF 47 06  DCP $0647 = $37                  A:F0 X:02 Y:9D P:C5 S:FB PPU:151,202 17230
EA05  EA        NOP                              A:F0 X:02 Y:9D P:C5 S:FB PPU:151,220 17236
EA06  EA        NOP                              A:F0 X:02 Y:9D P:C5 S:FB PPU:151,226 17238
EA07  EA        NOP                              A:F0 X:02 Y:9D P:C5 S:FB PPU:151,232 17240
EA08  EA        NOP                              A:F0 X:02 Y:9D P:C5 S:FB PPU:151,238 17242
EA09  20 59 FA  JSR $FA59                        A:F0 X:02 Y:9D P:C5 S:FB PPU:151,244 17244
FA59  50 0A     BVC $FA65                        A:F0 X:02 Y:9D P:C5 S:F9 PPU:151,262 17250
FA5B  F0 08     BEQ $FA65                        A:F0 X:02 Y:9D P:C5 S:F9 PPU:151,268 17252
FA5D  10 06     BPL $FA65                        A:F0 X:02 Y:9D P:C5 S:F9 PPU:151,274 17254
FA5F  90 04     BCC $FA65                        A:F0 X:02 Y:9D P:C5 S:F9 PPU:151,280 17256
FA61  C9 F0     CMP #$F0                         A:F0 X:02 Y:9D P:C5 S:F9 PPU:151,286 17258
FA63  F0 02     BEQ $FA67                        A:F0 X:02 Y:9D P:47 S:F9 PPU:151,292 17260
FA67  60        RTS                              A:F0 X:02 Y:9D P:47 S:F9 PPU:151,301 17263
EA0C  AD 47 06  LDA $0647 = $36                  A:F0 X:02 Y:9D P:47 S:FB PPU:151,319 17269
EA0F  C9 36     CMP #$36                         A:36 X:02 Y:9D P:45 S:FB PPU:151,331 17273
EA11  F0 02     BEQ $EA15                        A:36 X:02 Y:9D P:47 S:FB PPU:151,337 17275
EA15  A9 EB     LDA #$EB                         A:36 X:02 Y:9D P:47 S:FB PPU:152,5   17278
EA17  8D 47 06  STA $0647 = $36                  A:EB X:02 Y:9D P:C5 S:FB PPU:152,11  17280
EA1A  A9 48     LDA #$48                         A:EB X:02 Y:9D P:C5 S:FB PPU:152,23  17284
EA1C  85 45     STA $45 = $32                    A:48 X:02 Y:9D P:45 S:FB PPU:152,29  17286
EA1E  A9 05     LDA #$05                         A:48 X:02 Y:9D P:45 S:FB PPU:152,38  17289
EA20  85 46     STA $46 = $04                    A:05 X:02 Y:9D P:45 S:FB PPU:152,44  17291
EA22  A0 FF     LDY #$FF                         A:05 X:02 Y:9D P:45 S:FB PPU:152,53  17294
EA24  20 31 FA  JSR $FA31                        A:05 X:02 Y:FF P:C5 S:FB PPU:152,59  17296
FA31  24 01     BIT $01 = $FF                    A:05 X:02 Y:FF P:C5 S:F9 PPU:152,77  17302
FA33  18        CLC                              A:05 X:02 Y:FF P:C5 S:F9 PPU:152,86  17305
FA34  A9 40     LDA #$40                         A:05 X:02 Y:FF P:C4 S:F9 PPU:152,92  17307
FA36  60        RTS                              A:40 X:02 Y:FF P:44 S:F9 PPU:152,98  17309
EA27  D3 45     DCP ($45),Y = $EB                A:40 X:02 Y:FF P:44 S:FB PPU:152,116 17315
EA29  EA        NOP                              A:40 X:02 Y:FF P:44 S:FB PPU:152,140 17323
EA2A  EA        NOP                              A:40 X:02 Y:FF P:44 S:FB PPU:152,146 17325
EA2B  08        PHP                              A:40 X:02 Y:FF P:44 S:FB PPU:152,152 17327
EA2C  48        PHA                              A:40 X:02 Y:FF P:44 S:FA PPU:152,161 17330
EA2D  A0 9E     LDY #$9E                         A:40 X:02 Y:FF P:44 S:F9 PPU:152,170 17333
EA2F  68        PLA                              A:40 X:02 Y:9E P:C4 S:F9 PPU:152,176 17335
EA30  28        PLP                              A:40 X:02 Y:9E P:44 S:FA PPU:152,188 17339
EA31  20 37 FA  JSR $FA37                        A:40 X:02 Y:9E P:44 S:FB PPU:152,200 17343
FA37  50 2C     BVC $FA65                        A:40 X:02 Y:9E P:44 S:F9 PPU:152,218 17349
FA39  B0 2A     BCS $FA65                        A:40 X:02 Y:9E P:44 S:F9 PPU:152,224 17351
FA3B  30 28     BMI $FA65                        A:40 X:02 Y:9E P:44 S:F9 PPU:152,230 17353
FA3D  C9 40     CMP #$40                         A:40 X:02 Y:9E P:44 S:F9 PPU:152,236 17355
FA3F  D0 24     BNE $FA65                        A:40 X:02 Y:9E P:47 S:F9 PPU:152,242 17357
FA41  60        RTS                              A:40 X:02 Y:9E P:47 S:F9 PPU:152,248 17359
EA34  AD 47 06  LDA $0647 = $EA                  A:40 X:02 Y:9E P:47 S:FB PPU:152,266 17365
EA37  C9 EA     CMP #$EA                         A:EA X:02 Y:9E P:C5 S:FB PPU:152,278 17369
EA39  F0 02     BEQ $EA3D                        A:EA X:02 Y:9E P:47 S:FB PPU:152,284 17371
EA3D  A0 FF     LDY #$FF                         A:EA X:02 Y:9E P:47 S:FB PPU:152,293 17374
EA3F  A9 00     LDA #$00                         A:EA X:02 Y:FF P:C5 S:FB PPU:152,299 17376
EA41  8D 47 06  STA $0647 = $EA                  A:00 X:02 Y:FF P:47 S:FB PPU:152,305 17378
EA44  20 42 FA  JSR $FA42                        A:00 X:02 Y:FF P:47 S:FB PPU:152,317 17382
FA42  B8        CLV                              A:00 X:02 Y:FF P:47 S:F9 PPU:152,335 17388
FA43  38        SEC                              A:00 X:02 Y:FF P:07 S:F9 PPU:153,0   17390
FA44  A9 FF     LDA #$FF                         A:00 X:02 Y:FF P:07 S:F9 PPU:153,6   17392
FA46  60        RTS                              A:FF X:02 Y:FF P:85 S:F9 PPU:153,12  17394
EA47  D3 45     DCP ($45),Y = $00                A:FF X:02 Y:FF P:85 S:FB PPU:153,30  17400
EA49  EA        NOP                              A:FF X:02 Y:FF P:07 S:FB PPU:153,54  17408
EA4A  EA        NOP                              A:FF X:02 Y:FF P:07 S:FB PPU:153,60  17410
EA4B  08        PHP                              A:FF X:02 Y:FF P:07 S:FB PPU:153,66  17412
EA4C  48        PHA                              A:FF X:02 Y:FF P:07 S:FA PPU:153,75  17415
EA4D  A0 9F     LDY #$9F                         A:FF X:02 Y:FF P:07 S:F9 PPU:153,84  17418
EA4F  68        PLA                              A:FF X:02 Y:9F P:85 S:F9 PPU:153,90  17420
EA50  28        PLP                              A:FF X:02 Y:9F P:85 S:FA PPU:153,102 17424
EA51  20 47 FA  JSR $FA47                        A:FF X:02 Y:9F P:07 S:FB PPU:153,114 17428
FA47  70 1C     BVS $FA65                        A:FF X:02 Y:9F P:07 S:F9 PPU:153,132 17434
FA49  D0 1A     BNE $FA65                        A:FF X:02 Y:9F P:07 S:F9 PPU:153,138 17436
FA4B  30 18     BMI $FA65                        A:FF X:02 Y:9F P:07 S:F9 PPU:153,144 17438
FA4D  90 16     BCC $FA65                        A:FF X:02 Y:9F P:07 S:F9 PPU:153,150 17440
FA4F  C9 FF     CMP #$FF                         A:FF X:02 Y:9F P:07 S:F9 PPU:153,156 17442
FA51  D0 12     BNE $FA65                        A:FF X:02 Y:9F P:07 S:F9 PPU:153,162 17444
FA53  60        RTS                              A:FF X:02 Y:9F P:07 S:F9 PPU:153,168 17446
EA54  AD 47 06  LDA $0647 = $FF                  A:FF X:02 Y:9F P:07 S:FB PPU:153,186 17452
EA57  C9 FF     CMP #$FF                         A:FF X:02 Y:9F P:85 S:FB PPU:153,198 17456
EA59  F0 02     BEQ $EA5D                        A:FF X:02 Y:9F P:07 S:FB PPU:153,204 17458
EA5D  A0 FF     LDY #$FF                         A:FF X:02 Y:9F P:07 S:FB PPU:153,213 17461
EA5F  A9 37     LDA #$37                         A:FF X:02 Y:FF P:85 S:FB PPU:153,219 17463
EA61  8D 47 06  STA $0647 = $FF                  A:37 X:02 Y:FF P:05 S:FB PPU:153,225 17465
EA64  20 54 FA  JSR $FA54                        A:37 X:02 Y:FF P:05 S:FB PPU:153,237 17469
FA54  24 01     BIT $01 = $FF                    A:37 X:02 Y:FF P:05 S:F9 PPU:153,255 17475
FA56  A9 F0     LDA #$F0                         A:37 X:02 Y:FF P:C5 S:F9 PPU:153,264 17478
FA58  60        RTS                              A:F0 X:02 Y:FF P:C5 S:F9 PPU:153,270 17480
EA67  D3 45     DCP ($45),Y = $37                A:F0 X:02 Y:FF P:C5 S:FB PPU:153,288 17486
EA69  EA        NOP                              A:F0 X:02 Y:FF P:C5 S:FB PPU:153,312 17494
EA6A  EA        NOP                              A:F0 X:02 Y:FF P:C5 S:FB PPU:153,318 17496
EA6B  08        PHP                              A:F0 X:02 Y:FF P:C5 S:FB PPU:153,324 17498
EA6C  48        PHA                              A:F0 X:02 Y:FF P:C5 S:FA PPU:153,333 17501
EA6D  A0 A0     LDY #$A0                         A:F0 X:02 Y:FF P:C5 S:F9 PPU:154,1   17504
EA6F  68        PLA                              A:F0 X:02 Y:A0 P:C5 S:F9 PPU:154,7   17506
EA70  28        PLP                              A:F0 X:02 Y:A0 P:C5 S:FA PPU:154,19  17510
EA71  20 59 FA  JSR $FA59                        A:F0 X:02 Y:A0 P:C5 S:FB PPU:154,31  17514
FA59  50 0A     BVC $FA65                        A:F0 X:02 Y:A0 P:C5 S:F9 PPU:154,49  17520
FA5B  F0 08     BEQ $FA65                        A:F0 X:02 Y:A0 P:C5 S:F9 PPU:154,55  17522
FA5D  10 06     BPL $FA65                        A:F0 X:02 Y:A0 P:C5 S:F9 PPU:154,61  17524
FA5F  90 04     BCC $FA65                        A:F0 X:02 Y:A0 P:C5 S:F9 PPU:154,67  17526
FA61  C9 F0     CMP #$F0                         A:F0 X:02 Y:A0 P:C5 S:F9 PPU:154,73  17528
FA63  F0 02     BEQ $FA67                        A:F0 X:02 Y:A0 P:47 S:F9 PPU:154,79  17530
FA67  60        RTS                              A:F0 X:02 Y:A0 P:47 S:F9 PPU:154,88  17533
EA74  AD 47 06  LDA $0647 = $36                  A:F0 X:02 Y:A0 P:47 S:FB PPU:154,106 17539
EA77  C9 36     CMP #$36                         A:36 X:02 Y:A0 P:45 S:FB PPU:154,118 17543
EA79  F0 02     BEQ $EA7D                        A:36 X:02 Y:A0 P:47 S:FB PPU:154,124 17545
EA7D  A0 A1     LDY #$A1                         A:36 X:02 Y:A0 P:47 S:FB PPU:154,133 17548
EA7F  A2 FF     LDX #$FF                         A:36 X:02 Y:A1 P:C5 S:FB PPU:154,139 17550
EA81  A9 EB     LDA #$EB                         A:36 X:FF Y:A1 P:C5 S:FB PPU:154,145 17552
EA83  85 47     STA $47 = $36                    A:EB X:FF Y:A1 P:C5 S:FB PPU:154,151 17554
EA85  20 31 FA  JSR $FA31                        A:EB X:FF Y:A1 P:C5 S:FB PPU:154,160 17557
FA31  24 01     BIT $01 = $FF                    A:EB X:FF Y:A1 P:C5 S:F9 PPU:154,178 17563
FA33  18        CLC                              A:EB X:FF Y:A1 P:C5 S:F9 PPU:154,187 17566
FA34  A9 40     LDA #$40                         A:EB X:FF Y:A1 P:C4 S:F9 PPU:154,193 17568
FA36  60        RTS                              A:40 X:FF Y:A1 P:44 S:F9 PPU:154,199 17570
EA88  D7 48     DCP $48,X = $EB                  A:40 X:FF Y:A1 P:44 S:FB PPU:154,217 17576
EA8A  EA        NOP                              A:40 X:FF Y:A1 P:44 S:FB PPU:154,235 17582
EA8B  EA        NOP                              A:40 X:FF Y:A1 P:44 S:FB PPU:154,241 17584
EA8C  EA        NOP                              A:40 X:FF Y:A1 P:44 S:FB PPU:154,247 17586
EA8D  EA        NOP                              A:40 X:FF Y:A1 P:44 S:FB PPU:154,253 17588
EA8E  20 37 FA  JSR $FA37                        A:40 X:FF Y:A1 P:44 S:FB PPU:154,259 17590
FA37  50 2C     BVC $FA65                        A:40 X:FF Y:A1 P:44 S:F9 PPU:154,277 17596
FA39  B0 2A     BCS $FA65                        A:40 X:FF Y:A1 P:44 S:F9 PPU:154,283 17598
FA3B  30 28     BMI $FA65                        A:40 X:FF Y:A1 P:44 S:F9 PPU:154,289 17600
FA3D  C9 40     CMP #$40                         A:40 X:FF Y:A1 P:44 S:F9 PPU:154,295 17602
FA3F  D0 24     BNE $FA65                        A:40 X:FF Y:A1 P:47 S:F9 PPU:154,301 17604
FA41  60        RTS                              A:40 X:FF Y:A1 P:47 S:F9 PPU:154,307 17606
EA91  A5 47     LDA $47 = $EA                    A:40 X:FF Y:A1 P:47 S:FB PPU:154,325 17612
EA93  C9 EA     CMP #$EA                         A:EA X:FF Y:A1 P:C5 S:FB PPU:154,334 17615
EA95  F0 02     BEQ $EA99                        A:EA X:FF Y:A1 P:47 S:FB PPU:154,340 17617
EA99  C8        INY                              A:EA X:FF Y:A1 P:47 S:FB PPU:155,8   17620
EA9A  A9 00     LDA #$00                         A:EA X:FF Y:A2 P:C5 S:FB PPU:155,14  17622
EA9C  85 47     STA $47 = $EA                    A:00 X:FF Y:A2 P:47 S:FB PPU:155,20  17624
EA9E  20 42 FA  JSR $FA42                        A:00 X:FF Y:A2 P:47 S:FB PPU:155,29  17627
FA42  B8        CLV                              A:00 X:FF Y:A2 P:47 S:F9 PPU:155,47  17633
FA43  38        SEC                              A:00 X:FF Y:A2 P:07 S:F9 PPU:155,53  17635
FA44  A9 FF     LDA #$FF                         A:00 X:FF Y:A2 P:07 S:F9 PPU:155,59  17637
FA46  60        RTS                              A:FF X:FF Y:A2 P:85 S:F9 PPU:155,65  17639
EAA1  D7 48     DCP $48,X = $00                  A:FF X:FF Y:A2 P:85 S:FB PPU:155,83  17645
EAA3  EA        NOP                              A:FF X:FF Y:A2 P:07 S:FB PPU:155,101 17651
EAA4  EA        NOP                              A:FF X:FF Y:A2 P:07 S:FB PPU:155,107 17653
EAA5  EA        NOP                              A:FF X:FF Y:A2 P:07 S:FB PPU:155,113 17655
EAA6  EA        NOP                              A:FF X:FF Y:A2 P:07 S:FB PPU:155,119 17657
EAA7  20 47 FA  JSR $FA47                        A:FF X:FF Y:A2 P:07 S:FB PPU:155,125 17659
FA47  70 1C     BVS $FA65                        A:FF X:FF Y:A2 P:07 S:F9 PPU:155,143 17665
FA49  D0 1A     BNE $FA65                        A:FF X:FF Y:A2 P:07 S:F9 PPU:155,149 17667
FA4B  30 18     BMI $FA65                        A:FF X:FF Y:A2 P:07 S:F9 PPU:155,155 17669
FA4D  90 16     BCC $FA65                        A:FF X:FF Y:A2 P:07 S:F9 PPU:155,161 17671
FA4F  C9 FF     CMP #$FF                         A:FF X:FF Y:A2 P:07 S:F9 PPU:155,167 17673
FA51  D0 12     BNE $FA65                        A:FF X:FF Y:A2 P:07 S:F9 PPU:155,173 17675
FA53  60        RTS                              A:FF X:FF Y:A2 P:07 S:F9 PPU:155,179 17677
EAAA  A5 47     LDA $47 = $FF                    A:FF X:FF Y:A2 P:07 S:FB PPU:155,197 17683
EAAC  C9 FF     CMP #$FF                         A:FF X:FF Y:A2 P:85 S:FB PPU:155,206 17686
EAAE  F0 02     BEQ $EAB2                        A:FF X:FF Y:A2 P:07 S:FB PPU:155,212 17688
EAB2  C8        INY                              A:FF X:FF Y:A2 P:07 S:FB PPU:155,221 17691
EAB3  A9 37     LDA #$37                         A:FF X:FF Y:A3 P:85 S:FB PPU:155,227 17693
EAB5  85 47     STA $47 = $FF                    A:37 X:FF Y:A3 P:05 S:FB PPU:155,233 17695
EAB7  20 54 FA  JSR $FA54                        A:37 X:FF Y:A3 P:05 S:FB PPU:155,242 17698
FA54  24 01     BIT $01 = $FF                    A:37 X:FF Y:A3 P:05 S:F9 PPU:155,260 17704
FA56  A9 F0     LDA #$F0                         A:37 X:FF Y:A3 P:C5 S:F9 PPU:155,269 17707
FA58  60        RTS                              A:F0 X:FF Y:A3 P:C5 S:F9 PPU:155,275 17709
EABA  D7 48     DCP $48,X = $37                  A:F0 X:FF Y:A3 P:C5 S:FB PPU:155,293 17715
EABC  EA        NOP                              A:F0 X:FF Y:A3 P:C5 S:FB PPU:155,311 17721
EABD  EA        NOP                              A:F0 X:FF Y:A3 P:C5 S:FB PPU:155,317 17723
EABE  EA        NOP                              A:F0 X:FF Y:A3 P:C5 S:FB PPU:155,323 17725
EABF  EA        NOP                              A:F0 X:FF Y:A3 P:C5 S:FB PPU:155,329 17727
EAC0  20 59 FA  JSR $FA59                        A:F0 X:FF Y:A3 P:C5 S:FB PPU:155,335 17729
FA59  50 0A     BVC $FA65                        A:F0 X:FF Y:A3 P:C5 S:F9 PPU:156,12  17735
FA5B  F0 08     BEQ $FA65                        A:F0 X:FF Y:A3 P:C5 S:F9 PPU:156,18  17737
FA5D  10 06     BPL $FA65                        A:F0 X:FF Y:A3 P:C5 S:F9 PPU:156,24  17739
FA5F  90 04     BCC $FA65                        A:F0 X:FF Y:A3 P:C5 S:F9 PPU:156,30  17741
FA61  C9 F0     CMP #$F0                         A:F0 X:FF Y:A3 P:C5 S:F9 PPU:156,36  17743
FA63  F0 02     BEQ $FA67                        A:F0 X:FF Y:A3 P:47 S:F9 PPU:156,42  17745
FA67  60        RTS                              A:F0 X:FF Y:A3 P:47 S:F9 PPU:156,51  17748
EAC3  A5 47     LDA $47 = $36                    A:F0 X:FF Y:A3 P:47 S:FB PPU:156,69  17754
EAC5  C9 36     CMP #$36                         A:36 X:FF Y:A3 P:45 S:FB PPU:156,78  17757
EAC7  F0 02     BEQ $EACB                        A:36 X:FF Y:A3 P:47 S:FB PPU:156,84  17759
EACB  A9 EB     LDA #$EB                         A:36 X:FF Y:A3 P:47 S:FB PPU:156,93  17762
EACD  8D 47 06  STA $0647 = $36                  A:EB X:FF Y:A3 P:C5 S:FB PPU:156,99  17764
EAD0  A0 FF     LDY #$FF                         A:EB X:FF Y:A3 P:C5 S:FB PPU:156,111 17768
EAD2  20 31 FA  JSR $FA31                        A:EB X:FF Y:FF P:C5 S:FB PPU:156,117 17770
FA31  24 01     BIT $01 = $FF                    A:EB X:FF Y:FF P:C5 S:F9 PPU:156,135 17776
FA33  18        CLC                              A:EB X:FF Y:FF P:C5 S:F9 PPU:156,144 17779
FA34  A9 40     LDA #$40                         A:EB X:FF Y:FF P:C4 S:F9 PPU:156,150 17781
FA36  60        RTS                              A:40 X:FF Y:FF P:44 S:F9 PPU:156,156 17783
EAD5  DB 48 05  DCP $0548,Y = $EB                A:40 X:FF Y:FF P:44 S:FB PPU:156,174 17789
EAD8  EA        NOP                              A:40 X:FF Y:FF P:44 S:FB PPU:156,195 17796
EAD9  EA        NOP                              A:40 X:FF Y:FF P:44 S:FB PPU:156,201 17798
EADA  08        PHP                              A:40 X:FF Y:FF P:44 S:FB PPU:156,207 17800
EADB  48        PHA                              A:40 X:FF Y:FF P:44 S:FA PPU:156,216 17803
EADC  A0 A4     LDY #$A4                         A:40 X:FF Y:FF P:44 S:F9 PPU:156,225 17806
EADE  68        PLA                              A:40 X:FF Y:A4 P:C4 S:F9 PPU:156,231 17808
EADF  28        PLP                              A:40 X:FF Y:A4 P:44 S:FA PPU:156,243 17812
EAE0  20 37 FA  JSR $FA37                        A:40 X:FF Y:A4 P:44 S:FB PPU:156,255 17816
FA37  50 2C     BVC $FA65                        A:40 X:FF Y:A4 P:44 S:F9 PPU:156,273 17822
FA39  B0 2A     BCS $FA65                        A:40 X:FF Y:A4 P:44 S:F9 PPU:156,279 17824
FA3B  30 28     BMI $FA65                        A:40 X:FF Y:A4 P:44 S:F9 PPU:156,285 17826
FA3D  C9 40     CMP #$40                         A:40 X:FF Y:A4 P:44 S:F9 PPU:156,291 17828
FA3F  D0 24     BNE $FA65                        A:40 X:FF Y:A4 P:47 S:F9 PPU:156,297 17830
FA41  60        RTS                              A:40 X:FF Y:A4 P:47 S:F9 PPU:156,303 17832
EAE3  AD 47 06  LDA $0647 = $EA                  A:40 X:FF Y:A4 P:47 S:FB PPU:156,321 17838
EAE6  C9 EA     CMP #$EA                         A:EA X:FF Y:A4 P:C5 S:FB PPU:156,333 17842
EAE8  F0 02     BEQ $EAEC                        A:EA X:FF Y:A4 P:47 S:FB PPU:156,339 17844
EAEC  A0 FF     LDY #$FF                         A:EA X:FF Y:A4 P:47 S:FB PPU:157,7   17847
EAEE  A9 00     LDA #$00                         A:EA X:FF Y:FF P:C5 S:FB PPU:157,13  17849
EAF0  8D 47 06  STA $0647 = $EA                  A:00 X:FF Y:FF P:47 S:FB PPU:157,19  17851
EAF3  20 42 FA  JSR $FA42                        A:00 X:FF Y:FF P:47 S:FB PPU:157,31  17855
FA42  B8        CLV                              A:00 X:FF Y:FF P:47 S:F9 PPU:157,49  17861
FA43  38        SEC                              A:00 X:FF Y:FF P:07 S:F9 PPU:157,55  17863
FA44  A9 FF     LDA #$FF                         A:00 X:FF Y:FF P:07 S:F9 PPU:157,61  17865
FA46  60        RTS                              A:FF X:FF Y:FF P:85 S:F9 PPU:157,67  17867
EAF6  DB 48 05  DCP $0548,Y = $00                A:FF X:FF Y:FF P:85 S:FB PPU:157,85  17873
EAF9  EA        NOP                              A:FF X:FF Y:FF P:07 S:FB PPU:157,106 17880
EAFA  EA        NOP                              A:FF X:FF Y:FF P:07 S:FB PPU:157,112 17882
EAFB  08        PHP                              A:FF X:FF Y:FF P:07 S:FB PPU:157,118 17884
EAFC  48        PHA                              A:FF X:FF Y:FF P:07 S:FA PPU:157,127 17887
EAFD  A0 A5     LDY #$A5                         A:FF X:FF Y:FF P:07 S:F9 PPU:157,136 17890
EAFF  68        PLA                              A:FF X:FF Y:A5 P:85 S:F9 PPU:157,142 17892
EB00  28        PLP                              A:FF X:FF Y:A5 P:85 S:FA PPU:157,154 17896
EB01  20 47 FA  JSR $FA47                        A:FF X:FF Y:A5 P:07 S:FB PPU:157,166 17900
FA47  70 1C     BVS $FA65                        A:FF X:FF Y:A5 P:07 S:F9 PPU:157,184 17906
FA49  D0 1A     BNE $FA65                        A:FF X:FF Y:A5 P:07 S:F9 PPU:157,190 17908
FA4B  30 18     BMI $FA65                        A:FF X:FF Y:A5 P:07 S:F9 PPU:157,196 17910
FA4D  90 16     BCC $FA65                        A:FF X:FF Y:A5 P:07 S:F9 PPU:157,202 17912
FA4F  C9 FF     CMP #$FF                         A:FF X:FF Y:A5 P:07 S:F9 PPU:157,208 17914
FA51  D0 12     BNE $FA65                        A:FF X:FF Y:A5 P:07 S:F9 PPU:157,214 17916
FA53  60        RTS                              A:FF X:FF Y:A5 P:07 S:F9 PPU:157,220 17918
EB04  AD 47 06  LDA $0647 = $FF                  A:FF X:FF Y:A5 P:07 S:FB PPU:157,238 17924
EB07  C9 FF     CMP #$FF                         A:FF X:FF Y:A5 P:85 S:FB PPU:157,250 17928
EB09  F0 02     BEQ $EB0D                        A:FF X:FF Y:A5 P:07 S:FB PPU:157,256 17930
EB0D  A0 FF     LDY #$FF                         A:FF X:FF Y:A5 P:07 S:FB PPU:157,265 17933
EB0F  A9 37     LDA #$37                         A:FF X:FF Y:FF P:85 S:FB PPU:157,271 17935
EB11  8D 47 06  STA $0647 = $FF                  A:37 X:FF Y:FF P:05 S:FB PPU:157,277 17937
EB14  20 54 FA  JSR $FA54                        A:37 X:FF Y:FF P:05 S:FB PPU:157,289 17941
FA54  24 01     BIT $01 = $FF                    A:37 X:FF Y:FF P:05 S:F9 PPU:157,307 17947
FA56  A9 F0     LDA #$F0                         A:37 X:FF Y:FF P:C5 S:F9 PPU:157,316 17950
FA58  60        RTS                              A:F0 X:FF Y:FF P:C5 S:F9 PPU:157,322 17952
EB17  DB 48 05  DCP $0548,Y = $37                A:F0 X:FF Y:FF P:C5 S:FB PPU:157,340 17958
EB1A  EA        NOP                              A:F0 X:FF Y:FF P:C5 S:FB PPU:158,20  17965
EB1B  EA        NOP                              A:F0 X:FF Y:FF P:C5 S:FB PPU:158,26  17967
EB1C  08        PHP                              A:F0 X:FF Y:FF P:C5 S:FB PPU:158,32  17969
EB1D  48        PHA                              A:F0 X:FF Y:FF P:C5 S:FA PPU:158,41  17972
EB1E  A0 A6     LDY #$A6                         A:F0 X:FF Y:FF P:C5 S:F9 PPU:158,50  17975
EB20  68        PLA                              A:F0 X:FF Y:A6 P:C5 S:F9 PPU:158,56  17977
EB21  28        PLP                              A:F0 X:FF Y:A6 P:C5 S:FA PPU:158,68  17981
EB22  20 59 FA  JSR $FA59                        A:F0 X:FF Y:A6 P:C5 S:FB PPU:158,80  17985
FA59  50 0A     BVC $FA65                        A:F0 X:FF Y:A6 P:C5 S:F9 PPU:158,98  17991
FA5B  F0 08     BEQ $FA65                        A:F0 X:FF Y:A6 P:C5 S:F9 PPU:158,104 17993
FA5D  10 06     BPL $FA65                        A:F0 X:FF Y:A6 P:C5 S:F9 PPU:158,110 17995
FA5F  90 04     BCC $FA65                        A:F0 X:FF Y:A6 P:C5 S:F9 PPU:158,116 17997
FA61  C9 F0     CMP #$F0                         A:F0 X:FF Y:A6 P:C5 S:F9 PPU:158,122 17999
FA63  F0 02     BEQ $FA67                        A:F0 X:FF Y:A6 P:47 S:F9 PPU:158,128 18001
FA67  60        RTS                              A:F0 X:FF Y:A6 P:47 S:F9 PPU:158,137 18004
EB25  AD 47 06  LDA $0647 = $36                  A:F0 X:FF Y:A6 P:47 S:FB PPU:158,155 18010
EB28  C9 36     CMP #$36                         A:36 X:FF Y:A6 P:45 S:FB PPU:158,167 18014
EB2A  F0 02     BEQ $EB2E                        A:36 X:FF Y:A6 P:47 S:FB PPU:158,173 18016
EB2E  A0 A7     LDY #$A7                         A:36 X:FF Y:A6 P:47 S:FB PPU:158,182 18019
EB30  A2 FF     LDX #$FF                         A:36 X:FF Y:A7 P:C5 S:FB PPU:158,188 18021
EB32  A9 EB     LDA #$EB                         A:36 X:FF Y:A7 P:C5 S:FB PPU:158,194 18023
EB34  8D 47 06  STA $0647 = $36                  A:EB X:FF Y:A7 P:C5 S:FB PPU:158,200 18025
EB37  20 31 FA  JSR $FA31                        A:EB X:FF Y:A7 P:C5 S:FB PPU:158,212 18029
FA31  24 01     BIT $01 = $FF                    A:EB X:FF Y:A7 P:C5 S:F9 PPU:158,230 18035
FA33  18        CLC                              A:EB X:FF Y:A7 P:C5 S:F9 PPU:158,239 18038
FA34  A9 40     LDA #$40                         A:EB X:FF Y:A7 P:C4 S:F9 PPU:158,245 18040
FA36  60        RTS                              A:40 X:FF Y:A7 P:44 S:F9 PPU:158,251 18042
EB3A  DF 48 05  DCP $0548,X = $EB                A:40 X:FF Y:A7 P:44 S:FB PPU:158,269 18048
EB3D  EA        NOP                              A:40 X:FF Y:A7 P:44 S:FB PPU:158,290 18055
EB3E  EA        NOP                              A:40 X:FF Y:A7 P:44 S:FB PPU:158,296 18057
EB3F  EA        NOP                              A:40 X:FF Y:A7 P:44 S:FB PPU:158,302 18059
EB40  EA        NOP                              A:40 X:FF Y:A7 P:44 S:FB PPU:158,308 18061
EB41  20 37 FA  JSR $FA37                        A:40 X:FF Y:A7 P:44 S:FB PPU:158,314 18063
FA37  50 2C     BVC $FA65                        A:40 X:FF Y:A7 P:44 S:F9 PPU:158,332 18069
FA39  B0 2A     BCS $FA65                        A:40 X:FF Y:A7 P:44 S:F9 PPU:158,338 18071
FA3B  30 28     BMI $FA65                        A:40 X:FF Y:A7 P:44 S:F9 PPU:159,3   18073
FA3D  C9 40     CMP #$40                         A:40 X:FF Y:A7 P:44 S:F9 PPU:159,9   18075
FA3F  D0 24     BNE $FA65                        A:40 X:FF Y:A7 P:47 S:F9 PPU:159,15  18077
FA41  60        RTS                              A:40 X:FF Y:A7 P:47 S:F9 PPU:159,21  18079
EB44  AD 47 06  LDA $0647 = $EA                  A:40 X:FF Y:A7 P:47 S:FB PPU:159,39  18085
EB47  C9 EA     CMP #$EA                         A:EA X:FF Y:A7 P:C5 S:FB PPU:159,51  18089
EB49  F0 02     BEQ $EB4D                        A:EA X:FF Y:A7 P:47 S:FB PPU:159,57  18091
EB4D  C8        INY                              A:EA X:FF Y:A7 P:47 S:FB PPU:159,66  18094
EB4E  A9 00     LDA #$00                         A:EA X:FF Y:A8 P:C5 S:FB PPU:159,72  18096
EB50  8D 47 06  STA $0647 = $EA                  A:00 X:FF Y:A8 P:47 S:FB PPU:159,78  18098
EB53  20 42 FA  JSR $FA42                        A:00 X:FF Y:A8 P:47 S:FB PPU:159,90  18102
FA42  B8        CLV                              A:00 X:FF Y:A8 P:47 S:F9 PPU:159,108 18108
FA43  38        SEC                              A:00 X:FF Y:A8 P:07 S:F9 PPU:159,114 18110
FA44  A9 FF     LDA #$FF                         A:00 X:FF Y:A8 P:07 S:F9 PPU:159,120 18112
FA46  60        RTS                              A:FF X:FF Y:A8 P:85 S:F9 PPU:159,126 18114
EB56  DF 48 05  DCP $0548,X = $00                A:FF X:FF Y:A8 P:85 S:FB PPU:159,144 18120
EB59  EA        NOP                              A:FF X:FF Y:A8 P:07 S:FB PPU:159,165 18127
EB5A  EA        NOP                              A:FF X:FF Y:A8 P:07 S:FB PPU:159,171 18129
EB5B  EA        NOP                              A:FF X:FF Y:A8 P:07 S:FB PPU:159,177 18131
EB5C  EA        NOP                              A:FF X:FF Y:A8 P:07 S:FB PPU:159,183 18133
EB5D  20 47 FA  JSR $FA47                        A:FF X:FF Y:A8 P:07 S:FB PPU:159,189 18135
FA47  70 1C     BVS $FA65                        A:FF X:FF Y:A8 P:07 S:F9 PPU:159,207 18141
FA49  D0 1A     BNE $FA65                        A:FF X:FF Y:A8 P:07 S:F9 PPU:159,213 18143
FA4B  30 18     BMI $FA65                        A:FF X:FF Y:A8 P:07 S:F9 PPU:159,219 18145
FA4D  90 16     BCC $FA65                        A:FF X:FF Y:A8 P:07 S:F9 PPU:159,225 18147
FA4F  C9 FF     CMP #$FF                         A:FF X:FF Y:A8 P:07 S:F9 PPU:159,231 18149
FA51  D0 12     BNE $FA65                        A:FF X:FF Y:A8 P:07 S:F9 PPU:159,237 18151
FA53  60        RTS                              A:FF X:FF Y:A8 P:07 S:F9 PPU:159,243 18153
EB60  AD 47 06  LDA $0647 = $FF                  A:FF X:FF Y:A8 P:07 S:FB PPU:159,261 18159
EB63  C9 FF     CMP #$FF                         A:FF X:FF Y:A8 P:85 S:FB PPU:159,273 18163
EB65  F0 02     BEQ $EB69                        A:FF X:FF Y:A8 P:07 S:FB PPU:159,279 18165
EB69  C8        INY                              A:FF X:FF Y:A8 P:07 S:FB PPU:159,288 18168
EB6A  A9 37     LDA #$37                         A:FF X:FF Y:A9 P:85 S:FB PPU:159,294 18170
EB6C  8D 47 06  STA $0647 = $FF                  A:37 X:FF Y:A9 P:05 S:FB PPU:159,300 18172
EB6F  20 54 FA  JSR $FA54                        A:37 X:FF Y:A9 P:05 S:FB PPU:159,312 18176
FA54  24 01     BIT $01 = $FF                    A:37 X:FF Y:A9 P:05 S:F9 PPU:159,330 18182
FA56  A9 F0     LDA #$F0                         A:37 X:FF Y:A9 P:C5 S:F9 PPU:159,339 18185
FA58  60        RTS                              A:F0 X:FF Y:A9 P:C5 S:F9 PPU:160,4   18187
EB72  DF 48 05  DCP $0548,X = $37                A:F0 X:FF Y:A9 P:C5 S:FB PPU:160,22  18193
EB75  EA        NOP                              A:F0 X:FF Y:A9 P:C5 S:FB PPU:160,43  18200
EB76  EA        NOP                              A:F0 X:FF Y:A9 P:C5 S:FB PPU:160,49  18202
EB77  EA        NOP                              A:F0 X:FF Y:A9 P:C5 S:FB PPU:160,55  18204
EB78  EA        NOP                              A:F0 X:FF Y:A9 P:C5 S:FB PPU:160,61  18206
EB79  20 59 FA  JSR $FA59                        A:F0 X:FF Y:A9 P:C5 S:FB PPU:160,67  18208
FA59  50 0A     BVC $FA65                        A:F0 X:FF Y:A9 P:C5 S:F9 PPU:160,85  18214
FA5B  F0 08     BEQ $FA65                        A:F0 X:FF Y:A9 P:C5 S:F9 PPU:160,91  18216
FA5D  10 06     BPL $FA65                        A:F0 X:FF Y:A9 P:C5 S:F9 PPU:160,97  18218
FA5F  90 04     BCC $FA65                        A:F0 X:FF Y:A9 P:C5 S:F9 PPU:160,103 18220
FA61  C9 F0     CMP #$F0                         A:F0 X:FF Y:A9 P:C5 S:F9 PPU:160,109 18222
FA63  F0 02     BEQ $FA67                        A:F0 X:FF Y:A9 P:47 S:F9 PPU:160,115 18224
FA67  60        RTS                              A:F0 X:FF Y:A9 P:47 S:F9 PPU:160,124 18227
EB7C  AD 47 06  LDA $0647 = $36                  A:F0 X:FF Y:A9 P:47 S:FB PPU:160,142 18233
EB7F  C9 36     CMP #$36                         A:36 X:FF Y:A9 P:45 S:FB PPU:160,154 18237
EB81  F0 02     BEQ $EB85                        A:36 X:FF Y:A9 P:47 S:FB PPU:160,160 18239
EB85  60        RTS                              A:36 X:FF Y:A9 P:47 S:FB PPU:160,169 18242
C63E  20 86 EB  JSR $EB86                        A:36 X:FF Y:A9 P:47 S:FD PPU:160,187 18248
EB86  A9 FF     LDA #$FF                         A:36 X:FF Y:A9 P:47 S:FB PPU:160,205 18254
EB88  85 01     STA $01 = $FF                    A:FF X:FF Y:A9 P:C5 S:FB PPU:160,211 18256
EB8A  A0 AA     LDY #$AA                         A:FF X:FF Y:A9 P:C5 S:FB PPU:160,220 18259
EB8C  A2 02     LDX #$02                         A:FF X:FF Y:AA P:C5 S:FB PPU:160,226 18261
EB8E  A9 47     LDA #$47                         A:FF X:02 Y:AA P:45 S:FB PPU:160,232 18263
EB90  85 47     STA $47 = $36                    A:47 X:02 Y:AA P:45 S:FB PPU:160,238 18265
EB92  A9 06     LDA #$06                         A:47 X:02 Y:AA P:45 S:FB PPU:160,247 18268
EB94  85 48     STA $48 = $06                    A:06 X:02 Y:AA P:45 S:FB PPU:160,253 18270
EB96  A9 EB     LDA #$EB                         A:06 X:02 Y:AA P:45 S:FB PPU:160,262 18273
EB98  8D 47 06  STA $0647 = $36                  A:EB X:02 Y:AA P:C5 S:FB PPU:160,268 18275
EB9B  20 B1 FA  JSR $FAB1                        A:EB X:02 Y:AA P:C5 S:FB PPU:160,280 18279
FAB1  24 01     BIT $01 = $FF                    A:EB X:02 Y:AA P:C5 S:F9 PPU:160,298 18285
FAB3  18        CLC                              A:EB X:02 Y:AA P:C5 S:F9 PPU:160,307 18288
FAB4  A9 40     LDA #$40                         A:EB X:02 Y:AA P:C4 S:F9 PPU:160,313 18290
FAB6  60        RTS                              A:40 X:02 Y:AA P:44 S:F9 PPU:160,319 18292
EB9E  E3 45     ISC ($45,X) = $EB                A:40 X:02 Y:AA P:44 S:FB PPU:160,337 18298
EBA0  EA        NOP                              A:53 X:02 Y:AA P:04 S:FB PPU:161,20  18306
EBA1  EA        NOP                              A:53 X:02 Y:AA P:04 S:FB PPU:161,26  18308
EBA2  EA        NOP                              A:53 X:02 Y:AA P:04 S:FB PPU:161,32  18310
EBA3  EA        NOP                              A:53 X:02 Y:AA P:04 S:FB PPU:161,38  18312
EBA4  20 B7 FA  JSR $FAB7                        A:53 X:02 Y:AA P:04 S:FB PPU:161,44  18314
FAB7  70 2D     BVS $FAE6                        A:53 X:02 Y:AA P:04 S:F9 PPU:161,62  18320
FAB9  B0 2B     BCS $FAE6                        A:53 X:02 Y:AA P:04 S:F9 PPU:161,68  18322
FABB  30 29     BMI $FAE6                        A:53 X:02 Y:AA P:04 S:F9 PPU:161,74  18324
FABD  C9 53     CMP #$53                         A:53 X:02 Y:AA P:04 S:F9 PPU:161,80  18326
FABF  D0 25     BNE $FAE6                        A:53 X:02 Y:AA P:07 S:F9 PPU:161,86  18328
FAC1  60        RTS                              A:53 X:02 Y:AA P:07 S:F9 PPU:161,92  18330
EBA7  AD 47 06  LDA $0647 = $EC                  A:53 X:02 Y:AA P:07 S:FB PPU:161,110 18336
EBAA  C9 EC     CMP #$EC                         A:EC X:02 Y:AA P:85 S:FB PPU:161,122 18340
EBAC  F0 02     BEQ $EBB0                        A:EC X:02 Y:AA P:07 S:FB PPU:161,128 18342
EBB0  C8        INY                              A:EC X:02 Y:AA P:07 S:FB PPU:161,137 18345
EBB1  A9 FF     LDA #$FF                         A:EC X:02 Y:AB P:85 S:FB PPU:161,143 18347
EBB3  8D 47 06  STA $0647 = $EC                  A:FF X:02 Y:AB P:85 S:FB PPU:161,149 18349
EBB6  20 C2 FA  JSR $FAC2                        A:FF X:02 Y:AB P:85 S:FB PPU:161,161 18353
FAC2  B8        CLV                              A:FF X:02 Y:AB P:85 S:F9 PPU:161,179 18359
FAC3  38        SEC                              A:FF X:02 Y:AB P:85 S:F9 PPU:161,185 18361
FAC4  A9 FF     LDA #$FF                         A:FF X:02 Y:AB P:85 S:F9 PPU:161,191 18363
FAC6  60        RTS                              A:FF X:02 Y:AB P:85 S:F9 PPU:161,197 18365
EBB9  E3 45     ISC ($45,X) = $FF                A:FF X:02 Y:AB P:85 S:FB PPU:161,215 18371
EBBB  EA        NOP                              A:FF X:02 Y:AB P:85 S:FB PPU:161,239 18379
EBBC  EA        NOP                              A:FF X:02 Y:AB P:85 S:FB PPU:161,245 18381
EBBD  EA        NOP                              A:FF X:02 Y:AB P:85 S:FB PPU:161,251 18383
EBBE  EA        NOP                              A:FF X:02 Y:AB P:85 S:FB PPU:161,257 18385
EBBF  20 C7 FA  JSR $FAC7                        A:FF X:02 Y:AB P:85 S:FB PPU:161,263 18387
FAC7  70 1D     BVS $FAE6                        A:FF X:02 Y:AB P:85 S:F9 PPU:161,281 18393
FAC9  F0 1B     BEQ $FAE6                        A:FF X:02 Y:AB P:85 S:F9 PPU:161,287 18395
FACB  10 19     BPL $FAE6                        A:FF X:02 Y:AB P:85 S:F9 PPU:161,293 18397
FACD  90 17     BCC $FAE6                        A:FF X:02 Y:AB P:85 S:F9 PPU:161,299 18399
FACF  C9 FF     CMP #$FF                         A:FF X:02 Y:AB P:85 S:F9 PPU:161,305 18401
FAD1  D0 13     BNE $FAE6                        A:FF X:02 Y:AB P:07 S:F9 PPU:161,311 18403
FAD3  60        RTS                              A:FF X:02 Y:AB P:07 S:F9 PPU:161,317 18405
EBC2  AD 47 06  LDA $0647 = $00                  A:FF X:02 Y:AB P:07 S:FB PPU:161,335 18411
EBC5  C9 00     CMP #$00                         A:00 X:02 Y:AB P:07 S:FB PPU:162,6   18415
EBC7  F0 02     BEQ $EBCB                        A:00 X:02 Y:AB P:07 S:FB PPU:162,12  18417
EBCB  C8        INY                              A:00 X:02 Y:AB P:07 S:FB PPU:162,21  18420
EBCC  A9 37     LDA #$37                         A:00 X:02 Y:AC P:85 S:FB PPU:162,27  18422
EBCE  8D 47 06  STA $0647 = $00                  A:37 X:02 Y:AC P:05 S:FB PPU:162,33  18424
EBD1  20 D4 FA  JSR $FAD4                        A:37 X:02 Y:AC P:05 S:FB PPU:162,45  18428
FAD4  24 01     BIT $01 = $FF                    A:37 X:02 Y:AC P:05 S:F9 PPU:162,63  18434
FAD6  38        SEC                              A:37 X:02 Y:AC P:C5 S:F9 PPU:162,72  18437
FAD7  A9 F0     LDA #$F0                         A:37 X:02 Y:AC P:C5 S:F9 PPU:162,78  18439
FAD9  60        RTS                              A:F0 X:02 Y:AC P:C5 S:F9 PPU:162,84  18441
EBD4  E3 45     ISC ($45,X) = $37                A:F0 X:02 Y:AC P:C5 S:FB PPU:162,102 18447
EBD6  EA        NOP                              A:B8 X:02 Y:AC P:85 S:FB PPU:162,126 18455
EBD7  EA        NOP                              A:B8 X:02 Y:AC P:85 S:FB PPU:162,132 18457
EBD8  EA        NOP                              A:B8 X:02 Y:AC P:85 S:FB PPU:162,138 18459
EBD9  EA        NOP                              A:B8 X:02 Y:AC P:85 S:FB PPU:162,144 18461
EBDA  20 DA FA  JSR $FADA                        A:B8 X:02 Y:AC P:85 S:FB PPU:162,150 18463
FADA  70 0A     BVS $FAE6                        A:B8 X:02 Y:AC P:85 S:F9 PPU:162,168 18469
FADC  F0 08     BEQ $FAE6                        A:B8 X:02 Y:AC P:85 S:F9 PPU:162,174 18471
FADE  10 06     BPL $FAE6                        A:B8 X:02 Y:AC P:85 S:F9 PPU:162,180 18473
FAE0  90 04     BCC $FAE6                        A:B8 X:02 Y:AC P:85 S:F9 PPU:162,186 18475
FAE2  C9 B8     CMP #$B8                         A:B8 X:02 Y:AC P:85 S:F9 PPU:162,192 18477
FAE4  F0 02     BEQ $FAE8                        A:B8 X:02 Y:AC P:07 S:F9 PPU:162,198 18479
FAE8  60        RTS                              A:B8 X:02 Y:AC P:07 S:F9 PPU:162,207 18482
EBDD  AD 47 06  LDA $0647 = $38                  A:B8 X:02 Y:AC P:07 S:FB PPU:162,225 18488
EBE0  C9 38     CMP #$38                         A:38 X:02 Y:AC P:05 S:FB PPU:162,237 18492
EBE2  F0 02     BEQ $EBE6                        A:38 X:02 Y:AC P:07 S:FB PPU:162,243 18494
EBE6  C8        INY                              A:38 X:02 Y:AC P:07 S:FB PPU:162,252 18497
EBE7  A9 EB     LDA #$EB                         A:38 X:02 Y:AD P:85 S:FB PPU:162,258 18499
EBE9  85 47     STA $47 = $47                    A:EB X:02 Y:AD P:85 S:FB PPU:162,264 18501
EBEB  20 B1 FA  JSR $FAB1                        A:EB X:02 Y:AD P:85 S:FB PPU:162,273 18504
FAB1  24 01     BIT $01 = $FF                    A:EB X:02 Y:AD P:85 S:F9 PPU:162,291 18510
FAB3  18        CLC                              A:EB X:02 Y:AD P:C5 S:F9 PPU:162,300 18513
FAB4  A9 40     LDA #$40                         A:EB X:02 Y:AD P:C4 S:F9 PPU:162,306 18515
FAB6  60        RTS                              A:40 X:02 Y:AD P:44 S:F9 PPU:162,312 18517
EBEE  E7 47     ISC $47 = $EB                    A:40 X:02 Y:AD P:44 S:FB PPU:162,330 18523
EBF0  EA        NOP                              A:53 X:02 Y:AD P:04 S:FB PPU:163,4   18528
EBF1  EA        NOP                              A:53 X:02 Y:AD P:04 S:FB PPU:163,10  18530
EBF2  EA        NOP                              A:53 X:02 Y:AD P:04 S:FB PPU:163,16  18532
EBF3  EA        NOP                              A:53 X:02 Y:AD P:04 S:FB PPU:163,22  18534
EBF4  20 B7 FA  JSR $FAB7                        A:53 X:02 Y:AD P:04 S:FB PPU:163,28  18536
FAB7  70 2D     BVS $FAE6                        A:53 X:02 Y:AD P:04 S:F9 PPU:163,46  18542
FAB9  B0 2B     BCS $FAE6                        A:53 X:02 Y:AD P:04 S:F9 PPU:163,52  18544
FABB  30 29     BMI $FAE6                        A:53 X:02 Y:AD P:04 S:F9 PPU:163,58  18546
FABD  C9 53     CMP #$53                         A:53 X:02 Y:AD P:04 S:F9 PPU:163,64  18548
FABF  D0 25     BNE $FAE6                        A:53 X:02 Y:AD P:07 S:F9 PPU:163,70  18550
FAC1  60        RTS                              A:53 X:02 Y:AD P:07 S:F9 PPU:163,76  18552
EBF7  A5 47     LDA $47 = $EC                    A:53 X:02 Y:AD P:07 S:FB PPU:163,94  18558
EBF9  C9 EC     CMP #$EC                         A:EC X:02 Y:AD P:85 S:FB PPU:163,103 18561
EBFB  F0 02     BEQ $EBFF                        A:EC X:02 Y:AD P:07 S:FB PPU:163,109 18563
EBFF  C8        INY                              A:EC X:02 Y:AD P:07 S:FB PPU:163,118 18566
EC00  A9 FF     LDA #$FF                         A:EC X:02 Y:AE P:85 S:FB PPU:163,124 18568
EC02  85 47     STA $47 = $EC                    A:FF X:02 Y:AE P:85 S:FB PPU:163,130 18570
EC04  20 C2 FA  JSR $FAC2                        A:FF X:02 Y:AE P:85 S:FB PPU:163,139 18573
FAC2  B8        CLV                              A:FF X:02 Y:AE P:85 S:F9 PPU:163,157 18579
FAC3  38        SEC                              A:FF X:02 Y:AE P:85 S:F9 PPU:163,163 18581
FAC4  A9 FF     LDA #$FF                         A:FF X:02 Y:AE P:85 S:F9 PPU:163,169 18583
FAC6  60        RTS                              A:FF X:02 Y:AE P:85 S:F9 PPU:163,175 18585
EC07  E7 47     ISC $47 = $FF                    A:FF X:02 Y:AE P:85 S:FB PPU:163,193 18591
EC09  EA        NOP                              A:FF X:02 Y:AE P:85 S:FB PPU:163,208 18596
EC0A  EA        NOP                              A:FF X:02 Y:AE P:85 S:FB PPU:163,214 18598
EC0B  EA        NOP                              A:FF X:02 Y:AE P:85 S:FB PPU:163,220 18600
EC0C  EA        NOP                              A:FF X:02 Y:AE P:85 S:FB PPU:163,226 18602
EC0D  20 C7 FA  JSR $FAC7                        A:FF X:02 Y:AE P:85 S:FB PPU:163,232 18604
FAC7  70 1D     BVS $FAE6                        A:FF X:02 Y:AE P:85 S:F9 PPU:163,250 18610
FAC9  F0 1B     BEQ $FAE6                        A:FF X:02 Y:AE P:85 S:F9 PPU:163,256 18612
FACB  10 19     BPL $FAE6                        A:FF X:02 Y:AE P:85 S:F9 PPU:163,262 18614
FACD  90 17     BCC $FAE6                        A:FF X:02 Y:AE P:85 S:F9 PPU:163,268 18616
FACF  C9 FF     CMP #$FF                         A:FF X:02 Y:AE P:85 S:F9 PPU:163,274 18618
FAD1  D0 13     BNE $FAE6                        A:FF X:02 Y:AE P:07 S:F9 PPU:163,280 18620
FAD3  60        RTS                              A:FF X:02 Y:AE P:07 S:F9 PPU:163,286 18622
EC10  A5 47     LDA $47 = $00                    A:FF X:02 Y:AE P:07 S:FB PPU:163,304 18628
EC12  C9 00     CMP #$00                         A:00 X:02 Y:AE P:07 S:FB PPU:163,313 18631
EC14  F0 02     BEQ $EC18                        A:00 X:02 Y:AE P:07 S:FB PPU:163,319 18633
EC18  C8        INY                              A:00 X:02 Y:AE P:07 S:FB PPU:163,328 18636
EC19  A9 37     LDA #$37                         A:00 X:02 Y:AF P:85 S:FB PPU:163,334 18638
EC1B  85 47     STA $47 = $00                    A:37 X:02 Y:AF P:05 S:FB PPU:163,340 18640
EC1D  20 D4 FA  JSR $FAD4                        A:37 X:02 Y:AF P:05 S:FB PPU:164,8   18643
FAD4  24 01     BIT $01 = $FF                    A:37 X:02 Y:AF P:05 S:F9 PPU:164,26  18649
FAD6  38        SEC                              A:37 X:02 Y:AF P:C5 S:F9 PPU:164,35  18652
FAD7  A9 F0     LDA #$F0                         A:37 X:02 Y:AF P:C5 S:F9 PPU:164,41  18654
FAD9  60        RTS                              A:F0 X:02 Y:AF P:C5 S:F9 PPU:164,47  18656
EC20  E7 47     ISC $47 = $37                    A:F0 X:02 Y:AF P:C5 S:FB PPU:164,65  18662
EC22  EA        NOP                              A:B8 X:02 Y:AF P:85 S:FB PPU:164,80  18667
EC23  EA        NOP                              A:B8 X:02 Y:AF P:85 S:FB PPU:164,86  18669
EC24  EA        NOP                              A:B8 X:02 Y:AF P:85 S:FB PPU:164,92  18671
EC25  EA        NOP                              A:B8 X:02 Y:AF P:85 S:FB PPU:164,98  18673
EC26  20 DA FA  JSR $FADA                        A:B8 X:02 Y:AF P:85 S:FB PPU:164,104 18675
FADA  70 0A     BVS $FAE6                        A:B8 X:02 Y:AF P:85 S:F9 PPU:164,122 18681
FADC  F0 08     BEQ $FAE6                        A:B8 X:02 Y:AF P:85 S:F9 PPU:164,128 18683
FADE  10 06     BPL $FAE6                        A:B8 X:02 Y:AF P:85 S:F9 PPU:164,134 18685
FAE0  90 04     BCC $FAE6                        A:B8 X:02 Y:AF P:85 S:F9 PPU:164,140 18687
FAE2  C9 B8     CMP #$B8                         A:B8 X:02 Y:AF P:85 S:F9 PPU:164,146 18689
FAE4  F0 02     BEQ $FAE8                        A:B8 X:02 Y:AF P:07 S:F9 PPU:164,152 18691
FAE8  60        RTS                              A:B8 X:02 Y:AF P:07 S:F9 PPU:164,161 18694
EC29  A5 47     LDA $47 = $38                    A:B8 X:02 Y:AF P:07 S:FB PPU:164,179 18700
EC2B  C9 38     CMP #$38                         A:38 X:02 Y:AF P:05 S:FB PPU:164,188 18703
EC2D  F0 02     BEQ $EC31                        A:38 X:02 Y:AF P:07 S:FB PPU:164,194 18705
EC31  C8        INY                              A:38 X:02 Y:AF P:07 S:FB PPU:164,203 18708
EC32  A9 EB     LDA #$EB                         A:38 X:02 Y:B0 P:85 S:FB PPU:164,209 18710
EC34  8D 47 06  STA $0647 = $38                  A:EB X:02 Y:B0 P:85 S:FB PPU:164,215 18712
EC37  20 B1 FA  JSR $FAB1                        A:EB X:02 Y:B0 P:85 S:FB PPU:164,227 18716
FAB1  24 01     BIT $01 = $FF                    A:EB X:02 Y:B0 P:85 S:F9 PPU:164,245 18722
FAB3  18        CLC                              A:EB X:02 Y:B0 P:C5 S:F9 PPU:164,254 18725
FAB4  A9 40     LDA #$40                         A:EB X:02 Y:B0 P:C4 S:F9 PPU:164,260 18727
FAB6  60        RTS                              A:40 X:02 Y:B0 P:44 S:F9 PPU:164,266 18729
EC3A  EF 47 06  ISC $0647 = $EB                  A:40 X:02 Y:B0 P:44 S:FB PPU:164,284 18735
EC3D  EA        NOP                              A:53 X:02 Y:B0 P:04 S:FB PPU:164,302 18741
EC3E  EA        NOP                              A:53 X:02 Y:B0 P:04 S:FB PPU:164,308 18743
EC3F  EA        NOP                              A:53 X:02 Y:B0 P:04 S:FB PPU:164,314 18745
EC40  EA        NOP                              A:53 X:02 Y:B0 P:04 S:FB PPU:164,320 18747
EC41  20 B7 FA  JSR $FAB7                        A:53 X:02 Y:B0 P:04 S:FB PPU:164,326 18749
FAB7  70 2D     BVS $FAE6                        A:53 X:02 Y:B0 P:04 S:F9 PPU:165,3   18755
FAB9  B0 2B     BCS $FAE6                        A:53 X:02 Y:B0 P:04 S:F9 PPU:165,9   18757
FABB  30 29     BMI $FAE6                        A:53 X:02 Y:B0 P:04 S:F9 PPU:165,15  18759
FABD  C9 53     CMP #$53                         A:53 X:02 Y:B0 P:04 S:F9 PPU:165,21  18761
FABF  D0 25     BNE $FAE6                        A:53 X:02 Y:B0 P:07 S:F9 PPU:165,27  18763
FAC1  60        RTS                              A:53 X:02 Y:B0 P:07 S:F9 PPU:165,33  18765
EC44  AD 47 06  LDA $0647 = $EC                  A:53 X:02 Y:B0 P:07 S:FB PPU:165,51  18771
EC47  C9 EC     CMP #$EC                         A:EC X:02 Y:B0 P:85 S:FB PPU:165,63  18775
EC49  F0 02     BEQ $EC4D                        A:EC X:02 Y:B0 P:07 S:FB PPU:165,69  18777
EC4D  C8        INY                              A:EC X:02 Y:B0 P:07 S:FB PPU:165,78  18780
EC4E  A9 FF     LDA #$FF                         A:EC X:02 Y:B1 P:85 S:FB PPU:165,84  18782
EC50  8D 47 06  STA $0647 = $EC                  A:FF X:02 Y:B1 P:85 S:FB PPU:165,90  18784
EC53  20 C2 FA  JSR $FAC2                        A:FF X:02 Y:B1 P:85 S:FB PPU:165,102 18788
FAC2  B8        CLV                              A:FF X:02 Y:B1 P:85 S:F9 PPU:165,120 18794
FAC3  38        SEC                              A:FF X:02 Y:B1 P:85 S:F9 PPU:165,126 18796
FAC4  A9 FF     LDA #$FF                         A:FF X:02 Y:B1 P:85 S:F9 PPU:165,132 18798
FAC6  60        RTS                              A:FF X:02 Y:B1 P:85 S:F9 PPU:165,138 18800
EC56  EF 47 06  ISC $0647 = $FF                  A:FF X:02 Y:B1 P:85 S:FB PPU:165,156 18806
EC59  EA        NOP                              A:FF X:02 Y:B1 P:85 S:FB PPU:165,174 18812
EC5A  EA        NOP                              A:FF X:02 Y:B1 P:85 S:FB PPU:165,180 18814
EC5B  EA        NOP                              A:FF X:02 Y:B1 P:85 S:FB PPU:165,186 18816
EC5C  EA        NOP                              A:FF X:02 Y:B1 P:85 S:FB PPU:165,192 18818
EC5D  20 C7 FA  JSR $FAC7                        A:FF X:02 Y:B1 P:85 S:FB PPU:165,198 18820
FAC7  70 1D     BVS $FAE6                        A:FF X:02 Y:B1 P:85 S:F9 PPU:165,216 18826
FAC9  F0 1B     BEQ $FAE6                        A:FF X:02 Y:B1 P:85 S:F9 PPU:165,222 18828
FACB  10 19     BPL $FAE6                        A:FF X:02 Y:B1 P:85 S:F9 PPU:165,228 18830
FACD  90 17     BCC $FAE6                        A:FF X:02 Y:B1 P:85 S:F9 PPU:165,234 18832
FACF  C9 FF     CMP #$FF                         A:FF X:02 Y:B1 P:85 S:F9 PPU:165,240 18834
FAD1  D0 13     BNE $FAE6                        A:FF X:02 Y:B1 P:07 S:F9 PPU:165,246 18836
FAD3  60        RTS                              A:FF X:02 Y:B1 P:07 S:F9 PPU:165,252 18838
EC60  AD 47 06  LDA $0647 = $00                  A:FF X:02 Y:B1 P:07 S:FB PPU:165,270 18844
EC63  C9 00     CMP #$00                         A:00 X:02 Y:B1 P:07 S:FB PPU:165,282 18848
EC65  F0 02     BEQ $EC69                        A:00 X:02 Y:B1 P:07 S:FB PPU:165,288 18850
EC69  C8        INY                              A:00 X:02 Y:B1 P:07 S:FB PPU:165,297 18853
EC6A  A9 37     LDA #$37                         A:00 X:02 Y:B2 P:85 S:FB PPU:165,303 18855
EC6C  8D 47 06  STA $0647 = $00                  A:37 X:02 Y:B2 P:05 S:FB PPU:165,309 18857
EC6F  20 D4 FA  JSR $FAD4                        A:37 X:02 Y:B2 P:05 S:FB PPU:165,321 18861
FAD4  24 01     BIT $01 = $FF                    A:37 X:02 Y:B2 P:05 S:F9 PPU:165,339 18867
FAD6  38        SEC                              A:37 X:02 Y:B2 P:C5 S:F9 PPU:166,7   18870
FAD7  A9 F0     LDA #$F0                         A:37 X:02 Y:B2 P:C5 S:F9 PPU:166,13  18872
FAD9  60        RTS                              A:F0 X:02 Y:B2 P:C5 S:F9 PPU:166,19  18874
EC72  EF 47 06  ISC $0647 = $37                  A:F0 X:02 Y:B2 P:C5 S:FB PPU:166,37  18880
EC75  EA        NOP                              A:B8 X:02 Y:B2 P:85 S:FB PPU:166,55  18886
EC76  EA        NOP                              A:B8 X:02 Y:B2 P:85 S:FB PPU:166,61  18888
EC77  EA        NOP                              A:B8 X:02 Y:B2 P:85 S:FB PPU:166,67  18890
EC78  EA        NOP                              A:B8 X:02 Y:B2 P:85 S:FB PPU:166,73  18892
EC79  20 DA FA  JSR $FADA                        A:B8 X:02 Y:B2 P:85 S:FB PPU:166,79  18894
FADA  70 0A     BVS $FAE6                        A:B8 X:02 Y:B2 P:85 S:F9 PPU:166,97  18900
FADC  F0 08     BEQ $FAE6                        A:B8 X:02 Y:B2 P:85 S:F9 PPU:166,103 18902
FADE  10 06     BPL $FAE6                        A:B8 X:02 Y:B2 P:85 S:F9 PPU:166,109 18904
FAE0  90 04     BCC $FAE6                        A:B8 X:02 Y:B2 P:85 S:F9 PPU:166,115 18906
FAE2  C9 B8     CMP #$B8                         A:B8 X:02 Y:B2 P:85 S:F9 PPU:166,121 18908
FAE4  F0 02     BEQ $FAE8                        A:B8 X:02 Y:B2 P:07 S:F9 PPU:166,127 18910
FAE8  60        RTS                              A:B8 X:02 Y:B2 P:07 S:F9 PPU:166,136 18913
EC7C  AD 47 06  LDA $0647 = $38                  A:B8 X:02 Y:B2 P:07 S:FB PPU:166,154 18919
EC7F  C9 38     CMP #$38                         A:38 X:02 Y:B2 P:05 S:FB PPU:166,166 18923
EC81  F0 02     BEQ $EC85                        A:38 X:02 Y:B2 P:07 S:FB PPU:166,172 18925
EC85  A9 EB     LDA #$EB                         A:38 X:02 Y:B2 P:07 S:FB PPU:166,181 18928
EC87  8D 47 06  STA $0647 = $38                  A:EB X:02 Y:B2 P:85 S:FB PPU:166,187 18930
EC8A  A9 48     LDA #$48                         A:EB X:02 Y:B2 P:85 S:FB PPU:166,199 18934
EC8C  85 45     STA $45 = $48                    A:48 X:02 Y:B2 P:05 S:FB PPU:166,205 18936
EC8E  A9 05     LDA #$05                         A:48 X:02 Y:B2 P:05 S:FB PPU:166,214 18939
EC90  85 46     STA $46 = $05                    A:05 X:02 Y:B2 P:05 S:FB PPU:166,220 18941
EC92  A0 FF     LDY #$FF                         A:05 X:02 Y:B2 P:05 S:FB PPU:166,229 18944
EC94  20 B1 FA  JSR $FAB1                        A:05 X:02 Y:FF P:85 S:FB PPU:166,235 18946
FAB1  24 01     BIT $01 = $FF                    A:05 X:02 Y:FF P:85 S:F9 PPU:166,253 18952
FAB3  18        CLC                              A:05 X:02 Y:FF P:C5 S:F9 PPU:166,262 18955
FAB4  A9 40     LDA #$40                         A:05 X:02 Y:FF P:C4 S:F9 PPU:166,268 18957
FAB6  60        RTS                              A:40 X:02 Y:FF P:44 S:F9 PPU:166,274 18959
EC97  F3 45     ISC ($45),Y = $EB                A:40 X:02 Y:FF P:44 S:FB PPU:166,292 18965
EC99  EA        NOP                              A:53 X:02 Y:FF P:04 S:FB PPU:166,316 18973
EC9A  EA        NOP                              A:53 X:02 Y:FF P:04 S:FB PPU:166,322 18975
EC9B  08        PHP                              A:53 X:02 Y:FF P:04 S:FB PPU:166,328 18977
EC9C  48        PHA                              A:53 X:02 Y:FF P:04 S:FA PPU:166,337 18980
EC9D  A0 B3     LDY #$B3                         A:53 X:02 Y:FF P:04 S:F9 PPU:167,5   18983
EC9F  68        PLA                              A:53 X:02 Y:B3 P:84 S:F9 PPU:167,11  18985
ECA0  28        PLP                              A:53 X:02 Y:B3 P:04 S:FA PPU:167,23  18989
ECA1  20 B7 FA  JSR $FAB7                        A:53 X:02 Y:B3 P:04 S:FB PPU:167,35  18993
FAB7  70 2D     BVS $FAE6                        A:53 X:02 Y:B3 P:04 S:F9 PPU:167,53  18999
FAB9  B0 2B     BCS $FAE6                        A:53 X:02 Y:B3 P:04 S:F9 PPU:167,59  19001
FABB  30 29     BMI $FAE6                        A:53 X:02 Y:B3 P:04 S:F9 PPU:167,65  19003
FABD  C9 53     CMP #$53                         A:53 X:02 Y:B3 P:04 S:F9 PPU:167,71  19005
FABF  D0 25     BNE $FAE6                        A:53 X:02 Y:B3 P:07 S:F9 PPU:167,77  19007
FAC1  60        RTS                              A:53 X:02 Y:B3 P:07 S:F9 PPU:167,83  19009
ECA4  AD 47 06  LDA $0647 = $EC                  A:53 X:02 Y:B3 P:07 S:FB PPU:167,101 19015
ECA7  C9 EC     CMP #$EC                         A:EC X:02 Y:B3 P:85 S:FB PPU:167,113 19019
ECA9  F0 02     BEQ $ECAD                        A:EC X:02 Y:B3 P:07 S:FB PPU:167,119 19021
ECAD  A0 FF     LDY #$FF                         A:EC X:02 Y:B3 P:07 S:FB PPU:167,128 19024
ECAF  A9 FF     LDA #$FF                         A:EC X:02 Y:FF P:85 S:FB PPU:167,134 19026
ECB1  8D 47 06  STA $0647 = $EC                  A:FF X:02 Y:FF P:85 S:FB PPU:167,140 19028
ECB4  20 C2 FA  JSR $FAC2                        A:FF X:02 Y:FF P:85 S:FB PPU:167,152 19032
FAC2  B8        CLV                              A:FF X:02 Y:FF P:85 S:F9 PPU:167,170 19038
FAC3  38        SEC                              A:FF X:02 Y:FF P:85 S:F9 PPU:167,176 19040
FAC4  A9 FF     LDA #$FF                         A:FF X:02 Y:FF P:85 S:F9 PPU:167,182 19042
FAC6  60        RTS                              A:FF X:02 Y:FF P:85 S:F9 PPU:167,188 19044
ECB7  F3 45     ISC ($45),Y = $FF                A:FF X:02 Y:FF P:85 S:FB PPU:167,206 19050
ECB9  EA        NOP                              A:FF X:02 Y:FF P:85 S:FB PPU:167,230 19058
ECBA  EA        NOP                              A:FF X:02 Y:FF P:85 S:FB PPU:167,236 19060
ECBB  08        PHP                              A:FF X:02 Y:FF P:85 S:FB PPU:167,242 19062
ECBC  48        PHA                              A:FF X:02 Y:FF P:85 S:FA PPU:167,251 19065
ECBD  A0 B4     LDY #$B4                         A:FF X:02 Y:FF P:85 S:F9 PPU:167,260 19068
ECBF  68        PLA                              A:FF X:02 Y:B4 P:85 S:F9 PPU:167,266 19070
ECC0  28        PLP                              A:FF X:02 Y:B4 P:85 S:FA PPU:167,278 19074
ECC1  20 C7 FA  JSR $FAC7                        A:FF X:02 Y:B4 P:85 S:FB PPU:167,290 19078
FAC7  70 1D     BVS $FAE6                        A:FF X:02 Y:B4 P:85 S:F9 PPU:167,308 19084
FAC9  F0 1B     BEQ $FAE6                        A:FF X:02 Y:B4 P:85 S:F9 PPU:167,314 19086
FACB  10 19     BPL $FAE6                        A:FF X:02 Y:B4 P:85 S:F9 PPU:167,320 19088
FACD  90 17     BCC $FAE6                        A:FF X:02 Y:B4 P:85 S:F9 PPU:167,326 19090
FACF  C9 FF     CMP #$FF                         A:FF X:02 Y:B4 P:85 S:F9 PPU:167,332 19092
FAD1  D0 13     BNE $FAE6                        A:FF X:02 Y:B4 P:07 S:F9 PPU:167,338 19094
FAD3  60        RTS                              A:FF X:02 Y:B4 P:07 S:F9 PPU:168,3   19096
ECC4  AD 47 06  LDA $0647 = $00                  A:FF X:02 Y:B4 P:07 S:FB PPU:168,21  19102
ECC7  C9 00     CMP #$00                         A:00 X:02 Y:B4 P:07 S:FB PPU:168,33  19106
ECC9  F0 02     BEQ $ECCD                        A:00 X:02 Y:B4 P:07 S:FB PPU:168,39  19108
ECCD  A0 FF     LDY #$FF                         A:00 X:02 Y:B4 P:07 S:FB PPU:168,48  19111
ECCF  A9 37     LDA #$37                         A:00 X:02 Y:FF P:85 S:FB PPU:168,54  19113
ECD1  8D 47 06  STA $0647 = $00                  A:37 X:02 Y:FF P:05 S:FB PPU:168,60  19115
ECD4  20 D4 FA  JSR $FAD4                        A:37 X:02 Y:FF P:05 S:FB PPU:168,72  19119
FAD4  24 01     BIT $01 = $FF                    A:37 X:02 Y:FF P:05 S:F9 PPU:168,90  19125
FAD6  38        SEC                              A:37 X:02 Y:FF P:C5 S:F9 PPU:168,99  19128
FAD7  A9 F0     LDA #$F0                         A:37 X:02 Y:FF P:C5 S:F9 PPU:168,105 19130
FAD9  60        RTS                              A:F0 X:02 Y:FF P:C5 S:F9 PPU:168,111 19132
ECD7  F3 45     ISC ($45),Y = $37                A:F0 X:02 Y:FF P:C5 S:FB PPU:168,129 19138
ECD9  EA        NOP                              A:B8 X:02 Y:FF P:85 S:FB PPU:168,153 19146
ECDA  EA        NOP                              A:B8 X:02 Y:FF P:85 S:FB PPU:168,159 19148
ECDB  08        PHP                              A:B8 X:02 Y:FF P:85 S:FB PPU:168,165 19150
ECDC  48        PHA                              A:B8 X:02 Y:FF P:85 S:FA PPU:168,174 19153
ECDD  A0 B5     LDY #$B5                         A:B8 X:02 Y:FF P:85 S:F9 PPU:168,183 19156
ECDF  68        PLA                              A:B8 X:02 Y:B5 P:85 S:F9 PPU:168,189 19158
ECE0  28        PLP                              A:B8 X:02 Y:B5 P:85 S:FA PPU:168,201 19162
ECE1  20 DA FA  JSR $FADA                        A:B8 X:02 Y:B5 P:85 S:FB PPU:168,213 19166
FADA  70 0A     BVS $FAE6                        A:B8 X:02 Y:B5 P:85 S:F9 PPU:168,231 19172
FADC  F0 08     BEQ $FAE6                        A:B8 X:02 Y:B5 P:85 S:F9 PPU:168,237 19174
FADE  10 06     BPL $FAE6                        A:B8 X:02 Y:B5 P:85 S:F9 PPU:168,243 19176
FAE0  90 04     BCC $FAE6                        A:B8 X:02 Y:B5 P:85 S:F9 PPU:168,249 19178
FAE2  C9 B8     CMP #$B8                         A:B8 X:02 Y:B5 P:85 S:F9 PPU:168,255 19180
FAE4  F0 02     BEQ $FAE8                        A:B8 X:02 Y:B5 P:07 S:F9 PPU:168,261 19182
FAE8  60        RTS                              A:B8 X:02 Y:B5 P:07 S:F9 PPU:168,270 19185
ECE4  AD 47 06  LDA $0647 = $38                  A:B8 X:02 Y:B5 P:07 S:FB PPU:168,288 19191
ECE7  C9 38     CMP #$38                         A:38 X:02 Y:B5 P:05 S:FB PPU:168,300 19195
ECE9  F0 02     BEQ $ECED                        A:38 X:02 Y:B5 P:07 S:FB PPU:168,306 19197
ECED  A0 B6     LDY #$B6                         A:38 X:02 Y:B5 P:07 S:FB PPU:168,315 19200
ECEF  A2 FF     LDX #$FF                         A:38 X:02 Y:B6 P:85 S:FB PPU:168,321 19202
ECF1  A9 EB     LDA #$EB                         A:38 X:FF Y:B6 P:85 S:FB PPU:168,327 19204
ECF3  85 47     STA $47 = $38                    A:EB X:FF Y:B6 P:85 S:FB PPU:168,333 19206
ECF5  20 B1 FA  JSR $FAB1                        A:EB X:FF Y:B6 P:85 S:FB PPU:169,1   19209
FAB1  24 01     BIT $01 = $FF                    A:EB X:FF Y:B6 P:85 S:F9 PPU:169,19  19215
FAB3  18        CLC                              A:EB X:FF Y:B6 P:C5 S:F9 PPU:169,28  19218
FAB4  A9 40     LDA #$40                         A:EB X:FF Y:B6 P:C4 S:F9 PPU:169,34  19220
FAB6  60        RTS                              A:40 X:FF Y:B6 P:44 S:F9 PPU:169,40  19222
ECF8  F7 48     ISC $48,X = $EB                  A:40 X:FF Y:B6 P:44 S:FB PPU:169,58  19228
ECFA  EA        NOP                              A:53 X:FF Y:B6 P:04 S:FB PPU:169,76  19234
ECFB  EA        NOP                              A:53 X:FF Y:B6 P:04 S:FB PPU:169,82  19236
ECFC  EA        NOP                              A:53 X:FF Y:B6 P:04 S:FB PPU:169,88  19238
ECFD  EA        NOP                              A:53 X:FF Y:B6 P:04 S:FB PPU:169,94  19240
ECFE  20 B7 FA  JSR $FAB7                        A:53 X:FF Y:B6 P:04 S:FB PPU:169,100 19242
FAB7  70 2D     BVS $FAE6                        A:53 X:FF Y:B6 P:04 S:F9 PPU:169,118 19248
FAB9  B0 2B     BCS $FAE6                        A:53 X:FF Y:B6 P:04 S:F9 PPU:169,124 19250
FABB  30 29     BMI $FAE6                        A:53 X:FF Y:B6 P:04 S:F9 PPU:169,130 19252
FABD  C9 53     CMP #$53                         A:53 X:FF Y:B6 P:04 S:F9 PPU:169,136 19254
FABF  D0 25     BNE $FAE6                        A:53 X:FF Y:B6 P:07 S:F9 PPU:169,142 19256
FAC1  60        RTS                              A:53 X:FF Y:B6 P:07 S:F9 PPU:169,148 19258
ED01  A5 47     LDA $47 = $EC                    A:53 X:FF Y:B6 P:07 S:FB PPU:169,166 19264
ED03  C9 EC     CMP #$EC                         A:EC X:FF Y:B6 P:85 S:FB PPU:169,175 19267
ED05  F0 02     BEQ $ED09                        A:EC X:FF Y:B6 P:07 S:FB PPU:169,181 19269
ED09  C8        INY                              A:EC X:FF Y:B6 P:07 S:FB PPU:169,190 19272
ED0A  A9 FF     LDA #$FF                         A:EC X:FF Y:B7 P:85 S:FB PPU:169,196 19274
ED0C  85 47     STA $47 = $EC                    A:FF X:FF Y:B7 P:85 S:FB PPU:169,202 19276
ED0E  20 C2 FA  JSR $FAC2                        A:FF X:FF Y:B7 P:85 S:FB PPU:169,211 19279
FAC2  B8        CLV                              A:FF X:FF Y:B7 P:85 S:F9 PPU:169,229 19285
FAC3  38        SEC                              A:FF X:FF Y:B7 P:85 S:F9 PPU:169,235 19287
FAC4  A9 FF     LDA #$FF                         A:FF X:FF Y:B7 P:85 S:F9 PPU:169,241 19289
FAC6  60        RTS                              A:FF X:FF Y:B7 P:85 S:F9 PPU:169,247 19291
ED11  F7 48     ISC $48,X = $FF                  A:FF X:FF Y:B7 P:85 S:FB PPU:169,265 19297
ED13  EA        NOP                              A:FF X:FF Y:B7 P:85 S:FB PPU:169,283 19303
ED14  EA        NOP                              A:FF X:FF Y:B7 P:85 S:FB PPU:169,289 19305
ED15  EA        NOP                              A:FF X:FF Y:B7 P:85 S:FB PPU:169,295 19307
ED16  EA        NOP                              A:FF X:FF Y:B7 P:85 S:FB PPU:169,301 19309
ED17  20 C7 FA  JSR $FAC7                        A:FF X:FF Y:B7 P:85 S:FB PPU:169,307 19311
FAC7  70 1D     BVS $FAE6                        A:FF X:FF Y:B7 P:85 S:F9 PPU:169,325 19317
FAC9  F0 1B     BEQ $FAE6                        A:FF X:FF Y:B7 P:85 S:F9 PPU:169,331 19319
FACB  10 19     BPL $FAE6                        A:FF X:FF Y:B7 P:85 S:F9 PPU:169,337 19321
FACD  90 17     BCC $FAE6                        A:FF X:FF Y:B7 P:85 S:F9 PPU:170,2   19323
FACF  C9 FF     CMP #$FF                         A:FF X:FF Y:B7 P:85 S:F9 PPU:170,8   19325
FAD1  D0 13     BNE $FAE6                        A:FF X:FF Y:B7 P:07 S:F9 PPU:170,14  19327
FAD3  60        RTS                              A:FF X:FF Y:B7 P:07 S:F9 PPU:170,20  19329
ED1A  A5 47     LDA $47 = $00                    A:FF X:FF Y:B7 P:07 S:FB PPU:170,38  19335
ED1C  C9 00     CMP #$00                         A:00 X:FF Y:B7 P:07 S:FB PPU:170,47  19338
ED1E  F0 02     BEQ $ED22                        A:00 X:FF Y:B7 P:07 S:FB PPU:170,53  19340
ED22  C8        INY                              A:00 X:FF Y:B7 P:07 S:FB PPU:170,62  19343
ED23  A9 37     LDA #$37                         A:00 X:FF Y:B8 P:85 S:FB PPU:170,68  19345
ED25  85 47     STA $47 = $00                    A:37 X:FF Y:B8 P:05 S:FB PPU:170,74  19347
ED27  20 D4 FA  JSR $FAD4                        A:37 X:FF Y:B8 P:05 S:FB PPU:170,83  19350
FAD4  24 01     BIT $01 = $FF                    A:37 X:FF Y:B8 P:05 S:F9 PPU:170,101 19356
FAD6  38        SEC                              A:37 X:FF Y:B8 P:C5 S:F9 PPU:170,110 19359
FAD7  A9 F0     LDA #$F0                         A:37 X:FF Y:B8 P:C5 S:F9 PPU:170,116 19361
FAD9  60        RTS                              A:F0 X:FF Y:B8 P:C5 S:F9 PPU:170,122 19363
ED2A  F7 48     ISC $48,X = $37                  A:F0 X:FF Y:B8 P:C5 S:FB PPU:170,140 19369
ED2C  EA        NOP                              A:B8 X:FF Y:B8 P:85 S:FB PPU:170,158 19375
ED2D  EA        NOP                              A:B8 X:FF Y:B8 P:85 S:FB PPU:170,164 19377
ED2E  EA        NOP                              A:B8 X:FF Y:B8 P:85 S:FB PPU:170,170 19379
ED2F  EA        NOP                              A:B8 X:FF Y:B8 P:85 S:FB PPU:170,176 19381
ED30  20 DA FA  JSR $FADA                        A:B8 X:FF Y:B8 P:85 S:FB PPU:170,182 19383
FADA  70 0A     BVS $FAE6                        A:B8 X:FF Y:B8 P:85 S:F9 PPU:170,200 19389
FADC  F0 08     BEQ $FAE6                        A:B8 X:FF Y:B8 P:85 S:F9 PPU:170,206 19391
FADE  10 06     BPL $FAE6                        A:B8 X:FF Y:B8 P:85 S:F9 PPU:170,212 19393
FAE0  90 04     BCC $FAE6                        A:B8 X:FF Y:B8 P:85 S:F9 PPU:170,218 19395
FAE2  C9 B8     CMP #$B8                         A:B8 X:FF Y:B8 P:85 S:F9 PPU:170,224 19397
FAE4  F0 02     BEQ $FAE8                        A:B8 X:FF Y:B8 P:07 S:F9 PPU:170,230 19399
FAE8  60        RTS                              A:B8 X:FF Y:B8 P:07 S:F9 PPU:170,239 19402
ED33  A5 47     LDA $47 = $38                    A:B8 X:FF Y:B8 P:07 S:FB PPU:170,257 19408
ED35  C9 38     CMP #$38                         A:38 X:FF Y:B8 P:05 S:FB PPU:170,266 19411
ED37  F0 02     BEQ $ED3B                        A:38 X:FF Y:B8 P:07 S:FB PPU:170,272 19413
ED3B  A9 EB     LDA #$EB                         A:38 X:FF Y:B8 P:07 S:FB PPU:170,281 19416
ED3D  8D 47 06  STA $0647 = $38                  A:EB X:FF Y:B8 P:85 S:FB PPU:170,287 19418
ED40  A0 FF     LDY #$FF                         A:EB X:FF Y:B8 P:85 S:FB PPU:170,299 19422
ED42  20 B1 FA  JSR $FAB1                        A:EB X:FF Y:FF P:85 S:FB PPU:170,305 19424
FAB1  24 01     BIT $01 = $FF                    A:EB X:FF Y:FF P:85 S:F9 PPU:170,323 19430
FAB3  18        CLC                              A:EB X:FF Y:FF P:C5 S:F9 PPU:170,332 19433
FAB4  A9 40     LDA #$40                         A:EB X:FF Y:FF P:C4 S:F9 PPU:170,338 19435
FAB6  60        RTS                              A:40 X:FF Y:FF P:44 S:F9 PPU:171,3   19437
ED45  FB 48 05  ISC $0548,Y = $EB                A:40 X:FF Y:FF P:44 S:FB PPU:171,21  19443
ED48  EA        NOP                              A:53 X:FF Y:FF P:04 S:FB PPU:171,42  19450
ED49  EA        NOP                              A:53 X:FF Y:FF P:04 S:FB PPU:171,48  19452
ED4A  08        PHP                              A:53 X:FF Y:FF P:04 S:FB PPU:171,54  19454
ED4B  48        PHA                              A:53 X:FF Y:FF P:04 S:FA PPU:171,63  19457
ED4C  A0 B9     LDY #$B9                         A:53 X:FF Y:FF P:04 S:F9 PPU:171,72  19460
ED4E  68        PLA                              A:53 X:FF Y:B9 P:84 S:F9 PPU:171,78  19462
ED4F  28        PLP                              A:53 X:FF Y:B9 P:04 S:FA PPU:171,90  19466
ED50  20 B7 FA  JSR $FAB7                        A:53 X:FF Y:B9 P:04 S:FB PPU:171,102 19470
FAB7  70 2D     BVS $FAE6                        A:53 X:FF Y:B9 P:04 S:F9 PPU:171,120 19476
FAB9  B0 2B     BCS $FAE6                        A:53 X:FF Y:B9 P:04 S:F9 PPU:171,126 19478
FABB  30 29     BMI $FAE6                        A:53 X:FF Y:B9 P:04 S:F9 PPU:171,132 19480
FABD  C9 53     CMP #$53                         A:53 X:FF Y:B9 P:04 S:F9 PPU:171,138 19482
FABF  D0 25     BNE $FAE6                        A:53 X:FF Y:B9 P:07 S:F9 PPU:171,144 19484
FAC1  60        RTS                              A:53 X:FF Y:B9 P:07 S:F9 PPU:171,150 19486
ED53  AD 47 06  LDA $0647 = $EC                  A:53 X:FF Y:B9 P:07 S:FB PPU:171,168 19492
ED56  C9 EC     CMP #$EC                         A:EC X:FF Y:B9 P:85 S:FB PPU:171,180 19496
ED58  F0 02     BEQ $ED5C                        A:EC X:FF Y:B9 P:07 S:FB PPU:171,186 19498
ED5C  A0 FF     LDY #$FF                         A:EC X:FF Y:B9 P:07 S:FB PPU:171,195 19501
ED5E  A9 FF     LDA #$FF                         A:EC X:FF Y:FF P:85 S:FB PPU:171,201 19503
ED60  8D 47 06  STA $0647 = $EC                  A:FF X:FF Y:FF P:85 S:FB PPU:171,207 19505
ED63  20 C2 FA  JSR $FAC2                        A:FF X:FF Y:FF P:85 S:FB PPU:171,219 19509
FAC2  B8        CLV                              A:FF X:FF Y:FF P:85 S:F9 PPU:171,237 19515
FAC3  38        SEC                              A:FF X:FF Y:FF P:85 S:F9 PPU:171,243 19517
FAC4  A9 FF     LDA #$FF                         A:FF X:FF Y:FF P:85 S:F9 PPU:171,249 19519
FAC6  60        RTS                              A:FF X:FF Y:FF P:85 S:F9 PPU:171,255 19521
ED66  FB 48 05  ISC $0548,Y = $FF                A:FF X:FF Y:FF P:85 S:FB PPU:171,273 19527
ED69  EA        NOP                              A:FF X:FF Y:FF P:85 S:FB PPU:171,294 19534
ED6A  EA        NOP                              A:FF X:FF Y:FF P:85 S:FB PPU:171,300 19536
ED6B  08        PHP                              A:FF X:FF Y:FF P:85 S:FB PPU:171,306 19538
ED6C  48        PHA                              A:FF X:FF Y:FF P:85 S:FA PPU:171,315 19541
ED6D  A0 BA     LDY #$BA                         A:FF X:FF Y:FF P:85 S:F9 PPU:171,324 19544
ED6F  68        PLA                              A:FF X:FF Y:BA P:85 S:F9 PPU:171,330 19546
ED70  28        PLP                              A:FF X:FF Y:BA P:85 S:FA PPU:172,1   19550
ED71  20 C7 FA  JSR $FAC7                        A:FF X:FF Y:BA P:85 S:FB PPU:172,13  19554
FAC7  70 1D     BVS $FAE6                        A:FF X:FF Y:BA P:85 S:F9 PPU:172,31  19560
FAC9  F0 1B     BEQ $FAE6                        A:FF X:FF Y:BA P:85 S:F9 PPU:172,37  19562
FACB  10 19     BPL $FAE6                        A:FF X:FF Y:BA P:85 S:F9 PPU:172,43  19564
FACD  90 17     BCC $FAE6                        A:FF X:FF Y:BA P:85 S:F9 PPU:172,49  19566
FACF  C9 FF     CMP #$FF                         A:FF X:FF Y:BA P:85 S:F9 PPU:172,55  19568
FAD1  D0 13     BNE $FAE6                        A:FF X:FF Y:BA P:07 S:F9 PPU:172,61  19570
FAD3  60        RTS                              A:FF X:FF Y:BA P:07 S:F9 PPU:172,67  19572
ED74  AD 47 06  LDA $0647 = $00                  A:FF X:FF Y:BA P:07 S:FB PPU:172,85  19578
ED77  C9 00     CMP #$00                         A:00 X:FF Y:BA P:07 S:FB PPU:172,97  19582
ED79  F0 02     BEQ $ED7D                        A:00 X:FF Y:BA P:07 S:FB PPU:172,103 19584
ED7D  A0 FF     LDY #$FF                         A:00 X:FF Y:BA P:07 S:FB PPU:172,112 19587
ED7F  A9 37     LDA #$37                         A:00 X:FF Y:FF P:85 S:FB PPU:172,118 19589
ED81  8D 47 06  STA $0647 = $00                  A:37 X:FF Y:FF P:05 S:FB PPU:172,124 19591
ED84  20 D4 FA  JSR $FAD4                        A:37 X:FF Y:FF P:05 S:FB PPU:172,136 19595
FAD4  24 01     BIT $01 = $FF                    A:37 X:FF Y:FF P:05 S:F9 PPU:172,154 19601
FAD6  38        SEC                              A:37 X:FF Y:FF P:C5 S:F9 PPU:172,163 19604
FAD7  A9 F0     LDA #$F0                         A:37 X:FF Y:FF P:C5 S:F9 PPU:172,169 19606
FAD9  60        RTS                              A:F0 X:FF Y:FF P:C5 S:F9 PPU:172,175 19608
ED87  FB 48 05  ISC $0548,Y = $37                A:F0 X:FF Y:FF P:C5 S:FB PPU:172,193 19614
ED8A  EA        NOP                              A:B8 X:FF Y:FF P:85 S:FB PPU:172,214 19621
ED8B  EA        NOP                              A:B8 X:FF Y:FF P:85 S:FB PPU:172,220 19623
ED8C  08        PHP                              A:B8 X:FF Y:FF P:85 S:FB PPU:172,226 19625
ED8D  48        PHA                              A:B8 X:FF Y:FF P:85 S:FA PPU:172,235 19628
ED8E  A0 BB     LDY #$BB                         A:B8 X:FF Y:FF P:85 S:F9 PPU:172,244 19631
ED90  68        PLA                              A:B8 X:FF Y:BB P:85 S:F9 PPU:172,250 19633
ED91  28        PLP                              A:B8 X:FF Y:BB P:85 S:FA PPU:172,262 19637
ED92  20 DA FA  JSR $FADA                        A:B8 X:FF Y:BB P:85 S:FB PPU:172,274 19641
FADA  70 0A     BVS $FAE6                        A:B8 X:FF Y:BB P:85 S:F9 PPU:172,292 19647
FADC  F0 08     BEQ $FAE6                        A:B8 X:FF Y:BB P:85 S:F9 PPU:172,298 19649
FADE  10 06     BPL $FAE6                        A:B8 X:FF Y:BB P:85 S:F9 PPU:172,304 19651
FAE0  90 04     BCC $FAE6                        A:B8 X:FF Y:BB P:85 S:F9 PPU:172,310 19653
FAE2  C9 B8     CMP #$B8                         A:B8 X:FF Y:BB P:85 S:F9 PPU:172,316 19655
FAE4  F0 02     BEQ $FAE8                        A:B8 X:FF Y:BB P:07 S:F9 PPU:172,322 19657
FAE8  60        RTS                              A:B8 X:FF Y:BB P:07 S:F9 PPU:172,331 19660
ED95  AD 47 06  LDA $0647 = $38                  A:B8 X:FF Y:BB P:07 S:FB PPU:173,8   19666
ED98  C9 38     CMP #$38                         A:38 X:FF Y:BB P:05 S:FB PPU:173,20  19670
ED9A  F0 02     BEQ $ED9E                        A:38 X:FF Y:BB P:07 S:FB PPU:173,26  19672
ED9E  A0 BC     LDY #$BC                         A:38 X:FF Y:BB P:07 S:FB PPU:173,35  19675
EDA0  A2 FF     LDX #$FF                         A:38 X:FF Y:BC P:85 S:FB PPU:173,41  19677
EDA2  A9 EB     LDA #$EB                         A:38 X:FF Y:BC P:85 S:FB PPU:173,47  19679
EDA4  8D 47 06  STA $0647 = $38                  A:EB X:FF Y:BC P:85 S:FB PPU:173,53  19681
EDA7  20 B1 FA  JSR $FAB1                        A:EB X:FF Y:BC P:85 S:FB PPU:173,65  19685
FAB1  24 01     BIT $01 = $FF                    A:EB X:FF Y:BC P:85 S:F9 PPU:173,83  19691
FAB3  18        CLC                              A:EB X:FF Y:BC P:C5 S:F9 PPU:173,92  19694
FAB4  A9 40     LDA #$40                         A:EB X:FF Y:BC P:C4 S:F9 PPU:173,98  19696
FAB6  60        RTS                              A:40 X:FF Y:BC P:44 S:F9 PPU:173,104 19698
EDAA  FF 48 05  ISC $0548,X = $EB                A:40 X:FF Y:BC P:44 S:FB PPU:173,122 19704
EDAD  EA        NOP                              A:53 X:FF Y:BC P:04 S:FB PPU:173,143 19711
EDAE  EA        NOP                              A:53 X:FF Y:BC P:04 S:FB PPU:173,149 19713
EDAF  EA        NOP                              A:53 X:FF Y:BC P:04 S:FB PPU:173,155 19715
EDB0  EA        NOP                              A:53 X:FF Y:BC P:04 S:FB PPU:173,161 19717
EDB1  20 B7 FA  JSR $FAB7                        A:53 X:FF Y:BC P:04 S:FB PPU:173,167 19719
FAB7  70 2D     BVS $FAE6                        A:53 X:FF Y:BC P:04 S:F9 PPU:173,185 19725
FAB9  B0 2B     BCS $FAE6                        A:53 X:FF Y:BC P:04 S:F9 PPU:173,191 19727
FABB  30 29     BMI $FAE6                        A:53 X:FF Y:BC P:04 S:F9 PPU:173,197 19729
FABD  C9 53     CMP #$53                         A:53 X:FF Y:BC P:04 S:F9 PPU:173,203 19731
FABF  D0 25     BNE $FAE6                        A:53 X:FF Y:BC P:07 S:F9 PPU:173,209 19733
FAC1  60        RTS                              A:53 X:FF Y:BC P:07 S:F9 PPU:173,215 19735
EDB4  AD 47 06  LDA $0647 = $EC                  A:53 X:FF Y:BC P:07 S:FB PPU:173,233 19741
EDB7  C9 EC     CMP #$EC                         A:EC X:FF Y:BC P:85 S:FB PPU:173,245 19745
EDB9  F0 02     BEQ $EDBD                        A:EC X:FF Y:BC P:07 S:FB PPU:173,251 19747
EDBD  C8        INY                              A:EC X:FF Y:BC P:07 S:FB PPU:173,260 19750
EDBE  A9 FF     LDA #$FF                         A:EC X:FF Y:BD P:85 S:FB PPU:173,266 19752
EDC0  8D 47 06  STA $0647 = $EC                  A:FF X:FF Y:BD P:85 S:FB PPU:173,272 19754
EDC3  20 C2 FA  JSR $FAC2                        A:FF X:FF Y:BD P:85 S:FB PPU:173,284 19758
FAC2  B8        CLV                              A:FF X:FF Y:BD P:85 S:F9 PPU:173,302 19764
FAC3  38        SEC                              A:FF X:FF Y:BD P:85 S:F9 PPU:173,308 19766
FAC4  A9 FF     LDA #$FF                         A:FF X:FF Y:BD P:85 S:F9 PPU:173,314 19768
FAC6  60        RTS                              A:FF X:FF Y:BD P:85 S:F9 PPU:173,320 19770
EDC6  FF 48 05  ISC $0548,X = $FF                A:FF X:FF Y:BD P:85 S:FB PPU:173,338 19776
EDC9  EA        NOP                              A:FF X:FF Y:BD P:85 S:FB PPU:174,18  19783
EDCA  EA        NOP                              A:FF X:FF Y:BD P:85 S:FB PPU:174,24  19785
EDCB  EA        NOP                              A:FF X:FF Y:BD P:85 S:FB PPU:174,30  19787
EDCC  EA        NOP                              A:FF X:FF Y:BD P:85 S:FB PPU:174,36  19789
EDCD  20 C7 FA  JSR $FAC7                        A:FF X:FF Y:BD P:85 S:FB PPU:174,42  19791
FAC7  70 1D     BVS $FAE6                        A:FF X:FF Y:BD P:85 S:F9 PPU:174,60  19797
FAC9  F0 1B     BEQ $FAE6                        A:FF X:FF Y:BD P:85 S:F9 PPU:174,66  19799
FACB  10 19     BPL $FAE6                        A:FF X:FF Y:BD P:85 S:F9 PPU:174,72  19801
FACD  90 17     BCC $FAE6                        A:FF X:FF Y:BD P:85 S:F9 PPU:174,78  19803
FACF  C9 FF     CMP #$FF                         A:FF X:FF Y:BD P:85 S:F9 PPU:174,84  19805
FAD1  D0 13     BNE $FAE6                        A:FF X:FF Y:BD P:07 S:F9 PPU:174,90  19807
FAD3  60        RTS                              A:FF X:FF Y:BD P:07 S:F9 PPU:174,96  19809
EDD0  AD 47 06  LDA $0647 = $00                  A:FF X:FF Y:BD P:07 S:FB PPU:174,114 19815
EDD3  C9 00     CMP #$00                         A:00 X:FF Y:BD P:07 S:FB PPU:174,126 19819
EDD5  F0 02     BEQ $EDD9                        A:00 X:FF Y:BD P:07 S:FB PPU:174,132 19821
EDD9  C8        INY                              A:00 X:FF Y:BD P:07 S:FB PPU:174,141 19824
EDDA  A9 37     LDA #$37                         A:00 X:FF Y:BE P:85 S:FB PPU:174,147 19826
EDDC  8D 47 06  STA $0647 = $00                  A:37 X:FF Y:BE P:05 S:FB PPU:174,153 19828
EDDF  20 D4 FA  JSR $FAD4                        A:37 X:FF Y:BE P:05 S:FB PPU:174,165 19832
FAD4  24 01     BIT $01 = $FF                    A:37 X:FF Y:BE P:05 S:F9 PPU:174,183 19838
FAD6  38        SEC                              A:37 X:FF Y:BE P:C5 S:F9 PPU:174,192 19841
FAD7  A9 F0     LDA #$F0                         A:37 X:FF Y:BE P:C5 S:F9 PPU:174,198 19843
FAD9  60        RTS                              A:F0 X:FF Y:BE P:C5 S:F9 PPU:174,204 19845
EDE2  FF 48 05  ISC $0548,X = $37                A:F0 X:FF Y:BE P:C5 S:FB PPU:174,222 19851
EDE5  EA        NOP                              A:B8 X:FF Y:BE P:85 S:FB PPU:174,243 19858
EDE6  EA        NOP                              A:B8 X:FF Y:BE P:85 S:FB PPU:174,249 19860
EDE7  EA        NOP                              A:B8 X:FF Y:BE P:85 S:FB PPU:174,255 19862
EDE8  EA        NOP                              A:B8 X:FF Y:BE P:85 S:FB PPU:174,261 19864
EDE9  20 DA FA  JSR $FADA                        A:B8 X:FF Y:BE P:85 S:FB PPU:174,267 19866
FADA  70 0A     BVS $FAE6                        A:B8 X:FF Y:BE P:85 S:F9 PPU:174,285 19872
FADC  F0 08     BEQ $FAE6                        A:B8 X:FF Y:BE P:85 S:F9 PPU:174,291 19874
FADE  10 06     BPL $FAE6                        A:B8 X:FF Y:BE P:85 S:F9 PPU:174,297 19876
FAE0  90 04     BCC $FAE6                        A:B8 X:FF Y:BE P:85 S:F9 PPU:174,303 19878
FAE2  C9 B8     CMP #$B8                         A:B8 X:FF Y:BE P:85 S:F9 PPU:174,309 19880
FAE4  F0 02     BEQ $FAE8                        A:B8 X:FF Y:BE P:07 S:F9 PPU:174,315 19882
FAE8  60        RTS                              A:B8 X:FF Y:BE P:07 S:F9 PPU:174,324 19885
EDEC  AD 47 06  LDA $0647 = $38                  A:B8 X:FF Y:BE P:07 S:FB PPU:175,1   19891
EDEF  C9 38     CMP #$38                         A:38 X:FF Y:BE P:05 S:FB PPU:175,13  19895
EDF1  F0 02     BEQ $EDF5                        A:38 X:FF Y:BE P:07 S:FB PPU:175,19  19897
EDF5  60        RTS                              A:38 X:FF Y:BE P:07 S:FB PPU:175,28  19900
C641  20 F6 ED  JSR $EDF6                        A:38 X:FF Y:BE P:07 S:FD PPU:175,46  19906
EDF6  A9 FF     LDA #$FF                         A:38 X:FF Y:BE P:07 S:FB PPU:175,64  19912
EDF8  85 01     STA $01 = $FF                    A:FF X:FF Y:BE P:85 S:FB PPU:175,70  19914
EDFA  A0 BF     LDY #$BF                         A:FF X:FF Y:BE P:85 S:FB PPU:175,79  19917
EDFC  A2 02     LDX #$02                         A:FF X:FF Y:BF P:85 S:FB PPU:175,85  19919
EDFE  A9 47     LDA #$47                         A:FF X:02 Y:BF P:05 S:FB PPU:175,91  19921
EE00  85 47     STA $47 = $38                    A:47 X:02 Y:BF P:05 S:FB PPU:175,97  19923
EE02  A9 06     LDA #$06                         A:47 X:02 Y:BF P:05 S:FB PPU:175,106 19926
EE04  85 48     STA $48 = $06                    A:06 X:02 Y:BF P:05 S:FB PPU:175,112 19928
EE06  A9 A5     LDA #$A5                         A:06 X:02 Y:BF P:05 S:FB PPU:175,121 19931
EE08  8D 47 06  STA $0647 = $38                  A:A5 X:02 Y:BF P:85 S:FB PPU:175,127 19933
EE0B  20 7B FA  JSR $FA7B                        A:A5 X:02 Y:BF P:85 S:FB PPU:175,139 19937
FA7B  24 01     BIT $01 = $FF                    A:A5 X:02 Y:BF P:85 S:F9 PPU:175,157 19943
FA7D  18        CLC                              A:A5 X:02 Y:BF P:C5 S:F9 PPU:175,166 19946
FA7E  A9 B3     LDA #$B3                         A:A5 X:02 Y:BF P:C4 S:F9 PPU:175,172 19948
FA80  60        RTS                              A:B3 X:02 Y:BF P:C4 S:F9 PPU:175,178 19950
EE0E  03 45     SLO ($45,X) = $A5                A:B3 X:02 Y:BF P:C4 S:FB PPU:175,196 19956
EE10  EA        NOP                              A:FB X:02 Y:BF P:C5 S:FB PPU:175,220 19964
EE11  EA        NOP                              A:FB X:02 Y:BF P:C5 S:FB PPU:175,226 19966
EE12  EA        NOP                              A:FB X:02 Y:BF P:C5 S:FB PPU:175,232 19968
EE13  EA        NOP                              A:FB X:02 Y:BF P:C5 S:FB PPU:175,238 19970
EE14  20 81 FA  JSR $FA81                        A:FB X:02 Y:BF P:C5 S:FB PPU:175,244 19972
FA81  50 63     BVC $FAE6                        A:FB X:02 Y:BF P:C5 S:F9 PPU:175,262 19978
FA83  90 61     BCC $FAE6                        A:FB X:02 Y:BF P:C5 S:F9 PPU:175,268 19980
FA85  10 5F     BPL $FAE6                        A:FB X:02 Y:BF P:C5 S:F9 PPU:175,274 19982
FA87  C9 FB     CMP #$FB                         A:FB X:02 Y:BF P:C5 S:F9 PPU:175,280 19984
FA89  D0 5B     BNE $FAE6                        A:FB X:02 Y:BF P:47 S:F9 PPU:175,286 19986
FA8B  60        RTS                              A:FB X:02 Y:BF P:47 S:F9 PPU:175,292 19988
EE17  AD 47 06  LDA $0647 = $4A                  A:FB X:02 Y:BF P:47 S:FB PPU:175,310 19994
EE1A  C9 4A     CMP #$4A                         A:4A X:02 Y:BF P:45 S:FB PPU:175,322 19998
EE1C  F0 02     BEQ $EE20                        A:4A X:02 Y:BF P:47 S:FB PPU:175,328 20000
EE20  C8        INY                              A:4A X:02 Y:BF P:47 S:FB PPU:175,337 20003
EE21  A9 29     LDA #$29                         A:4A X:02 Y:C0 P:C5 S:FB PPU:176,2   20005
EE23  8D 47 06  STA $0647 = $4A                  A:29 X:02 Y:C0 P:45 S:FB PPU:176,8   20007
EE26  20 8C FA  JSR $FA8C                        A:29 X:02 Y:C0 P:45 S:FB PPU:176,20  20011
FA8C  B8        CLV                              A:29 X:02 Y:C0 P:45 S:F9 PPU:176,38  20017
FA8D  18        CLC                              A:29 X:02 Y:C0 P:05 S:F9 PPU:176,44  20019
FA8E  A9 C3     LDA #$C3                         A:29 X:02 Y:C0 P:04 S:F9 PPU:176,50  20021
FA90  60        RTS                              A:C3 X:02 Y:C0 P:84 S:F9 PPU:176,56  20023
EE29  03 45     SLO ($45,X) = $29                A:C3 X:02 Y:C0 P:84 S:FB PPU:176,74  20029
EE2B  EA        NOP                              A:D3 X:02 Y:C0 P:84 S:FB PPU:176,98  20037
EE2C  EA        NOP                              A:D3 X:02 Y:C0 P:84 S:FB PPU:176,104 20039
EE2D  EA        NOP                              A:D3 X:02 Y:C0 P:84 S:FB PPU:176,110 20041
EE2E  EA        NOP                              A:D3 X:02 Y:C0 P:84 S:FB PPU:176,116 20043
EE2F  20 91 FA  JSR $FA91                        A:D3 X:02 Y:C0 P:84 S:FB PPU:176,122 20045
FA91  70 53     BVS $FAE6                        A:D3 X:02 Y:C0 P:84 S:F9 PPU:176,140 20051
FA93  F0 51     BEQ $FAE6                        A:D3 X:02 Y:C0 P:84 S:F9 PPU:176,146 20053
FA95  10 4F     BPL $FAE6                        A:D3 X:02 Y:C0 P:84 S:F9 PPU:176,152 20055
FA97  B0 4D     BCS $FAE6                        A:D3 X:02 Y:C0 P:84 S:F9 PPU:176,158 20057
FA99  C9 D3     CMP #$D3                         A:D3 X:02 Y:C0 P:84 S:F9 PPU:176,164 20059
FA9B  D0 49     BNE $FAE6                        A:D3 X:02 Y:C0 P:07 S:F9 PPU:176,170 20061
FA9D  60        RTS                              A:D3 X:02 Y:C0 P:07 S:F9 PPU:176,176 20063
EE32  AD 47 06  LDA $0647 = $52                  A:D3 X:02 Y:C0 P:07 S:FB PPU:176,194 20069
EE35  C9 52     CMP #$52                         A:52 X:02 Y:C0 P:05 S:FB PPU:176,206 20073
EE37  F0 02     BEQ $EE3B                        A:52 X:02 Y:C0 P:07 S:FB PPU:176,212 20075
EE3B  C8        INY                              A:52 X:02 Y:C0 P:07 S:FB PPU:176,221 20078
EE3C  A9 37     LDA #$37                         A:52 X:02 Y:C1 P:85 S:FB PPU:176,227 20080
EE3E  8D 47 06  STA $0647 = $52                  A:37 X:02 Y:C1 P:05 S:FB PPU:176,233 20082
EE41  20 9E FA  JSR $FA9E                        A:37 X:02 Y:C1 P:05 S:FB PPU:176,245 20086
FA9E  24 01     BIT $01 = $FF                    A:37 X:02 Y:C1 P:05 S:F9 PPU:176,263 20092
FAA0  38        SEC                              A:37 X:02 Y:C1 P:C5 S:F9 PPU:176,272 20095
FAA1  A9 10     LDA #$10                         A:37 X:02 Y:C1 P:C5 S:F9 PPU:176,278 20097
FAA3  60        RTS                              A:10 X:02 Y:C1 P:45 S:F9 PPU:176,284 20099
EE44  03 45     SLO ($45,X) = $37                A:10 X:02 Y:C1 P:45 S:FB PPU:176,302 20105
EE46  EA        NOP                              A:7E X:02 Y:C1 P:44 S:FB PPU:176,326 20113
EE47  EA        NOP                              A:7E X:02 Y:C1 P:44 S:FB PPU:176,332 20115
EE48  EA        NOP                              A:7E X:02 Y:C1 P:44 S:FB PPU:176,338 20117
EE49  EA        NOP                              A:7E X:02 Y:C1 P:44 S:FB PPU:177,3   20119
EE4A  20 A4 FA  JSR $FAA4                        A:7E X:02 Y:C1 P:44 S:FB PPU:177,9   20121
FAA4  50 40     BVC $FAE6                        A:7E X:02 Y:C1 P:44 S:F9 PPU:177,27  20127
FAA6  F0 3E     BEQ $FAE6                        A:7E X:02 Y:C1 P:44 S:F9 PPU:177,33  20129
FAA8  30 3C     BMI $FAE6                        A:7E X:02 Y:C1 P:44 S:F9 PPU:177,39  20131
FAAA  B0 3A     BCS $FAE6                        A:7E X:02 Y:C1 P:44 S:F9 PPU:177,45  20133
FAAC  C9 7E     CMP #$7E                         A:7E X:02 Y:C1 P:44 S:F9 PPU:177,51  20135
FAAE  D0 36     BNE $FAE6                        A:7E X:02 Y:C1 P:47 S:F9 PPU:177,57  20137
FAB0  60        RTS                              A:7E X:02 Y:C1 P:47 S:F9 PPU:177,63  20139
EE4D  AD 47 06  LDA $0647 = $6E                  A:7E X:02 Y:C1 P:47 S:FB PPU:177,81  20145
EE50  C9 6E     CMP #$6E                         A:6E X:02 Y:C1 P:45 S:FB PPU:177,93  20149
EE52  F0 02     BEQ $EE56                        A:6E X:02 Y:C1 P:47 S:FB PPU:177,99  20151
EE56  C8        INY                              A:6E X:02 Y:C1 P:47 S:FB PPU:177,108 20154
EE57  A9 A5     LDA #$A5                         A:6E X:02 Y:C2 P:C5 S:FB PPU:177,114 20156
EE59  85 47     STA $47 = $47                    A:A5 X:02 Y:C2 P:C5 S:FB PPU:177,120 20158
EE5B  20 7B FA  JSR $FA7B                        A:A5 X:02 Y:C2 P:C5 S:FB PPU:177,129 20161
FA7B  24 01     BIT $01 = $FF                    A:A5 X:02 Y:C2 P:C5 S:F9 PPU:177,147 20167
FA7D  18        CLC                              A:A5 X:02 Y:C2 P:C5 S:F9 PPU:177,156 20170
FA7E  A9 B3     LDA #$B3                         A:A5 X:02 Y:C2 P:C4 S:F9 PPU:177,162 20172
FA80  60        RTS                              A:B3 X:02 Y:C2 P:C4 S:F9 PPU:177,168 20174
EE5E  07 47     SLO $47 = $A5                    A:B3 X:02 Y:C2 P:C4 S:FB PPU:177,186 20180
EE60  EA        NOP                              A:FB X:02 Y:C2 P:C5 S:FB PPU:177,201 20185
EE61  EA        NOP                              A:FB X:02 Y:C2 P:C5 S:FB PPU:177,207 20187
EE62  EA        NOP                              A:FB X:02 Y:C2 P:C5 S:FB PPU:177,213 20189
EE63  EA        NOP                              A:FB X:02 Y:C2 P:C5 S:FB PPU:177,219 20191
EE64  20 81 FA  JSR $FA81                        A:FB X:02 Y:C2 P:C5 S:FB PPU:177,225 20193
FA81  50 63     BVC $FAE6                        A:FB X:02 Y:C2 P:C5 S:F9 PPU:177,243 20199
FA83  90 61     BCC $FAE6                        A:FB X:02 Y:C2 P:C5 S:F9 PPU:177,249 20201
FA85  10 5F     BPL $FAE6                        A:FB X:02 Y:C2 P:C5 S:F9 PPU:177,255 20203
FA87  C9 FB     CMP #$FB                         A:FB X:02 Y:C2 P:C5 S:F9 PPU:177,261 20205
FA89  D0 5B     BNE $FAE6                        A:FB X:02 Y:C2 P:47 S:F9 PPU:177,267 20207
FA8B  60        RTS                              A:FB X:02 Y:C2 P:47 S:F9 PPU:177,273 20209
EE67  A5 47     LDA $47 = $4A                    A:FB X:02 Y:C2 P:47 S:FB PPU:177,291 20215
EE69  C9 4A     CMP #$4A                         A:4A X:02 Y:C2 P:45 S:FB PPU:177,300 20218
EE6B  F0 02     BEQ $EE6F                        A:4A X:02 Y:C2 P:47 S:FB PPU:177,306 20220
EE6F  C8        INY                              A:4A X:02 Y:C2 P:47 S:FB PPU:177,315 20223
EE70  A9 29     LDA #$29                         A:4A X:02 Y:C3 P:C5 S:FB PPU:177,321 20225
EE72  85 47     STA $47 = $4A                    A:29 X:02 Y:C3 P:45 S:FB PPU:177,327 20227
EE74  20 8C FA  JSR $FA8C                        A:29 X:02 Y:C3 P:45 S:FB PPU:177,336 20230
FA8C  B8        CLV                              A:29 X:02 Y:C3 P:45 S:F9 PPU:178,13  20236
FA8D  18        CLC                              A:29 X:02 Y:C3 P:05 S:F9 PPU:178,19  20238
FA8E  A9 C3     LDA #$C3                         A:29 X:02 Y:C3 P:04 S:F9 PPU:178,25  20240
FA90  60        RTS                              A:C3 X:02 Y:C3 P:84 S:F9 PPU:178,31  20242
EE77  07 47     SLO $47 = $29                    A:C3 X:02 Y:C3 P:84 S:FB PPU:178,49  20248
EE79  EA        NOP                              A:D3 X:02 Y:C3 P:84 S:FB PPU:178,64  20253
EE7A  EA        NOP                              A:D3 X:02 Y:C3 P:84 S:FB PPU:178,70  20255
EE7B  EA        NOP                              A:D3 X:02 Y:C3 P:84 S:FB PPU:178,76  20257
EE7C  EA        NOP                              A:D3 X:02 Y:C3 P:84 S:FB PPU:178,82  20259
EE7D  20 91 FA  JSR $FA91                        A:D3 X:02 Y:C3 P:84 S:FB PPU:178,88  20261
FA91  70 53     BVS $FAE6                        A:D3 X:02 Y:C3 P:84 S:F9 PPU:178,106 20267
FA93  F0 51     BEQ $FAE6                        A:D3 X:02 Y:C3 P:84 S:F9 PPU:178,112 20269
FA95  10 4F     BPL $FAE6                        A:D3 X:02 Y:C3 P:84 S:F9 PPU:178,118 20271
FA97  B0 4D     BCS $FAE6                        A:D3 X:02 Y:C3 P:84 S:F9 PPU:178,124 20273
FA99  C9 D3     CMP #$D3                         A:D3 X:02 Y:C3 P:84 S:F9 PPU:178,130 20275
FA9B  D0 49     BNE $FAE6                        A:D3 X:02 Y:C3 P:07 S:F9 PPU:178,136 20277
FA9D  60        RTS                              A:D3 X:02 Y:C3 P:07 S:F9 PPU:178,142 20279
EE80  A5 47     LDA $47 = $52                    A:D3 X:02 Y:C3 P:07 S:FB PPU:178,160 20285
EE82  C9 52     CMP #$52                         A:52 X:02 Y:C3 P:05 S:FB PPU:178,169 20288
EE84  F0 02     BEQ $EE88                        A:52 X:02 Y:C3 P:07 S:FB PPU:178,175 20290
EE88  C8        INY                              A:52 X:02 Y:C3 P:07 S:FB PPU:178,184 20293
EE89  A9 37     LDA #$37                         A:52 X:02 Y:C4 P:85 S:FB PPU:178,190 20295
EE8B  85 47     STA $47 = $52                    A:37 X:02 Y:C4 P:05 S:FB PPU:178,196 20297
EE8D  20 9E FA  JSR $FA9E                        A:37 X:02 Y:C4 P:05 S:FB PPU:178,205 20300
FA9E  24 01     BIT $01 = $FF                    A:37 X:02 Y:C4 P:05 S:F9 PPU:178,223 20306
FAA0  38        SEC                              A:37 X:02 Y:C4 P:C5 S:F9 PPU:178,232 20309
FAA1  A9 10     LDA #$10                         A:37 X:02 Y:C4 P:C5 S:F9 PPU:178,238 20311
FAA3  60        RTS                              A:10 X:02 Y:C4 P:45 S:F9 PPU:178,244 20313
EE90  07 47     SLO $47 = $37                    A:10 X:02 Y:C4 P:45 S:FB PPU:178,262 20319
EE92  EA        NOP                              A:7E X:02 Y:C4 P:44 S:FB PPU:178,277 20324
EE93  EA        NOP                              A:7E X:02 Y:C4 P:44 S:FB PPU:178,283 20326
EE94  EA        NOP                              A:7E X:02 Y:C4 P:44 S:FB PPU:178,289 20328
EE95  EA        NOP                              A:7E X:02 Y:C4 P:44 S:FB PPU:178,295 20330
EE96  20 A4 FA  JSR $FAA4                        A:7E X:02 Y:C4 P:44 S:FB PPU:178,301 20332
FAA4  50 40     BVC $FAE6                        A:7E X:02 Y:C4 P:44 S:F9 PPU:178,319 20338
FAA6  F0 3E     BEQ $FAE6                        A:7E X:02 Y:C4 P:44 S:F9 PPU:178,325 20340
FAA8  30 3C     BMI $FAE6                        A:7E X:02 Y:C4 P:44 S:F9 PPU:178,331 20342
FAAA  B0 3A     BCS $FAE6                        A:7E X:02 Y:C4 P:44 S:F9 PPU:178,337 20344
FAAC  C9 7E     CMP #$7E                         A:7E X:02 Y:C4 P:44 S:F9 PPU:179,2   20346
FAAE  D0 36     BNE $FAE6                        A:7E X:02 Y:C4 P:47 S:F9 PPU:179,8   20348
FAB0  60        RTS                              A:7E X:02 Y:C4 P:47 S:F9 PPU:179,14  20350
EE99  A5 47     LDA $47 = $6E                    A:7E X:02 Y:C4 P:47 S:FB PPU:179,32  20356
EE9B  C9 6E     CMP #$6E                         A:6E X:02 Y:C4 P:45 S:FB PPU:179,41  20359
EE9D  F0 02     BEQ $EEA1                        A:6E X:02 Y:C4 P:47 S:FB PPU:179,47  20361
EEA1  C8        INY                              A:6E X:02 Y:C4 P:47 S:FB PPU:179,56  20364
EEA2  A9 A5     LDA #$A5                         A:6E X:02 Y:C5 P:C5 S:FB PPU:179,62  20366
EEA4  8D 47 06  STA $0647 = $6E                  A:A5 X:02 Y:C5 P:C5 S:FB PPU:179,68  20368
EEA7  20 7B FA  JSR $FA7B                        A:A5 X:02 Y:C5 P:C5 S:FB PPU:179,80  20372
FA7B  24 01     BIT $01 = $FF                    A:A5 X:02 Y:C5 P:C5 S:F9 PPU:179,98  20378
FA7D  18        CLC                              A:A5 X:02 Y:C5 P:C5 S:F9 PPU:179,107 20381
FA7E  A9 B3     LDA #$B3                         A:A5 X:02 Y:C5 P:C4 S:F9 PPU:179,113 20383
FA80  60        RTS                              A:B3 X:02 Y:C5 P:C4 S:F9 PPU:179,119 20385
EEAA  0F 47 06  SLO $0647 = $A5                  A:B3 X:02 Y:C5 P:C4 S:FB PPU:179,137 20391
EEAD  EA        NOP                              A:FB X:02 Y:C5 P:C5 S:FB PPU:179,155 20397
EEAE  EA        NOP                              A:FB X:02 Y:C5 P:C5 S:FB PPU:179,161 20399
EEAF  EA        NOP                              A:FB X:02 Y:C5 P:C5 S:FB PPU:179,167 20401
EEB0  EA        NOP                              A:FB X:02 Y:C5 P:C5 S:FB PPU:179,173 20403
EEB1  20 81 FA  JSR $FA81                        A:FB X:02 Y:C5 P:C5 S:FB PPU:179,179 20405
FA81  50 63     BVC $FAE6                        A:FB X:02 Y:C5 P:C5 S:F9 PPU:179,197 20411
FA83  90 61     BCC $FAE6                        A:FB X:02 Y:C5 P:C5 S:F9 PPU:179,203 20413
FA85  10 5F     BPL $FAE6                        A:FB X:02 Y:C5 P:C5 S:F9 PPU:179,209 20415
FA87  C9 FB     CMP #$FB                         A:FB X:02 Y:C5 P:C5 S:F9 PPU:179,215 20417
FA89  D0 5B     BNE $FAE6                        A:FB X:02 Y:C5 P:47 S:F9 PPU:179,221 20419
FA8B  60        RTS                              A:FB X:02 Y:C5 P:47 S:F9 PPU:179,227 20421
EEB4  AD 47 06  LDA $0647 = $4A                  A:FB X:02 Y:C5 P:47 S:FB PPU:179,245 20427
EEB7  C9 4A     CMP #$4A                         A:4A X:02 Y:C5 P:45 S:FB PPU:179,257 20431
EEB9  F0 02     BEQ $EEBD                        A:4A X:02 Y:C5 P:47 S:FB PPU:179,263 20433
EEBD  C8        INY                              A:4A X:02 Y:C5 P:47 S:FB PPU:179,272 20436
EEBE  A9 29     LDA #$29                         A:4A X:02 Y:C6 P:C5 S:FB PPU:179,278 20438
EEC0  8D 47 06  STA $0647 = $4A                  A:29 X:02 Y:C6 P:45 S:FB PPU:179,284 20440
EEC3  20 8C FA  JSR $FA8C                        A:29 X:02 Y:C6 P:45 S:FB PPU:179,296 20444
FA8C  B8        CLV                              A:29 X:02 Y:C6 P:45 S:F9 PPU:179,314 20450
FA8D  18        CLC                              A:29 X:02 Y:C6 P:05 S:F9 PPU:179,320 20452
FA8E  A9 C3     LDA #$C3                         A:29 X:02 Y:C6 P:04 S:F9 PPU:179,326 20454
FA90  60        RTS                              A:C3 X:02 Y:C6 P:84 S:F9 PPU:179,332 20456
EEC6  0F 47 06  SLO $0647 = $29                  A:C3 X:02 Y:C6 P:84 S:FB PPU:180,9   20462
EEC9  EA        NOP                              A:D3 X:02 Y:C6 P:84 S:FB PPU:180,27  20468
EECA  EA        NOP                              A:D3 X:02 Y:C6 P:84 S:FB PPU:180,33  20470
EECB  EA        NOP                              A:D3 X:02 Y:C6 P:84 S:FB PPU:180,39  20472
EECC  EA        NOP                              A:D3 X:02 Y:C6 P:84 S:FB PPU:180,45  20474
EECD  20 91 FA  JSR $FA91                        A:D3 X:02 Y:C6 P:84 S:FB PPU:180,51  20476
FA91  70 53     BVS $FAE6                        A:D3 X:02 Y:C6 P:84 S:F9 PPU:180,69  20482
FA93  F0 51     BEQ $FAE6                        A:D3 X:02 Y:C6 P:84 S:F9 PPU:180,75  20484
FA95  10 4F     BPL $FAE6                        A:D3 X:02 Y:C6 P:84 S:F9 PPU:180,81  20486
FA97  B0 4D     BCS $FAE6                        A:D3 X:02 Y:C6 P:84 S:F9 PPU:180,87  20488
FA99  C9 D3     CMP #$D3                         A:D3 X:02 Y:C6 P:84 S:F9 PPU:180,93  20490
FA9B  D0 49     BNE $FAE6                        A:D3 X:02 Y:C6 P:07 S:F9 PPU:180,99  20492
FA9D  60        RTS                              A:D3 X:02 Y:C6 P:07 S:F9 PPU:180,105 20494
EED0  AD 47 06  LDA $0647 = $52                  A:D3 X:02 Y:C6 P:07 S:FB PPU:180,123 20500
EED3  C9 52     CMP #$52                         A:52 X:02 Y:C6 P:05 S:FB PPU:180,135 20504
EED5  F0 02     BEQ $EED9                        A:52 X:02 Y:C6 P:07 S:FB PPU:180,141 20506
EED9  C8        INY                              A:52 X:02 Y:C6 P:07 S:FB PPU:180,150 20509
EEDA  A9 37     LDA #$37                         A:52 X:02 Y:C7 P:85 S:FB PPU:180,156 20511
EEDC  8D 47 06  STA $0647 = $52                  A:37 X:02 Y:C7 P:05 S:FB PPU:180,162 20513
EEDF  20 9E FA  JSR $FA9E                        A:37 X:02 Y:C7 P:05 S:FB PPU:180,174 20517
FA9E  24 01     BIT $01 = $FF                    A:37 X:02 Y:C7 P:05 S:F9 PPU:180,192 20523
FAA0  38        SEC                              A:37 X:02 Y:C7 P:C5 S:F9 PPU:180,201 20526
FAA1  A9 10     LDA #$10                         A:37 X:02 Y:C7 P:C5 S:F9 PPU:180,207 20528
FAA3  60        RTS                              A:10 X:02 Y:C7 P:45 S:F9 PPU:180,213 20530
EEE2  0F 47 06  SLO $0647 = $37                  A:10 X:02 Y:C7 P:45 S:FB PPU:180,231 20536
EEE5  EA        NOP                              A:7E X:02 Y:C7 P:44 S:FB PPU:180,249 20542
EEE6  EA        NOP                              A:7E X:02 Y:C7 P:44 S:FB PPU:180,255 20544
EEE7  EA        NOP                              A:7E X:02 Y:C7 P:44 S:FB PPU:180,261 20546
EEE8  EA        NOP                              A:7E X:02 Y:C7 P:44 S:FB PPU:180,267 20548
EEE9  20 A4 FA  JSR $FAA4                        A:7E X:02 Y:C7 P:44 S:FB PPU:180,273 20550
FAA4  50 40     BVC $FAE6                        A:7E X:02 Y:C7 P:44 S:F9 PPU:180,291 20556
FAA6  F0 3E     BEQ $FAE6                        A:7E X:02 Y:C7 P:44 S:F9 PPU:180,297 20558
FAA8  30 3C     BMI $FAE6                        A:7E X:02 Y:C7 P:44 S:F9 PPU:180,303 20560
FAAA  B0 3A     BCS $FAE6                        A:7E X:02 Y:C7 P:44 S:F9 PPU:180,309 20562
FAAC  C9 7E     CMP #$7E                         A:7E X:02 Y:C7 P:44 S:F9 PPU:180,315 20564
FAAE  D0 36     BNE $FAE6                        A:7E X:02 Y:C7 P:47 S:F9 PPU:180,321 20566
FAB0  60        RTS                              A:7E X:02 Y:C7 P:47 S:F9 PPU:180,327 20568
EEEC  AD 47 06  LDA $0647 = $6E                  A:7E X:02 Y:C7 P:47 S:FB PPU:181,4   20574
EEEF  C9 6E     CMP #$6E                         A:6E X:02 Y:C7 P:45 S:FB PPU:181,16  20578
EEF1  F0 02     BEQ $EEF5                        A:6E X:02 Y:C7 P:47 S:FB PPU:181,22  20580
EEF5  A9 A5     LDA #$A5                         A:6E X:02 Y:C7 P:47 S:FB PPU:181,31  20583
EEF7  8D 47 06  STA $0647 = $6E                  A:A5 X:02 Y:C7 P:C5 S:FB PPU:181,37  20585
EEFA  A9 48     LDA #$48                         A:A5 X:02 Y:C7 P:C5 S:FB PPU:181,49  20589
EEFC  85 45     STA $45 = $48                    A:48 X:02 Y:C7 P:45 S:FB PPU:181,55  20591
EEFE  A9 05     LDA #$05                         A:48 X:02 Y:C7 P:45 S:FB PPU:181,64  20594
EF00  85 46     STA $46 = $05                    A:05 X:02 Y:C7 P:45 S:FB PPU:181,70  20596
EF02  A0 FF     LDY #$FF                         A:05 X:02 Y:C7 P:45 S:FB PPU:181,79  20599
EF04  20 7B FA  JSR $FA7B                        A:05 X:02 Y:FF P:C5 S:FB PPU:181,85  20601
FA7B  24 01     BIT $01 = $FF                    A:05 X:02 Y:FF P:C5 S:F9 PPU:181,103 20607
FA7D  18        CLC                              A:05 X:02 Y:FF P:C5 S:F9 PPU:181,112 20610
FA7E  A9 B3     LDA #$B3                         A:05 X:02 Y:FF P:C4 S:F9 PPU:181,118 20612
FA80  60        RTS                              A:B3 X:02 Y:FF P:C4 S:F9 PPU:181,124 20614
EF07  13 45     SLO ($45),Y = $A5                A:B3 X:02 Y:FF P:C4 S:FB PPU:181,142 20620
EF09  EA        NOP                              A:FB X:02 Y:FF P:C5 S:FB PPU:181,166 20628
EF0A  EA        NOP                              A:FB X:02 Y:FF P:C5 S:FB PPU:181,172 20630
EF0B  08        PHP                              A:FB X:02 Y:FF P:C5 S:FB PPU:181,178 20632
EF0C  48        PHA                              A:FB X:02 Y:FF P:C5 S:FA PPU:181,187 20635
EF0D  A0 C8     LDY #$C8                         A:FB X:02 Y:FF P:C5 S:F9 PPU:181,196 20638
EF0F  68        PLA                              A:FB X:02 Y:C8 P:C5 S:F9 PPU:181,202 20640
EF10  28        PLP                              A:FB X:02 Y:C8 P:C5 S:FA PPU:181,214 20644
EF11  20 81 FA  JSR $FA81                        A:FB X:02 Y:C8 P:C5 S:FB PPU:181,226 20648
FA81  50 63     BVC $FAE6                        A:FB X:02 Y:C8 P:C5 S:F9 PPU:181,244 20654
FA83  90 61     BCC $FAE6                        A:FB X:02 Y:C8 P:C5 S:F9 PPU:181,250 20656
FA85  10 5F     BPL $FAE6                        A:FB X:02 Y:C8 P:C5 S:F9 PPU:181,256 20658
FA87  C9 FB     CMP #$FB                         A:FB X:02 Y:C8 P:C5 S:F9 PPU:181,262 20660
FA89  D0 5B     BNE $FAE6                        A:FB X:02 Y:C8 P:47 S:F9 PPU:181,268 20662
FA8B  60        RTS                              A:FB X:02 Y:C8 P:47 S:F9 PPU:181,274 20664
EF14  AD 47 06  LDA $0647 = $4A                  A:FB X:02 Y:C8 P:47 S:FB PPU:181,292 20670
EF17  C9 4A     CMP #$4A                         A:4A X:02 Y:C8 P:45 S:FB PPU:181,304 20674
EF19  F0 02     BEQ $EF1D                        A:4A X:02 Y:C8 P:47 S:FB PPU:181,310 20676
EF1D  A0 FF     LDY #$FF                         A:4A X:02 Y:C8 P:47 S:FB PPU:181,319 20679
EF1F  A9 29     LDA #$29                         A:4A X:02 Y:FF P:C5 S:FB PPU:181,325 20681
EF21  8D 47 06  STA $0647 = $4A                  A:29 X:02 Y:FF P:45 S:FB PPU:181,331 20683
EF24  20 8C FA  JSR $FA8C                        A:29 X:02 Y:FF P:45 S:FB PPU:182,2   20687
FA8C  B8        CLV                              A:29 X:02 Y:FF P:45 S:F9 PPU:182,20  20693
FA8D  18        CLC                              A:29 X:02 Y:FF P:05 S:F9 PPU:182,26  20695
FA8E  A9 C3     LDA #$C3                         A:29 X:02 Y:FF P:04 S:F9 PPU:182,32  20697
FA90  60        RTS                              A:C3 X:02 Y:FF P:84 S:F9 PPU:182,38  20699
EF27  13 45     SLO ($45),Y = $29                A:C3 X:02 Y:FF P:84 S:FB PPU:182,56  20705
EF29  EA        NOP                              A:D3 X:02 Y:FF P:84 S:FB PPU:182,80  20713
EF2A  EA        NOP                              A:D3 X:02 Y:FF P:84 S:FB PPU:182,86  20715
EF2B  08        PHP                              A:D3 X:02 Y:FF P:84 S:FB PPU:182,92  20717
EF2C  48        PHA                              A:D3 X:02 Y:FF P:84 S:FA PPU:182,101 20720
EF2D  A0 C9     LDY #$C9                         A:D3 X:02 Y:FF P:84 S:F9 PPU:182,110 20723
EF2F  68        PLA                              A:D3 X:02 Y:C9 P:84 S:F9 PPU:182,116 20725
EF30  28        PLP                              A:D3 X:02 Y:C9 P:84 S:FA PPU:182,128 20729
EF31  20 91 FA  JSR $FA91                        A:D3 X:02 Y:C9 P:84 S:FB PPU:182,140 20733
FA91  70 53     BVS $FAE6                        A:D3 X:02 Y:C9 P:84 S:F9 PPU:182,158 20739
FA93  F0 51     BEQ $FAE6                        A:D3 X:02 Y:C9 P:84 S:F9 PPU:182,164 20741
FA95  10 4F     BPL $FAE6                        A:D3 X:02 Y:C9 P:84 S:F9 PPU:182,170 20743
FA97  B0 4D     BCS $FAE6                        A:D3 X:02 Y:C9 P:84 S:F9 PPU:182,176 20745
FA99  C9 D3     CMP #$D3                         A:D3 X:02 Y:C9 P:84 S:F9 PPU:182,182 20747
FA9B  D0 49     BNE $FAE6                        A:D3 X:02 Y:C9 P:07 S:F9 PPU:182,188 20749
FA9D  60        RTS                              A:D3 X:02 Y:C9 P:07 S:F9 PPU:182,194 20751
EF34  AD 47 06  LDA $0647 = $52                  A:D3 X:02 Y:C9 P:07 S:FB PPU:182,212 20757
EF37  C9 52     CMP #$52                         A:52 X:02 Y:C9 P:05 S:FB PPU:182,224 20761
EF39  F0 02     BEQ $EF3D                        A:52 X:02 Y:C9 P:07 S:FB PPU:182,230 20763
EF3D  A0 FF     LDY #$FF                         A:52 X:02 Y:C9 P:07 S:FB PPU:182,239 20766
EF3F  A9 37     LDA #$37                         A:52 X:02 Y:FF P:85 S:FB PPU:182,245 20768
EF41  8D 47 06  STA $0647 = $52                  A:37 X:02 Y:FF P:05 S:FB PPU:182,251 20770
EF44  20 9E FA  JSR $FA9E                        A:37 X:02 Y:FF P:05 S:FB PPU:182,263 20774
FA9E  24 01     BIT $01 = $FF                    A:37 X:02 Y:FF P:05 S:F9 PPU:182,281 20780
FAA0  38        SEC                              A:37 X:02 Y:FF P:C5 S:F9 PPU:182,290 20783
FAA1  A9 10     LDA #$10                         A:37 X:02 Y:FF P:C5 S:F9 PPU:182,296 20785
FAA3  60        RTS                              A:10 X:02 Y:FF P:45 S:F9 PPU:182,302 20787
EF47  13 45     SLO ($45),Y = $37                A:10 X:02 Y:FF P:45 S:FB PPU:182,320 20793
EF49  EA        NOP                              A:7E X:02 Y:FF P:44 S:FB PPU:183,3   20801
EF4A  EA        NOP                              A:7E X:02 Y:FF P:44 S:FB PPU:183,9   20803
EF4B  08        PHP                              A:7E X:02 Y:FF P:44 S:FB PPU:183,15  20805
EF4C  48        PHA                              A:7E X:02 Y:FF P:44 S:FA PPU:183,24  20808
EF4D  A0 CA     LDY #$CA                         A:7E X:02 Y:FF P:44 S:F9 PPU:183,33  20811
EF4F  68        PLA                              A:7E X:02 Y:CA P:C4 S:F9 PPU:183,39  20813
EF50  28        PLP                              A:7E X:02 Y:CA P:44 S:FA PPU:183,51  20817
EF51  20 A4 FA  JSR $FAA4                        A:7E X:02 Y:CA P:44 S:FB PPU:183,63  20821
FAA4  50 40     BVC $FAE6                        A:7E X:02 Y:CA P:44 S:F9 PPU:183,81  20827
FAA6  F0 3E     BEQ $FAE6                        A:7E X:02 Y:CA P:44 S:F9 PPU:183,87  20829
FAA8  30 3C     BMI $FAE6                        A:7E X:02 Y:CA P:44 S:F9 PPU:183,93  20831
FAAA  B0 3A     BCS $FAE6                        A:7E X:02 Y:CA P:44 S:F9 PPU:183,99  20833
FAAC  C9 7E     CMP #$7E                         A:7E X:02 Y:CA P:44 S:F9 PPU:183,105 20835
FAAE  D0 36     BNE $FAE6                        A:7E X:02 Y:CA P:47 S:F9 PPU:183,111 20837
FAB0  60        RTS                              A:7E X:02 Y:CA P:47 S:F9 PPU:183,117 20839
EF54  AD 47 06  LDA $0647 = $6E                  A:7E X:02 Y:CA P:47 S:FB PPU:183,135 20845
EF57  C9 6E     CMP #$6E                         A:6E X:02 Y:CA P:45 S:FB PPU:183,147 20849
EF59  F0 02     BEQ $EF5D                        A:6E X:02 Y:CA P:47 S:FB PPU:183,153 20851
EF5D  A0 CB     LDY #$CB                         A:6E X:02 Y:CA P:47 S:FB PPU:183,162 20854
EF5F  A2 FF     LDX #$FF                         A:6E X:02 Y:CB P:C5 S:FB PPU:183,168 20856
EF61  A9 A5     LDA #$A5                         A:6E X:FF Y:CB P:C5 S:FB PPU:183,174 20858
EF63  85 47     STA $47 = $6E                    A:A5 X:FF Y:CB P:C5 S:FB PPU:183,180 20860
EF65  20 7B FA  JSR $FA7B                        A:A5 X:FF Y:CB P:C5 S:FB PPU:183,189 20863
FA7B  24 01     BIT $01 = $FF                    A:A5 X:FF Y:CB P:C5 S:F9 PPU:183,207 20869
FA7D  18        CLC                              A:A5 X:FF Y:CB P:C5 S:F9 PPU:183,216 20872
FA7E  A9 B3     LDA #$B3                         A:A5 X:FF Y:CB P:C4 S:F9 PPU:183,222 20874
FA80  60        RTS                              A:B3 X:FF Y:CB P:C4 S:F9 PPU:183,228 20876
EF68  17 48     SLO $48,X = $A5                  A:B3 X:FF Y:CB P:C4 S:FB PPU:183,246 20882
EF6A  EA        NOP                              A:FB X:FF Y:CB P:C5 S:FB PPU:183,264 20888
EF6B  EA        NOP                              A:FB X:FF Y:CB P:C5 S:FB PPU:183,270 20890
EF6C  EA        NOP                              A:FB X:FF Y:CB P:C5 S:FB PPU:183,276 20892
EF6D  EA        NOP                              A:FB X:FF Y:CB P:C5 S:FB PPU:183,282 20894
EF6E  20 81 FA  JSR $FA81                        A:FB X:FF Y:CB P:C5 S:FB PPU:183,288 20896
FA81  50 63     BVC $FAE6                        A:FB X:FF Y:CB P:C5 S:F9 PPU:183,306 20902
FA83  90 61     BCC $FAE6                        A:FB X:FF Y:CB P:C5 S:F9 PPU:183,312 20904
FA85  10 5F     BPL $FAE6                        A:FB X:FF Y:CB P:C5 S:F9 PPU:183,318 20906
FA87  C9 FB     CMP #$FB                         A:FB X:FF Y:CB P:C5 S:F9 PPU:183,324 20908
FA89  D0 5B     BNE $FAE6                        A:FB X:FF Y:CB P:47 S:F9 PPU:183,330 20910
FA8B  60        RTS                              A:FB X:FF Y:CB P:47 S:F9 PPU:183,336 20912
EF71  A5 47     LDA $47 = $4A                    A:FB X:FF Y:CB P:47 S:FB PPU:184,13  20918
EF73  C9 4A     CMP #$4A                         A:4A X:FF Y:CB P:45 S:FB PPU:184,22  20921
EF75  F0 02     BEQ $EF79                        A:4A X:FF Y:CB P:47 S:FB PPU:184,28  20923
EF79  C8        INY                              A:4A X:FF Y:CB P:47 S:FB PPU:184,37  20926
EF7A  A9 29     LDA #$29                         A:4A X:FF Y:CC P:C5 S:FB PPU:184,43  20928
EF7C  85 47     STA $47 = $4A                    A:29 X:FF Y:CC P:45 S:FB PPU:184,49  20930
EF7E  20 8C FA  JSR $FA8C                        A:29 X:FF Y:CC P:45 S:FB PPU:184,58  20933
FA8C  B8        CLV                              A:29 X:FF Y:CC P:45 S:F9 PPU:184,76  20939
FA8D  18        CLC                              A:29 X:FF Y:CC P:05 S:F9 PPU:184,82  20941
FA8E  A9 C3     LDA #$C3                         A:29 X:FF Y:CC P:04 S:F9 PPU:184,88  20943
FA90  60        RTS                              A:C3 X:FF Y:CC P:84 S:F9 PPU:184,94  20945
EF81  17 48     SLO $48,X = $29                  A:C3 X:FF Y:CC P:84 S:FB PPU:184,112 20951
EF83  EA        NOP                              A:D3 X:FF Y:CC P:84 S:FB PPU:184,130 20957
EF84  EA        NOP                              A:D3 X:FF Y:CC P:84 S:FB PPU:184,136 20959
EF85  EA        NOP                              A:D3 X:FF Y:CC P:84 S:FB PPU:184,142 20961
EF86  EA        NOP                              A:D3 X:FF Y:CC P:84 S:FB PPU:184,148 20963
EF87  20 91 FA  JSR $FA91                        A:D3 X:FF Y:CC P:84 S:FB PPU:184,154 20965
FA91  70 53     BVS $FAE6                        A:D3 X:FF Y:CC P:84 S:F9 PPU:184,172 20971
FA93  F0 51     BEQ $FAE6                        A:D3 X:FF Y:CC P:84 S:F9 PPU:184,178 20973
FA95  10 4F     BPL $FAE6                        A:D3 X:FF Y:CC P:84 S:F9 PPU:184,184 20975
FA97  B0 4D     BCS $FAE6                        A:D3 X:FF Y:CC P:84 S:F9 PPU:184,190 20977
FA99  C9 D3     CMP #$D3                         A:D3 X:FF Y:CC P:84 S:F9 PPU:184,196 20979
FA9B  D0 49     BNE $FAE6                        A:D3 X:FF Y:CC P:07 S:F9 PPU:184,202 20981
FA9D  60        RTS                              A:D3 X:FF Y:CC P:07 S:F9 PPU:184,208 20983
EF8A  A5 47     LDA $47 = $52                    A:D3 X:FF Y:CC P:07 S:FB PPU:184,226 20989
EF8C  C9 52     CMP #$52                         A:52 X:FF Y:CC P:05 S:FB PPU:184,235 20992
EF8E  F0 02     BEQ $EF92                        A:52 X:FF Y:CC P:07 S:FB PPU:184,241 20994
EF92  C8        INY                              A:52 X:FF Y:CC P:07 S:FB PPU:184,250 20997
EF93  A9 37     LDA #$37                         A:52 X:FF Y:CD P:85 S:FB PPU:184,256 20999
EF95  85 47     STA $47 = $52                    A:37 X:FF Y:CD P:05 S:FB PPU:184,262 21001
EF97  20 9E FA  JSR $FA9E                        A:37 X:FF Y:CD P:05 S:FB PPU:184,271 21004
FA9E  24 01     BIT $01 = $FF                    A:37 X:FF Y:CD P:05 S:F9 PPU:184,289 21010
FAA0  38        SEC                              A:37 X:FF Y:CD P:C5 S:F9 PPU:184,298 21013
FAA1  A9 10     LDA #$10                         A:37 X:FF Y:CD P:C5 S:F9 PPU:184,304 21015
FAA3  60        RTS                              A:10 X:FF Y:CD P:45 S:F9 PPU:184,310 21017
EF9A  17 48     SLO $48,X = $37                  A:10 X:FF Y:CD P:45 S:FB PPU:184,328 21023
EF9C  EA        NOP                              A:7E X:FF Y:CD P:44 S:FB PPU:185,5   21029
EF9D  EA        NOP                              A:7E X:FF Y:CD P:44 S:FB PPU:185,11  21031
EF9E  EA        NOP                              A:7E X:FF Y:CD P:44 S:FB PPU:185,17  21033
EF9F  EA        NOP                              A:7E X:FF Y:CD P:44 S:FB PPU:185,23  21035
EFA0  20 A4 FA  JSR $FAA4                        A:7E X:FF Y:CD P:44 S:FB PPU:185,29  21037
FAA4  50 40     BVC $FAE6                        A:7E X:FF Y:CD P:44 S:F9 PPU:185,47  21043
FAA6  F0 3E     BEQ $FAE6                        A:7E X:FF Y:CD P:44 S:F9 PPU:185,53  21045
FAA8  30 3C     BMI $FAE6                        A:7E X:FF Y:CD P:44 S:F9 PPU:185,59  21047
FAAA  B0 3A     BCS $FAE6                        A:7E X:FF Y:CD P:44 S:F9 PPU:185,65  21049
FAAC  C9 7E     CMP #$7E                         A:7E X:FF Y:CD P:44 S:F9 PPU:185,71  21051
FAAE  D0 36     BNE $FAE6                        A:7E X:FF Y:CD P:47 S:F9 PPU:185,77  21053
FAB0  60        RTS                              A:7E X:FF Y:CD P:47 S:F9 PPU:185,83  21055
EFA3  A5 47     LDA $47 = $6E                    A:7E X:FF Y:CD P:47 S:FB PPU:185,101 21061
EFA5  C9 6E     CMP #$6E                         A:6E X:FF Y:CD P:45 S:FB PPU:185,110 21064
EFA7  F0 02     BEQ $EFAB                        A:6E X:FF Y:CD P:47 S:FB PPU:185,116 21066
EFAB  A9 A5     LDA #$A5                         A:6E X:FF Y:CD P:47 S:FB PPU:185,125 21069
EFAD  8D 47 06  STA $0647 = $6E                  A:A5 X:FF Y:CD P:C5 S:FB PPU:185,131 21071
EFB0  A0 FF     LDY #$FF                         A:A5 X:FF Y:CD P:C5 S:FB PPU:185,143 21075
EFB2  20 7B FA  JSR $FA7B                        A:A5 X:FF Y:FF P:C5 S:FB PPU:185,149 21077
FA7B  24 01     BIT $01 = $FF                    A:A5 X:FF Y:FF P:C5 S:F9 PPU:185,167 21083
FA7D  18        CLC                              A:A5 X:FF Y:FF P:C5 S:F9 PPU:185,176 21086
FA7E  A9 B3     LDA #$B3                         A:A5 X:FF Y:FF P:C4 S:F9 PPU:185,182 21088
FA80  60        RTS                              A:B3 X:FF Y:FF P:C4 S:F9 PPU:185,188 21090
EFB5  1B 48 05  SLO $0548,Y = $A5                A:B3 X:FF Y:FF P:C4 S:FB PPU:185,206 21096
EFB8  EA        NOP                              A:FB X:FF Y:FF P:C5 S:FB PPU:185,227 21103
EFB9  EA        NOP                              A:FB X:FF Y:FF P:C5 S:FB PPU:185,233 21105
EFBA  08        PHP                              A:FB X:FF Y:FF P:C5 S:FB PPU:185,239 21107
EFBB  48        PHA                              A:FB X:FF Y:FF P:C5 S:FA PPU:185,248 21110
EFBC  A0 CE     LDY #$CE                         A:FB X:FF Y:FF P:C5 S:F9 PPU:185,257 21113
EFBE  68        PLA                              A:FB X:FF Y:CE P:C5 S:F9 PPU:185,263 21115
EFBF  28        PLP                              A:FB X:FF Y:CE P:C5 S:FA PPU:185,275 21119
EFC0  20 81 FA  JSR $FA81                        A:FB X:FF Y:CE P:C5 S:FB PPU:185,287 21123
FA81  50 63     BVC $FAE6                        A:FB X:FF Y:CE P:C5 S:F9 PPU:185,305 21129
FA83  90 61     BCC $FAE6                        A:FB X:FF Y:CE P:C5 S:F9 PPU:185,311 21131
FA85  10 5F     BPL $FAE6                        A:FB X:FF Y:CE P:C5 S:F9 PPU:185,317 21133
FA87  C9 FB     CMP #$FB                         A:FB X:FF Y:CE P:C5 S:F9 PPU:185,323 21135
FA89  D0 5B     BNE $FAE6                        A:FB X:FF Y:CE P:47 S:F9 PPU:185,329 21137
FA8B  60        RTS                              A:FB X:FF Y:CE P:47 S:F9 PPU:185,335 21139
EFC3  AD 47 06  LDA $0647 = $4A                  A:FB X:FF Y:CE P:47 S:FB PPU:186,12  21145
EFC6  C9 4A     CMP #$4A                         A:4A X:FF Y:CE P:45 S:FB PPU:186,24  21149
EFC8  F0 02     BEQ $EFCC                        A:4A X:FF Y:CE P:47 S:FB PPU:186,30  21151
EFCC  A0 FF     LDY #$FF                         A:4A X:FF Y:CE P:47 S:FB PPU:186,39  21154
EFCE  A9 29     LDA #$29                         A:4A X:FF Y:FF P:C5 S:FB PPU:186,45  21156
EFD0  8D 47 06  STA $0647 = $4A                  A:29 X:FF Y:FF P:45 S:FB PPU:186,51  21158
EFD3  20 8C FA  JSR $FA8C                        A:29 X:FF Y:FF P:45 S:FB PPU:186,63  21162
FA8C  B8        CLV                              A:29 X:FF Y:FF P:45 S:F9 PPU:186,81  21168
FA8D  18        CLC                              A:29 X:FF Y:FF P:05 S:F9 PPU:186,87  21170
FA8E  A9 C3     LDA #$C3                         A:29 X:FF Y:FF P:04 S:F9 PPU:186,93  21172
FA90  60        RTS                              A:C3 X:FF Y:FF P:84 S:F9 PPU:186,99  21174
EFD6  1B 48 05  SLO $0548,Y = $29                A:C3 X:FF Y:FF P:84 S:FB PPU:186,117 21180
EFD9  EA        NOP                              A:D3 X:FF Y:FF P:84 S:FB PPU:186,138 21187
EFDA  EA        NOP                              A:D3 X:FF Y:FF P:84 S:FB PPU:186,144 21189
EFDB  08        PHP                              A:D3 X:FF Y:FF P:84 S:FB PPU:186,150 21191
EFDC  48        PHA                              A:D3 X:FF Y:FF P:84 S:FA PPU:186,159 21194
EFDD  A0 CF     LDY #$CF                         A:D3 X:FF Y:FF P:84 S:F9 PPU:186,168 21197
EFDF  68        PLA                              A:D3 X:FF Y:CF P:84 S:F9 PPU:186,174 21199
EFE0  28        PLP                              A:D3 X:FF Y:CF P:84 S:FA PPU:186,186 21203
EFE1  20 91 FA  JSR $FA91                        A:D3 X:FF Y:CF P:84 S:FB PPU:186,198 21207
FA91  70 53     BVS $FAE6                        A:D3 X:FF Y:CF P:84 S:F9 PPU:186,216 21213
FA93  F0 51     BEQ $FAE6                        A:D3 X:FF Y:CF P:84 S:F9 PPU:186,222 21215
FA95  10 4F     BPL $FAE6                        A:D3 X:FF Y:CF P:84 S:F9 PPU:186,228 21217
FA97  B0 4D     BCS $FAE6                        A:D3 X:FF Y:CF P:84 S:F9 PPU:186,234 21219
FA99  C9 D3     CMP #$D3                         A:D3 X:FF Y:CF P:84 S:F9 PPU:186,240 21221
FA9B  D0 49     BNE $FAE6                        A:D3 X:FF Y:CF P:07 S:F9 PPU:186,246 21223
FA9D  60        RTS                              A:D3 X:FF Y:CF P:07 S:F9 PPU:186,252 21225
EFE4  AD 47 06  LDA $0647 = $52                  A:D3 X:FF Y:CF P:07 S:FB PPU:186,270 21231
EFE7  C9 52     CMP #$52                         A:52 X:FF Y:CF P:05 S:FB PPU:186,282 21235
EFE9  F0 02     BEQ $EFED                        A:52 X:FF Y:CF P:07 S:FB PPU:186,288 21237
EFED  A0 FF     LDY #$FF                         A:52 X:FF Y:CF P:07 S:FB PPU:186,297 21240
EFEF  A9 37     LDA #$37                         A:52 X:FF Y:FF P:85 S:FB PPU:186,303 21242
EFF1  8D 47 06  STA $0647 = $52                  A:37 X:FF Y:FF P:05 S:FB PPU:186,309 21244
EFF4  20 9E FA  JSR $FA9E                        A:37 X:FF Y:FF P:05 S:FB PPU:186,321 21248
FA9E  24 01     BIT $01 = $FF                    A:37 X:FF Y:FF P:05 S:F9 PPU:186,339 21254
FAA0  38        SEC                              A:37 X:FF Y:FF P:C5 S:F9 PPU:187,7   21257
FAA1  A9 10     LDA #$10                         A:37 X:FF Y:FF P:C5 S:F9 PPU:187,13  21259
FAA3  60        RTS                              A:10 X:FF Y:FF P:45 S:F9 PPU:187,19  21261
EFF7  1B 48 05  SLO $0548,Y = $37                A:10 X:FF Y:FF P:45 S:FB PPU:187,37  21267
EFFA  EA        NOP                              A:7E X:FF Y:FF P:44 S:FB PPU:187,58  21274
EFFB  EA        NOP                              A:7E X:FF Y:FF P:44 S:FB PPU:187,64  21276
EFFC  08        PHP                              A:7E X:FF Y:FF P:44 S:FB PPU:187,70  21278
EFFD  48        PHA                              A:7E X:FF Y:FF P:44 S:FA PPU:187,79  21281
EFFE  A0 D0     LDY #$D0                         A:7E X:FF Y:FF P:44 S:F9 PPU:187,88  21284
F000  68        PLA                              A:7E X:FF Y:D0 P:C4 S:F9 PPU:187,94  21286
F001  28        PLP                              A:7E X:FF Y:D0 P:44 S:FA PPU:187,106 21290
F002  20 A4 FA  JSR $FAA4                        A:7E X:FF Y:D0 P:44 S:FB PPU:187,118 21294
FAA4  50 40     BVC $FAE6                        A:7E X:FF Y:D0 P:44 S:F9 PPU:187,136 21300
FAA6  F0 3E     BEQ $FAE6                        A:7E X:FF Y:D0 P:44 S:F9 PPU:187,142 21302
FAA8  30 3C     BMI $FAE6                        A:7E X:FF Y:D0 P:44 S:F9 PPU:187,148 21304
FAAA  B0 3A     BCS $FAE6                        A:7E X:FF Y:D0 P:44 S:F9 PPU:187,154 21306
FAAC  C9 7E     CMP #$7E                         A:7E X:FF Y:D0 P:44 S:F9 PPU:187,160 21308
FAAE  D0 36     BNE $FAE6                        A:7E X:FF Y:D0 P:47 S:F9 PPU:187,166 21310
FAB0  60        RTS                              A:7E X:FF Y:D0 P:47 S:F9 PPU:187,172 21312
F005  AD 47 06  LDA $0647 = $6E                  A:7E X:FF Y:D0 P:47 S:FB PPU:187,190 21318
F008  C9 6E     CMP #$6E                         A:6E X:FF Y:D0 P:45 S:FB PPU:187,202 21322
F00A  F0 02     BEQ $F00E                        A:6E X:FF Y:D0 P:47 S:FB PPU:187,208 21324
F00E  A0 D1     LDY #$D1                         A:6E X:FF Y:D0 P:47 S:FB PPU:187,217 21327
F010  A2 FF     LDX #$FF                         A:6E X:FF Y:D1 P:C5 S:FB PPU:187,223 21329
F012  A9 A5     LDA #$A5                         A:6E X:FF Y:D1 P:C5 S:FB PPU:187,229 21331
F014  8D 47 06  STA $0647 = $6E                  A:A5 X:FF Y:D1 P:C5 S:FB PPU:187,235 21333
F017  20 7B FA  JSR $FA7B                        A:A5 X:FF Y:D1 P:C5 S:FB PPU:187,247 21337
FA7B  24 01     BIT $01 = $FF                    A:A5 X:FF Y:D1 P:C5 S:F9 PPU:187,265 21343
FA7D  18        CLC                              A:A5 X:FF Y:D1 P:C5 S:F9 PPU:187,274 21346
FA7E  A9 B3     LDA #$B3                         A:A5 X:FF Y:D1 P:C4 S:F9 PPU:187,280 21348
FA80  60        RTS                              A:B3 X:FF Y:D1 P:C4 S:F9 PPU:187,286 21350
F01A  1F 48 05  SLO $0548,X = $A5                A:B3 X:FF Y:D1 P:C4 S:FB PPU:187,304 21356
F01D  EA        NOP                              A:FB X:FF Y:D1 P:C5 S:FB PPU:187,325 21363
F01E  EA        NOP                              A:FB X:FF Y:D1 P:C5 S:FB PPU:187,331 21365
F01F  EA        NOP                              A:FB X:FF Y:D1 P:C5 S:FB PPU:187,337 21367
F020  EA        NOP                              A:FB X:FF Y:D1 P:C5 S:FB PPU:188,2   21369
F021  20 81 FA  JSR $FA81                        A:FB X:FF Y:D1 P:C5 S:FB PPU:188,8   21371
FA81  50 63     BVC $FAE6                        A:FB X:FF Y:D1 P:C5 S:F9 PPU:188,26  21377
FA83  90 61     BCC $FAE6                        A:FB X:FF Y:D1 P:C5 S:F9 PPU:188,32  21379
FA85  10 5F     BPL $FAE6                        A:FB X:FF Y:D1 P:C5 S:F9 PPU:188,38  21381
FA87  C9 FB     CMP #$FB                         A:FB X:FF Y:D1 P:C5 S:F9 PPU:188,44  21383
FA89  D0 5B     BNE $FAE6                        A:FB X:FF Y:D1 P:47 S:F9 PPU:188,50  21385
FA8B  60        RTS                              A:FB X:FF Y:D1 P:47 S:F9 PPU:188,56  21387
F024  AD 47 06  LDA $0647 = $4A                  A:FB X:FF Y:D1 P:47 S:FB PPU:188,74  21393
F027  C9 4A     CMP #$4A                         A:4A X:FF Y:D1 P:45 S:FB PPU:188,86  21397
F029  F0 02     BEQ $F02D                        A:4A X:FF Y:D1 P:47 S:FB PPU:188,92  21399
F02D  C8        INY                              A:4A X:FF Y:D1 P:47 S:FB PPU:188,101 21402
F02E  A9 29     LDA #$29                         A:4A X:FF Y:D2 P:C5 S:FB PPU:188,107 21404
F030  8D 47 06  STA $0647 = $4A                  A:29 X:FF Y:D2 P:45 S:FB PPU:188,113 21406
F033  20 8C FA  JSR $FA8C                        A:29 X:FF Y:D2 P:45 S:FB PPU:188,125 21410
FA8C  B8        CLV                              A:29 X:FF Y:D2 P:45 S:F9 PPU:188,143 21416
FA8D  18        CLC                              A:29 X:FF Y:D2 P:05 S:F9 PPU:188,149 21418
FA8E  A9 C3     LDA #$C3                         A:29 X:FF Y:D2 P:04 S:F9 PPU:188,155 21420
FA90  60        RTS                              A:C3 X:FF Y:D2 P:84 S:F9 PPU:188,161 21422
F036  1F 48 05  SLO $0548,X = $29                A:C3 X:FF Y:D2 P:84 S:FB PPU:188,179 21428
F039  EA        NOP                              A:D3 X:FF Y:D2 P:84 S:FB PPU:188,200 21435
F03A  EA        NOP                              A:D3 X:FF Y:D2 P:84 S:FB PPU:188,206 21437
F03B  EA        NOP                              A:D3 X:FF Y:D2 P:84 S:FB PPU:188,212 21439
F03C  EA        NOP                              A:D3 X:FF Y:D2 P:84 S:FB PPU:188,218 21441
F03D  20 91 FA  JSR $FA91                        A:D3 X:FF Y:D2 P:84 S:FB PPU:188,224 21443
FA91  70 53     BVS $FAE6                        A:D3 X:FF Y:D2 P:84 S:F9 PPU:188,242 21449
FA93  F0 51     BEQ $FAE6                        A:D3 X:FF Y:D2 P:84 S:F9 PPU:188,248 21451
FA95  10 4F     BPL $FAE6                        A:D3 X:FF Y:D2 P:84 S:F9 PPU:188,254 21453
FA97  B0 4D     BCS $FAE6                        A:D3 X:FF Y:D2 P:84 S:F9 PPU:188,260 21455
FA99  C9 D3     CMP #$D3                         A:D3 X:FF Y:D2 P:84 S:F9 PPU:188,266 21457
FA9B  D0 49     BNE $FAE6                        A:D3 X:FF Y:D2 P:07 S:F9 PPU:188,272 21459
FA9D  60        RTS                              A:D3 X:FF Y:D2 P:07 S:F9 PPU:188,278 21461
F040  AD 47 06  LDA $0647 = $52                  A:D3 X:FF Y:D2 P:07 S:FB PPU:188,296 21467
F043  C9 52     CMP #$52                         A:52 X:FF Y:D2 P:05 S:FB PPU:188,308 21471
F045  F0 02     BEQ $F049                        A:52 X:FF Y:D2 P:07 S:FB PPU:188,314 21473
F049  C8        INY                              A:52 X:FF Y:D2 P:07 S:FB PPU:188,323 21476
F04A  A9 37     LDA #$37                         A:52 X:FF Y:D3 P:85 S:FB PPU:188,329 21478
F04C  8D 47 06  STA $0647 = $52                  A:37 X:FF Y:D3 P:05 S:FB PPU:188,335 21480
F04F  20 9E FA  JSR $FA9E                        A:37 X:FF Y:D3 P:05 S:FB PPU:189,6   21484
FA9E  24 01     BIT $01 = $FF                    A:37 X:FF Y:D3 P:05 S:F9 PPU:189,24  21490
FAA0  38        SEC                              A:37 X:FF Y:D3 P:C5 S:F9 PPU:189,33  21493
FAA1  A9 10     LDA #$10                         A:37 X:FF Y:D3 P:C5 S:F9 PPU:189,39  21495
FAA3  60        RTS                              A:10 X:FF Y:D3 P:45 S:F9 PPU:189,45  21497
F052  1F 48 05  SLO $0548,X = $37                A:10 X:FF Y:D3 P:45 S:FB PPU:189,63  21503
F055  EA        NOP                              A:7E X:FF Y:D3 P:44 S:FB PPU:189,84  21510
F056  EA        NOP                              A:7E X:FF Y:D3 P:44 S:FB PPU:189,90  21512
F057  EA        NOP                              A:7E X:FF Y:D3 P:44 S:FB PPU:189,96  21514
F058  EA        NOP                              A:7E X:FF Y:D3 P:44 S:FB PPU:189,102 21516
F059  20 A4 FA  JSR $FAA4                        A:7E X:FF Y:D3 P:44 S:FB PPU:189,108 21518
FAA4  50 40     BVC $FAE6                        A:7E X:FF Y:D3 P:44 S:F9 PPU:189,126 21524
FAA6  F0 3E     BEQ $FAE6                        A:7E X:FF Y:D3 P:44 S:F9 PPU:189,132 21526
FAA8  30 3C     BMI $FAE6                        A:7E X:FF Y:D3 P:44 S:F9 PPU:189,138 21528
FAAA  B0 3A     BCS $FAE6                        A:7E X:FF Y:D3 P:44 S:F9 PPU:189,144 21530
FAAC  C9 7E     CMP #$7E                         A:7E X:FF Y:D3 P:44 S:F9 PPU:189,150 21532
FAAE  D0 36     BNE $FAE6                        A:7E X:FF Y:D3 P:47 S:F9 PPU:189,156 21534
FAB0  60        RTS                              A:7E X:FF Y:D3 P:47 S:F9 PPU:189,162 21536
F05C  AD 47 06  LDA $0647 = $6E                  A:7E X:FF Y:D3 P:47 S:FB PPU:189,180 21542
F05F  C9 6E     CMP #$6E                         A:6E X:FF Y:D3 P:45 S:FB PPU:189,192 21546
F061  F0 02     BEQ $F065                        A:6E X:FF Y:D3 P:47 S:FB PPU:189,198 21548
F065  60        RTS                              A:6E X:FF Y:D3 P:47 S:FB PPU:189,207 21551
C644  20 66 F0  JSR $F066                        A:6E X:FF Y:D3 P:47 S:FD PPU:189,225 21557
F066  A9 FF     LDA #$FF                         A:6E X:FF Y:D3 P:47 S:FB PPU:189,243 21563
F068  85 01     STA $01 = $FF                    A:FF X:FF Y:D3 P:C5 S:FB PPU:189,249 21565
F06A  A0 D4     LDY #$D4                         A:FF X:FF Y:D3 P:C5 S:FB PPU:189,258 21568
F06C  A2 02     LDX #$02                         A:FF X:FF Y:D4 P:C5 S:FB PPU:189,264 21570
F06E  A9 47     LDA #$47                         A:FF X:02 Y:D4 P:45 S:FB PPU:189,270 21572
F070  85 47     STA $47 = $6E                    A:47 X:02 Y:D4 P:45 S:FB PPU:189,276 21574
F072  A9 06     LDA #$06                         A:47 X:02 Y:D4 P:45 S:FB PPU:189,285 21577
F074  85 48     STA $48 = $06                    A:06 X:02 Y:D4 P:45 S:FB PPU:189,291 21579
F076  A9 A5     LDA #$A5                         A:06 X:02 Y:D4 P:45 S:FB PPU:189,300 21582
F078  8D 47 06  STA $0647 = $6E                  A:A5 X:02 Y:D4 P:C5 S:FB PPU:189,306 21584
F07B  20 53 FB  JSR $FB53                        A:A5 X:02 Y:D4 P:C5 S:FB PPU:189,318 21588
FB53  24 01     BIT $01 = $FF                    A:A5 X:02 Y:D4 P:C5 S:F9 PPU:189,336 21594
FB55  18        CLC                              A:A5 X:02 Y:D4 P:C5 S:F9 PPU:190,4   21597
FB56  A9 B3     LDA #$B3                         A:A5 X:02 Y:D4 P:C4 S:F9 PPU:190,10  21599
FB58  60        RTS                              A:B3 X:02 Y:D4 P:C4 S:F9 PPU:190,16  21601
F07E  23 45     RLA ($45,X) = $A5                A:B3 X:02 Y:D4 P:C4 S:FB PPU:190,34  21607
F080  EA        NOP                              A:02 X:02 Y:D4 P:45 S:FB PPU:190,58  21615
F081  EA        NOP                              A:02 X:02 Y:D4 P:45 S:FB PPU:190,64  21617
F082  EA        NOP                              A:02 X:02 Y:D4 P:45 S:FB PPU:190,70  21619
F083  EA        NOP                              A:02 X:02 Y:D4 P:45 S:FB PPU:190,76  21621
F084  20 59 FB  JSR $FB59                        A:02 X:02 Y:D4 P:45 S:FB PPU:190,82  21623
FB59  50 1A     BVC $FB75                        A:02 X:02 Y:D4 P:45 S:F9 PPU:190,100 21629
FB5B  90 18     BCC $FB75                        A:02 X:02 Y:D4 P:45 S:F9 PPU:190,106 21631
FB5D  30 16     BMI $FB75                        A:02 X:02 Y:D4 P:45 S:F9 PPU:190,112 21633
FB5F  C9 02     CMP #$02                         A:02 X:02 Y:D4 P:45 S:F9 PPU:190,118 21635
FB61  D0 12     BNE $FB75                        A:02 X:02 Y:D4 P:47 S:F9 PPU:190,124 21637
FB63  60        RTS                              A:02 X:02 Y:D4 P:47 S:F9 PPU:190,130 21639
F087  AD 47 06  LDA $0647 = $4A                  A:02 X:02 Y:D4 P:47 S:FB PPU:190,148 21645
F08A  C9 4A     CMP #$4A                         A:4A X:02 Y:D4 P:45 S:FB PPU:190,160 21649
F08C  F0 02     BEQ $F090                        A:4A X:02 Y:D4 P:47 S:FB PPU:190,166 21651
F090  C8        INY                              A:4A X:02 Y:D4 P:47 S:FB PPU:190,175 21654
F091  A9 29     LDA #$29                         A:4A X:02 Y:D5 P:C5 S:FB PPU:190,181 21656
F093  8D 47 06  STA $0647 = $4A                  A:29 X:02 Y:D5 P:45 S:FB PPU:190,187 21658
F096  20 64 FB  JSR $FB64                        A:29 X:02 Y:D5 P:45 S:FB PPU:190,199 21662
FB64  B8        CLV                              A:29 X:02 Y:D5 P:45 S:F9 PPU:190,217 21668
FB65  18        CLC                              A:29 X:02 Y:D5 P:05 S:F9 PPU:190,223 21670
FB66  A9 42     LDA #$42                         A:29 X:02 Y:D5 P:04 S:F9 PPU:190,229 21672
FB68  60        RTS                              A:42 X:02 Y:D5 P:04 S:F9 PPU:190,235 21674
F099  23 45     RLA ($45,X) = $29                A:42 X:02 Y:D5 P:04 S:FB PPU:190,253 21680
F09B  EA        NOP                              A:42 X:02 Y:D5 P:04 S:FB PPU:190,277 21688
F09C  EA        NOP                              A:42 X:02 Y:D5 P:04 S:FB PPU:190,283 21690
F09D  EA        NOP                              A:42 X:02 Y:D5 P:04 S:FB PPU:190,289 21692
F09E  EA        NOP                              A:42 X:02 Y:D5 P:04 S:FB PPU:190,295 21694
F09F  20 69 FB  JSR $FB69                        A:42 X:02 Y:D5 P:04 S:FB PPU:190,301 21696
FB69  70 0A     BVS $FB75                        A:42 X:02 Y:D5 P:04 S:F9 PPU:190,319 21702
FB6B  F0 08     BEQ $FB75                        A:42 X:02 Y:D5 P:04 S:F9 PPU:190,325 21704
FB6D  30 06     BMI $FB75                        A:42 X:02 Y:D5 P:04 S:F9 PPU:190,331 21706
FB6F  B0 04     BCS $FB75                        A:42 X:02 Y:D5 P:04 S:F9 PPU:190,337 21708
FB71  C9 42     CMP #$42                         A:42 X:02 Y:D5 P:04 S:F9 PPU:191,2   21710
FB73  F0 02     BEQ $FB77                        A:42 X:02 Y:D5 P:07 S:F9 PPU:191,8   21712
FB77  60        RTS                              A:42 X:02 Y:D5 P:07 S:F9 PPU:191,17  21715
F0A2  AD 47 06  LDA $0647 = $52                  A:42 X:02 Y:D5 P:07 S:FB PPU:191,35  21721
F0A5  C9 52     CMP #$52                         A:52 X:02 Y:D5 P:05 S:FB PPU:191,47  21725
F0A7  F0 02     BEQ $F0AB                        A:52 X:02 Y:D5 P:07 S:FB PPU:191,53  21727
F0AB  C8        INY                              A:52 X:02 Y:D5 P:07 S:FB PPU:191,62  21730
F0AC  A9 37     LDA #$37                         A:52 X:02 Y:D6 P:85 S:FB PPU:191,68  21732
F0AE  8D 47 06  STA $0647 = $52                  A:37 X:02 Y:D6 P:05 S:FB PPU:191,74  21734
F0B1  20 68 FA  JSR $FA68                        A:37 X:02 Y:D6 P:05 S:FB PPU:191,86  21738
FA68  24 01     BIT $01 = $FF                    A:37 X:02 Y:D6 P:05 S:F9 PPU:191,104 21744
FA6A  38        SEC                              A:37 X:02 Y:D6 P:C5 S:F9 PPU:191,113 21747
FA6B  A9 75     LDA #$75                         A:37 X:02 Y:D6 P:C5 S:F9 PPU:191,119 21749
FA6D  60        RTS                              A:75 X:02 Y:D6 P:45 S:F9 PPU:191,125 21751
F0B4  23 45     RLA ($45,X) = $37                A:75 X:02 Y:D6 P:45 S:FB PPU:191,143 21757
F0B6  EA        NOP                              A:65 X:02 Y:D6 P:44 S:FB PPU:191,167 21765
F0B7  EA        NOP                              A:65 X:02 Y:D6 P:44 S:FB PPU:191,173 21767
F0B8  EA        NOP                              A:65 X:02 Y:D6 P:44 S:FB PPU:191,179 21769
F0B9  EA        NOP                              A:65 X:02 Y:D6 P:44 S:FB PPU:191,185 21771
F0BA  20 6E FA  JSR $FA6E                        A:65 X:02 Y:D6 P:44 S:FB PPU:191,191 21773
FA6E  50 76     BVC $FAE6                        A:65 X:02 Y:D6 P:44 S:F9 PPU:191,209 21779
FA70  F0 74     BEQ $FAE6                        A:65 X:02 Y:D6 P:44 S:F9 PPU:191,215 21781
FA72  30 72     BMI $FAE6                        A:65 X:02 Y:D6 P:44 S:F9 PPU:191,221 21783
FA74  B0 70     BCS $FAE6                        A:65 X:02 Y:D6 P:44 S:F9 PPU:191,227 21785
FA76  C9 65     CMP #$65                         A:65 X:02 Y:D6 P:44 S:F9 PPU:191,233 21787
FA78  D0 6C     BNE $FAE6                        A:65 X:02 Y:D6 P:47 S:F9 PPU:191,239 21789
FA7A  60        RTS                              A:65 X:02 Y:D6 P:47 S:F9 PPU:191,245 21791
F0BD  AD 47 06  LDA $0647 = $6F                  A:65 X:02 Y:D6 P:47 S:FB PPU:191,263 21797
F0C0  C9 6F     CMP #$6F                         A:6F X:02 Y:D6 P:45 S:FB PPU:191,275 21801
F0C2  F0 02     BEQ $F0C6                        A:6F X:02 Y:D6 P:47 S:FB PPU:191,281 21803
F0C6  C8        INY                              A:6F X:02 Y:D6 P:47 S:FB PPU:191,290 21806
F0C7  A9 A5     LDA #$A5                         A:6F X:02 Y:D7 P:C5 S:FB PPU:191,296 21808
F0C9  85 47     STA $47 = $47                    A:A5 X:02 Y:D7 P:C5 S:FB PPU:191,302 21810
F0CB  20 53 FB  JSR $FB53                        A:A5 X:02 Y:D7 P:C5 S:FB PPU:191,311 21813
FB53  24 01     BIT $01 = $FF                    A:A5 X:02 Y:D7 P:C5 S:F9 PPU:191,329 21819
FB55  18        CLC                              A:A5 X:02 Y:D7 P:C5 S:F9 PPU:191,338 21822
FB56  A9 B3     LDA #$B3                         A:A5 X:02 Y:D7 P:C4 S:F9 PPU:192,3   21824
FB58  60        RTS                              A:B3 X:02 Y:D7 P:C4 S:F9 PPU:192,9   21826
F0CE  27 47     RLA $47 = $A5                    A:B3 X:02 Y:D7 P:C4 S:FB PPU:192,27  21832
F0D0  EA        NOP                              A:02 X:02 Y:D7 P:45 S:FB PPU:192,42  21837
F0D1  EA        NOP                              A:02 X:02 Y:D7 P:45 S:FB PPU:192,48  21839
F0D2  EA        NOP                              A:02 X:02 Y:D7 P:45 S:FB PPU:192,54  21841
F0D3  EA        NOP                              A:02 X:02 Y:D7 P:45 S:FB PPU:192,60  21843
F0D4  20 59 FB  JSR $FB59                        A:02 X:02 Y:D7 P:45 S:FB PPU:192,66  21845
FB59  50 1A     BVC $FB75                        A:02 X:02 Y:D7 P:45 S:F9 PPU:192,84  21851
FB5B  90 18     BCC $FB75                        A:02 X:02 Y:D7 P:45 S:F9 PPU:192,90  21853
FB5D  30 16     BMI $FB75                        A:02 X:02 Y:D7 P:45 S:F9 PPU:192,96  21855
FB5F  C9 02     CMP #$02                         A:02 X:02 Y:D7 P:45 S:F9 PPU:192,102 21857
FB61  D0 12     BNE $FB75                        A:02 X:02 Y:D7 P:47 S:F9 PPU:192,108 21859
FB63  60        RTS                              A:02 X:02 Y:D7 P:47 S:F9 PPU:192,114 21861
F0D7  A5 47     LDA $47 = $4A                    A:02 X:02 Y:D7 P:47 S:FB PPU:192,132 21867
F0D9  C9 4A     CMP #$4A                         A:4A X:02 Y:D7 P:45 S:FB PPU:192,141 21870
F0DB  F0 02     BEQ $F0DF                        A:4A X:02 Y:D7 P:47 S:FB PPU:192,147 21872
F0DF  C8        INY                              A:4A X:02 Y:D7 P:47 S:FB PPU:192,156 21875
F0E0  A9 29     LDA #$29                         A:4A X:02 Y:D8 P:C5 S:FB PPU:192,162 21877
F0E2  85 47     STA $47 = $4A                    A:29 X:02 Y:D8 P:45 S:FB PPU:192,168 21879
F0E4  20 64 FB  JSR $FB64                        A:29 X:02 Y:D8 P:45 S:FB PPU:192,177 21882
FB64  B8        CLV                              A:29 X:02 Y:D8 P:45 S:F9 PPU:192,195 21888
FB65  18        CLC                              A:29 X:02 Y:D8 P:05 S:F9 PPU:192,201 21890
FB66  A9 42     LDA #$42                         A:29 X:02 Y:D8 P:04 S:F9 PPU:192,207 21892
FB68  60        RTS                              A:42 X:02 Y:D8 P:04 S:F9 PPU:192,213 21894
F0E7  27 47     RLA $47 = $29                    A:42 X:02 Y:D8 P:04 S:FB PPU:192,231 21900
F0E9  EA        NOP                              A:42 X:02 Y:D8 P:04 S:FB PPU:192,246 21905
F0EA  EA        NOP                              A:42 X:02 Y:D8 P:04 S:FB PPU:192,252 21907
F0EB  EA        NOP                              A:42 X:02 Y:D8 P:04 S:FB PPU:192,258 21909
F0EC  EA        NOP                              A:42 X:02 Y:D8 P:04 S:FB PPU:192,264 21911
F0ED  20 69 FB  JSR $FB69                        A:42 X:02 Y:D8 P:04 S:FB PPU:192,270 21913
FB69  70 0A     BVS $FB75                        A:42 X:02 Y:D8 P:04 S:F9 PPU:192,288 21919
FB6B  F0 08     BEQ $FB75                        A:42 X:02 Y:D8 P:04 S:F9 PPU:192,294 21921
FB6D  30 06     BMI $FB75                        A:42 X:02 Y:D8 P:04 S:F9 PPU:192,300 21923
FB6F  B0 04     BCS $FB75                        A:42 X:02 Y:D8 P:04 S:F9 PPU:192,306 21925
FB71  C9 42     CMP #$42                         A:42 X:02 Y:D8 P:04 S:F9 PPU:192,312 21927
FB73  F0 02     BEQ $FB77                        A:42 X:02 Y:D8 P:07 S:F9 PPU:192,318 21929
FB77  60        RTS                              A:42 X:02 Y:D8 P:07 S:F9 PPU:192,327 21932
F0F0  A5 47     LDA $47 = $52                    A:42 X:02 Y:D8 P:07 S:FB PPU:193,4   21938
F0F2  C9 52     CMP #$52                         A:52 X:02 Y:D8 P:05 S:FB PPU:193,13  21941
F0F4  F0 02     BEQ $F0F8                        A:52 X:02 Y:D8 P:07 S:FB PPU:193,19  21943
F0F8  C8        INY                              A:52 X:02 Y:D8 P:07 S:FB PPU:193,28  21946
F0F9  A9 37     LDA #$37                         A:52 X:02 Y:D9 P:85 S:FB PPU:193,34  21948
F0FB  85 47     STA $47 = $52                    A:37 X:02 Y:D9 P:05 S:FB PPU:193,40  21950
F0FD  20 68 FA  JSR $FA68                        A:37 X:02 Y:D9 P:05 S:FB PPU:193,49  21953
FA68  24 01     BIT $01 = $FF                    A:37 X:02 Y:D9 P:05 S:F9 PPU:193,67  21959
FA6A  38        SEC                              A:37 X:02 Y:D9 P:C5 S:F9 PPU:193,76  21962
FA6B  A9 75     LDA #$75                         A:37 X:02 Y:D9 P:C5 S:F9 PPU:193,82  21964
FA6D  60        RTS                              A:75 X:02 Y:D9 P:45 S:F9 PPU:193,88  21966
F100  27 47     RLA $47 = $37                    A:75 X:02 Y:D9 P:45 S:FB PPU:193,106 21972
F102  EA        NOP                              A:65 X:02 Y:D9 P:44 S:FB PPU:193,121 21977
F103  EA        NOP                              A:65 X:02 Y:D9 P:44 S:FB PPU:193,127 21979
F104  EA        NOP                              A:65 X:02 Y:D9 P:44 S:FB PPU:193,133 21981
F105  EA        NOP                              A:65 X:02 Y:D9 P:44 S:FB PPU:193,139 21983
F106  20 6E FA  JSR $FA6E                        A:65 X:02 Y:D9 P:44 S:FB PPU:193,145 21985
FA6E  50 76     BVC $FAE6                        A:65 X:02 Y:D9 P:44 S:F9 PPU:193,163 21991
FA70  F0 74     BEQ $FAE6                        A:65 X:02 Y:D9 P:44 S:F9 PPU:193,169 21993
FA72  30 72     BMI $FAE6                        A:65 X:02 Y:D9 P:44 S:F9 PPU:193,175 21995
FA74  B0 70     BCS $FAE6                        A:65 X:02 Y:D9 P:44 S:F9 PPU:193,181 21997
FA76  C9 65     CMP #$65                         A:65 X:02 Y:D9 P:44 S:F9 PPU:193,187 21999
FA78  D0 6C     BNE $FAE6                        A:65 X:02 Y:D9 P:47 S:F9 PPU:193,193 22001
FA7A  60        RTS                              A:65 X:02 Y:D9 P:47 S:F9 PPU:193,199 22003
F109  A5 47     LDA $47 = $6F                    A:65 X:02 Y:D9 P:47 S:FB PPU:193,217 22009
F10B  C9 6F     CMP #$6F                         A:6F X:02 Y:D9 P:45 S:FB PPU:193,226 22012
F10D  F0 02     BEQ $F111                        A:6F X:02 Y:D9 P:47 S:FB PPU:193,232 22014
F111  C8        INY                              A:6F X:02 Y:D9 P:47 S:FB PPU:193,241 22017
F112  A9 A5     LDA #$A5                         A:6F X:02 Y:DA P:C5 S:FB PPU:193,247 22019
F114  8D 47 06  STA $0647 = $6F                  A:A5 X:02 Y:DA P:C5 S:FB PPU:193,253 22021
F117  20 53 FB  JSR $FB53                        A:A5 X:02 Y:DA P:C5 S:FB PPU:193,265 22025
FB53  24 01     BIT $01 = $FF                    A:A5 X:02 Y:DA P:C5 S:F9 PPU:193,283 22031
FB55  18        CLC                              A:A5 X:02 Y:DA P:C5 S:F9 PPU:193,292 22034
FB56  A9 B3     LDA #$B3                         A:A5 X:02 Y:DA P:C4 S:F9 PPU:193,298 22036
FB58  60        RTS                              A:B3 X:02 Y:DA P:C4 S:F9 PPU:193,304 22038
F11A  2F 47 06  RLA $0647 = $A5                  A:B3 X:02 Y:DA P:C4 S:FB PPU:193,322 22044
F11D  EA        NOP                              A:02 X:02 Y:DA P:45 S:FB PPU:193,340 22050
F11E  EA        NOP                              A:02 X:02 Y:DA P:45 S:FB PPU:194,5   22052
F11F  EA        NOP                              A:02 X:02 Y:DA P:45 S:FB PPU:194,11  22054
F120  EA        NOP                              A:02 X:02 Y:DA P:45 S:FB PPU:194,17  22056
F121  20 59 FB  JSR $FB59                        A:02 X:02 Y:DA P:45 S:FB PPU:194,23  22058
FB59  50 1A     BVC $FB75                        A:02 X:02 Y:DA P:45 S:F9 PPU:194,41  22064
FB5B  90 18     BCC $FB75                        A:02 X:02 Y:DA P:45 S:F9 PPU:194,47  22066
FB5D  30 16     BMI $FB75                        A:02 X:02 Y:DA P:45 S:F9 PPU:194,53  22068
FB5F  C9 02     CMP #$02                         A:02 X:02 Y:DA P:45 S:F9 PPU:194,59  22070
FB61  D0 12     BNE $FB75                        A:02 X:02 Y:DA P:47 S:F9 PPU:194,65  22072
FB63  60        RTS                              A:02 X:02 Y:DA P:47 S:F9 PPU:194,71  22074
F124  AD 47 06  LDA $0647 = $4A                  A:02 X:02 Y:DA P:47 S:FB PPU:194,89  22080
F127  C9 4A     CMP #$4A                         A:4A X:02 Y:DA P:45 S:FB PPU:194,101 22084
F129  F0 02     BEQ $F12D                        A:4A X:02 Y:DA P:47 S:FB PPU:194,107 22086
F12D  C8        INY                              A:4A X:02 Y:DA P:47 S:FB PPU:194,116 22089
F12E  A9 29     LDA #$29                         A:4A X:02 Y:DB P:C5 S:FB PPU:194,122 22091
F130  8D 47 06  STA $0647 = $4A                  A:29 X:02 Y:DB P:45 S:FB PPU:194,128 22093
F133  20 64 FB  JSR $FB64                        A:29 X:02 Y:DB P:45 S:FB PPU:194,140 22097
FB64  B8        CLV                              A:29 X:02 Y:DB P:45 S:F9 PPU:194,158 22103
FB65  18        CLC                              A:29 X:02 Y:DB P:05 S:F9 PPU:194,164 22105
FB66  A9 42     LDA #$42                         A:29 X:02 Y:DB P:04 S:F9 PPU:194,170 22107
FB68  60        RTS                              A:42 X:02 Y:DB P:04 S:F9 PPU:194,176 22109
F136  2F 47 06  RLA $0647 = $29                  A:42 X:02 Y:DB P:04 S:FB PPU:194,194 22115
F139  EA        NOP                              A:42 X:02 Y:DB P:04 S:FB PPU:194,212 22121
F13A  EA        NOP                              A:42 X:02 Y:DB P:04 S:FB PPU:194,218 22123
F13B  EA        NOP                              A:42 X:02 Y:DB P:04 S:FB PPU:194,224 22125
F13C  EA        NOP                              A:42 X:02 Y:DB P:04 S:FB PPU:194,230 22127
F13D  20 69 FB  JSR $FB69                        A:42 X:02 Y:DB P:04 S:FB PPU:194,236 22129
FB69  70 0A     BVS $FB75                        A:42 X:02 Y:DB P:04 S:F9 PPU:194,254 22135
FB6B  F0 08     BEQ $FB75                        A:42 X:02 Y:DB P:04 S:F9 PPU:194,260 22137
FB6D  30 06     BMI $FB75                        A:42 X:02 Y:DB P:04 S:F9 PPU:194,266 22139
FB6F  B0 04     BCS $FB75                        A:42 X:02 Y:DB P:04 S:F9 PPU:194,272 22141
FB71  C9 42     CMP #$42                         A:42 X:02 Y:DB P:04 S:F9 PPU:194,278 22143
FB73  F0 02     BEQ $FB77                        A:42 X:02 Y:DB P:07 S:F9 PPU:194,284 22145
FB77  60        RTS                              A:42 X:02 Y:DB P:07 S:F9 PPU:194,293 22148
F140  AD 47 06  LDA $0647 = $52                  A:42 X:02 Y:DB P:07 S:FB PPU:194,311 22154
F143  C9 52     CMP #$52                         A:52 X:02 Y:DB P:05 S:FB PPU:194,323 22158
F145  F0 02     BEQ $F149                        A:52 X:02 Y:DB P:07 S:FB PPU:194,329 22160
F149  C8        INY                              A:52 X:02 Y:DB P:07 S:FB PPU:194,338 22163
F14A  A9 37     LDA #$37                         A:52 X:02 Y:DC P:85 S:FB PPU:195,3   22165
F14C  8D 47 06  STA $0647 = $52                  A:37 X:02 Y:DC P:05 S:FB PPU:195,9   22167
F14F  20 68 FA  JSR $FA68                        A:37 X:02 Y:DC P:05 S:FB PPU:195,21  22171
FA68  24 01     BIT $01 = $FF                    A:37 X:02 Y:DC P:05 S:F9 PPU:195,39  22177
FA6A  38        SEC                              A:37 X:02 Y:DC P:C5 S:F9 PPU:195,48  22180
FA6B  A9 75     LDA #$75                         A:37 X:02 Y:DC P:C5 S:F9 PPU:195,54  22182
FA6D  60        RTS                              A:75 X:02 Y:DC P:45 S:F9 PPU:195,60  22184
F152  2F 47 06  RLA $0647 = $37                  A:75 X:02 Y:DC P:45 S:FB PPU:195,78  22190
F155  EA        NOP                              A:65 X:02 Y:DC P:44 S:FB PPU:195,96  22196
F156  EA        NOP                              A:65 X:02 Y:DC P:44 S:FB PPU:195,102 22198
F157  EA        NOP                              A:65 X:02 Y:DC P:44 S:FB PPU:195,108 22200
F158  EA        NOP                              A:65 X:02 Y:DC P:44 S:FB PPU:195,114 22202
F159  20 6E FA  JSR $FA6E                        A:65 X:02 Y:DC P:44 S:FB PPU:195,120 22204
FA6E  50 76     BVC $FAE6                        A:65 X:02 Y:DC P:44 S:F9 PPU:195,138 22210
FA70  F0 74     BEQ $FAE6                        A:65 X:02 Y:DC P:44 S:F9 PPU:195,144 22212
FA72  30 72     BMI $FAE6                        A:65 X:02 Y:DC P:44 S:F9 PPU:195,150 22214
FA74  B0 70     BCS $FAE6                        A:65 X:02 Y:DC P:44 S:F9 PPU:195,156 22216
FA76  C9 65     CMP #$65                         A:65 X:02 Y:DC P:44 S:F9 PPU:195,162 22218
FA78  D0 6C     BNE $FAE6                        A:65 X:02 Y:DC P:47 S:F9 PPU:195,168 22220
FA7A  60        RTS                              A:65 X:02 Y:DC P:47 S:F9 PPU:195,174 22222
F15C  AD 47 06  LDA $0647 = $6F                  A:65 X:02 Y:DC P:47 S:FB PPU:195,192 22228
F15F  C9 6F     CMP #$6F                         A:6F X:02 Y:DC P:45 S:FB PPU:195,204 22232
F161  F0 02     BEQ $F165                        A:6F X:02 Y:DC P:47 S:FB PPU:195,210 22234
F165  A9 A5     LDA #$A5                         A:6F X:02 Y:DC P:47 S:FB PPU:195,219 22237
F167  8D 47 06  STA $0647 = $6F                  A:A5 X:02 Y:DC P:C5 S:FB PPU:195,225 22239
F16A  A9 48     LDA #$48                         A:A5 X:02 Y:DC P:C5 S:FB PPU:195,237 22243
F16C  85 45     STA $45 = $48                    A:48 X:02 Y:DC P:45 S:FB PPU:195,243 22245
F16E  A9 05     LDA #$05                         A:48 X:02 Y:DC P:45 S:FB PPU:195,252 22248
F170  85 46     STA $46 = $05                    A:05 X:02 Y:DC P:45 S:FB PPU:195,258 22250
F172  A0 FF     LDY #$FF                         A:05 X:02 Y:DC P:45 S:FB PPU:195,267 22253
F174  20 53 FB  JSR $FB53                        A:05 X:02 Y:FF P:C5 S:FB PPU:195,273 22255
FB53  24 01     BIT $01 = $FF                    A:05 X:02 Y:FF P:C5 S:F9 PPU:195,291 22261
FB55  18        CLC                              A:05 X:02 Y:FF P:C5 S:F9 PPU:195,300 22264
FB56  A9 B3     LDA #$B3                         A:05 X:02 Y:FF P:C4 S:F9 PPU:195,306 22266
FB58  60        RTS                              A:B3 X:02 Y:FF P:C4 S:F9 PPU:195,312 22268
F177  33 45     RLA ($45),Y = $A5                A:B3 X:02 Y:FF P:C4 S:FB PPU:195,330 22274
F179  EA        NOP                              A:02 X:02 Y:FF P:45 S:FB PPU:196,13  22282
F17A  EA        NOP                              A:02 X:02 Y:FF P:45 S:FB PPU:196,19  22284
F17B  08        PHP                              A:02 X:02 Y:FF P:45 S:FB PPU:196,25  22286
F17C  48        PHA                              A:02 X:02 Y:FF P:45 S:FA PPU:196,34  22289
F17D  A0 DD     LDY #$DD                         A:02 X:02 Y:FF P:45 S:F9 PPU:196,43  22292
F17F  68        PLA                              A:02 X:02 Y:DD P:C5 S:F9 PPU:196,49  22294
F180  28        PLP                              A:02 X:02 Y:DD P:45 S:FA PPU:196,61  22298
F181  20 59 FB  JSR $FB59                        A:02 X:02 Y:DD P:45 S:FB PPU:196,73  22302
FB59  50 1A     BVC $FB75                        A:02 X:02 Y:DD P:45 S:F9 PPU:196,91  22308
FB5B  90 18     BCC $FB75                        A:02 X:02 Y:DD P:45 S:F9 PPU:196,97  22310
FB5D  30 16     BMI $FB75                        A:02 X:02 Y:DD P:45 S:F9 PPU:196,103 22312
FB5F  C9 02     CMP #$02                         A:02 X:02 Y:DD P:45 S:F9 PPU:196,109 22314
FB61  D0 12     BNE $FB75                        A:02 X:02 Y:DD P:47 S:F9 PPU:196,115 22316
FB63  60        RTS                              A:02 X:02 Y:DD P:47 S:F9 PPU:196,121 22318
F184  AD 47 06  LDA $0647 = $4A                  A:02 X:02 Y:DD P:47 S:FB PPU:196,139 22324
F187  C9 4A     CMP #$4A                         A:4A X:02 Y:DD P:45 S:FB PPU:196,151 22328
F189  F0 02     BEQ $F18D                        A:4A X:02 Y:DD P:47 S:FB PPU:196,157 22330
F18D  A0 FF     LDY #$FF                         A:4A X:02 Y:DD P:47 S:FB PPU:196,166 22333
F18F  A9 29     LDA #$29                         A:4A X:02 Y:FF P:C5 S:FB PPU:196,172 22335
F191  8D 47 06  STA $0647 = $4A                  A:29 X:02 Y:FF P:45 S:FB PPU:196,178 22337
F194  20 64 FB  JSR $FB64                        A:29 X:02 Y:FF P:45 S:FB PPU:196,190 22341
FB64  B8        CLV                              A:29 X:02 Y:FF P:45 S:F9 PPU:196,208 22347
FB65  18        CLC                              A:29 X:02 Y:FF P:05 S:F9 PPU:196,214 22349
FB66  A9 42     LDA #$42                         A:29 X:02 Y:FF P:04 S:F9 PPU:196,220 22351
FB68  60        RTS                              A:42 X:02 Y:FF P:04 S:F9 PPU:196,226 22353
F197  33 45     RLA ($45),Y = $29                A:42 X:02 Y:FF P:04 S:FB PPU:196,244 22359
F199  EA        NOP                              A:42 X:02 Y:FF P:04 S:FB PPU:196,268 22367
F19A  EA        NOP                              A:42 X:02 Y:FF P:04 S:FB PPU:196,274 22369
F19B  08        PHP                              A:42 X:02 Y:FF P:04 S:FB PPU:196,280 22371
F19C  48        PHA                              A:42 X:02 Y:FF P:04 S:FA PPU:196,289 22374
F19D  A0 DE     LDY #$DE                         A:42 X:02 Y:FF P:04 S:F9 PPU:196,298 22377
F19F  68        PLA                              A:42 X:02 Y:DE P:84 S:F9 PPU:196,304 22379
F1A0  28        PLP                              A:42 X:02 Y:DE P:04 S:FA PPU:196,316 22383
F1A1  20 69 FB  JSR $FB69                        A:42 X:02 Y:DE P:04 S:FB PPU:196,328 22387
FB69  70 0A     BVS $FB75                        A:42 X:02 Y:DE P:04 S:F9 PPU:197,5   22393
FB6B  F0 08     BEQ $FB75                        A:42 X:02 Y:DE P:04 S:F9 PPU:197,11  22395
FB6D  30 06     BMI $FB75                        A:42 X:02 Y:DE P:04 S:F9 PPU:197,17  22397
FB6F  B0 04     BCS $FB75                        A:42 X:02 Y:DE P:04 S:F9 PPU:197,23  22399
FB71  C9 42     CMP #$42                         A:42 X:02 Y:DE P:04 S:F9 PPU:197,29  22401
FB73  F0 02     BEQ $FB77                        A:42 X:02 Y:DE P:07 S:F9 PPU:197,35  22403
FB77  60        RTS                              A:42 X:02 Y:DE P:07 S:F9 PPU:197,44  22406
F1A4  AD 47 06  LDA $0647 = $52                  A:42 X:02 Y:DE P:07 S:FB PPU:197,62  22412
F1A7  C9 52     CMP #$52                         A:52 X:02 Y:DE P:05 S:FB PPU:197,74  22416
F1A9  F0 02     BEQ $F1AD                        A:52 X:02 Y:DE P:07 S:FB PPU:197,80  22418
F1AD  A0 FF     LDY #$FF                         A:52 X:02 Y:DE P:07 S:FB PPU:197,89  22421
F1AF  A9 37     LDA #$37                         A:52 X:02 Y:FF P:85 S:FB PPU:197,95  22423
F1B1  8D 47 06  STA $0647 = $52                  A:37 X:02 Y:FF P:05 S:FB PPU:197,101 22425
F1B4  20 68 FA  JSR $FA68                        A:37 X:02 Y:FF P:05 S:FB PPU:197,113 22429
FA68  24 01     BIT $01 = $FF                    A:37 X:02 Y:FF P:05 S:F9 PPU:197,131 22435
FA6A  38        SEC                              A:37 X:02 Y:FF P:C5 S:F9 PPU:197,140 22438
FA6B  A9 75     LDA #$75                         A:37 X:02 Y:FF P:C5 S:F9 PPU:197,146 22440
FA6D  60        RTS                              A:75 X:02 Y:FF P:45 S:F9 PPU:197,152 22442
F1B7  33 45     RLA ($45),Y = $37                A:75 X:02 Y:FF P:45 S:FB PPU:197,170 22448
F1B9  EA        NOP                              A:65 X:02 Y:FF P:44 S:FB PPU:197,194 22456
F1BA  EA        NOP                              A:65 X:02 Y:FF P:44 S:FB PPU:197,200 22458
F1BB  08        PHP                              A:65 X:02 Y:FF P:44 S:FB PPU:197,206 22460
F1BC  48        PHA                              A:65 X:02 Y:FF P:44 S:FA PPU:197,215 22463
F1BD  A0 DF     LDY #$DF                         A:65 X:02 Y:FF P:44 S:F9 PPU:197,224 22466
F1BF  68        PLA                              A:65 X:02 Y:DF P:C4 S:F9 PPU:197,230 22468
F1C0  28        PLP                              A:65 X:02 Y:DF P:44 S:FA PPU:197,242 22472
F1C1  20 6E FA  JSR $FA6E                        A:65 X:02 Y:DF P:44 S:FB PPU:197,254 22476
FA6E  50 76     BVC $FAE6                        A:65 X:02 Y:DF P:44 S:F9 PPU:197,272 22482
FA70  F0 74     BEQ $FAE6                        A:65 X:02 Y:DF P:44 S:F9 PPU:197,278 22484
FA72  30 72     BMI $FAE6                        A:65 X:02 Y:DF P:44 S:F9 PPU:197,284 22486
FA74  B0 70     BCS $FAE6                        A:65 X:02 Y:DF P:44 S:F9 PPU:197,290 22488
FA76  C9 65     CMP #$65                         A:65 X:02 Y:DF P:44 S:F9 PPU:197,296 22490
FA78  D0 6C     BNE $FAE6                        A:65 X:02 Y:DF P:47 S:F9 PPU:197,302 22492
FA7A  60        RTS                              A:65 X:02 Y:DF P:47 S:F9 PPU:197,308 22494
F1C4  AD 47 06  LDA $0647 = $6F                  A:65 X:02 Y:DF P:47 S:FB PPU:197,326 22500
F1C7  C9 6F     CMP #$6F                         A:6F X:02 Y:DF P:45 S:FB PPU:197,338 22504
F1C9  F0 02     BEQ $F1CD                        A:6F X:02 Y:DF P:47 S:FB PPU:198,3   22506
F1CD  A0 E0     LDY #$E0                         A:6F X:02 Y:DF P:47 S:FB PPU:198,12  22509
F1CF  A2 FF     LDX #$FF                         A:6F X:02 Y:E0 P:C5 S:FB PPU:198,18  22511
F1D1  A9 A5     LDA #$A5                         A:6F X:FF Y:E0 P:C5 S:FB PPU:198,24  22513
F1D3  85 47     STA $47 = $6F                    A:A5 X:FF Y:E0 P:C5 S:FB PPU:198,30  22515
F1D5  20 53 FB  JSR $FB53                        A:A5 X:FF Y:E0 P:C5 S:FB PPU:198,39  22518
FB53  24 01     BIT $01 = $FF                    A:A5 X:FF Y:E0 P:C5 S:F9 PPU:198,57  22524
FB55  18        CLC                              A:A5 X:FF Y:E0 P:C5 S:F9 PPU:198,66  22527
FB56  A9 B3     LDA #$B3                         A:A5 X:FF Y:E0 P:C4 S:F9 PPU:198,72  22529
FB58  60        RTS                              A:B3 X:FF Y:E0 P:C4 S:F9 PPU:198,78  22531
F1D8  37 48     RLA $48,X = $A5                  A:B3 X:FF Y:E0 P:C4 S:FB PPU:198,96  22537
F1DA  EA        NOP                              A:02 X:FF Y:E0 P:45 S:FB PPU:198,114 22543
F1DB  EA        NOP                              A:02 X:FF Y:E0 P:45 S:FB PPU:198,120 22545
F1DC  EA        NOP                              A:02 X:FF Y:E0 P:45 S:FB PPU:198,126 22547
F1DD  EA        NOP                              A:02 X:FF Y:E0 P:45 S:FB PPU:198,132 22549
F1DE  20 59 FB  JSR $FB59                        A:02 X:FF Y:E0 P:45 S:FB PPU:198,138 22551
FB59  50 1A     BVC $FB75                        A:02 X:FF Y:E0 P:45 S:F9 PPU:198,156 22557
FB5B  90 18     BCC $FB75                        A:02 X:FF Y:E0 P:45 S:F9 PPU:198,162 22559
FB5D  30 16     BMI $FB75                        A:02 X:FF Y:E0 P:45 S:F9 PPU:198,168 22561
FB5F  C9 02     CMP #$02                         A:02 X:FF Y:E0 P:45 S:F9 PPU:198,174 22563
FB61  D0 12     BNE $FB75                        A:02 X:FF Y:E0 P:47 S:F9 PPU:198,180 22565
FB63  60        RTS                              A:02 X:FF Y:E0 P:47 S:F9 PPU:198,186 22567
F1E1  A5 47     LDA $47 = $4A                    A:02 X:FF Y:E0 P:47 S:FB PPU:198,204 22573
F1E3  C9 4A     CMP #$4A                         A:4A X:FF Y:E0 P:45 S:FB PPU:198,213 22576
F1E5  F0 02     BEQ $F1E9                        A:4A X:FF Y:E0 P:47 S:FB PPU:198,219 22578
F1E9  C8        INY                              A:4A X:FF Y:E0 P:47 S:FB PPU:198,228 22581
F1EA  A9 29     LDA #$29                         A:4A X:FF Y:E1 P:C5 S:FB PPU:198,234 22583
F1EC  85 47     STA $47 = $4A                    A:29 X:FF Y:E1 P:45 S:FB PPU:198,240 22585
F1EE  20 64 FB  JSR $FB64                        A:29 X:FF Y:E1 P:45 S:FB PPU:198,249 22588
FB64  B8        CLV                              A:29 X:FF Y:E1 P:45 S:F9 PPU:198,267 22594
FB65  18        CLC                              A:29 X:FF Y:E1 P:05 S:F9 PPU:198,273 22596
FB66  A9 42     LDA #$42                         A:29 X:FF Y:E1 P:04 S:F9 PPU:198,279 22598
FB68  60        RTS                              A:42 X:FF Y:E1 P:04 S:F9 PPU:198,285 22600
F1F1  37 48     RLA $48,X = $29                  A:42 X:FF Y:E1 P:04 S:FB PPU:198,303 22606
F1F3  EA        NOP                              A:42 X:FF Y:E1 P:04 S:FB PPU:198,321 22612
F1F4  EA        NOP                              A:42 X:FF Y:E1 P:04 S:FB PPU:198,327 22614
F1F5  EA        NOP                              A:42 X:FF Y:E1 P:04 S:FB PPU:198,333 22616
F1F6  EA        NOP                              A:42 X:FF Y:E1 P:04 S:FB PPU:198,339 22618
F1F7  20 69 FB  JSR $FB69                        A:42 X:FF Y:E1 P:04 S:FB PPU:199,4   22620
FB69  70 0A     BVS $FB75                        A:42 X:FF Y:E1 P:04 S:F9 PPU:199,22  22626
FB6B  F0 08     BEQ $FB75                        A:42 X:FF Y:E1 P:04 S:F9 PPU:199,28  22628
FB6D  30 06     BMI $FB75                        A:42 X:FF Y:E1 P:04 S:F9 PPU:199,34  22630
FB6F  B0 04     BCS $FB75                        A:42 X:FF Y:E1 P:04 S:F9 PPU:199,40  22632
FB71  C9 42     CMP #$42                         A:42 X:FF Y:E1 P:04 S:F9 PPU:199,46  22634
FB73  F0 02     BEQ $FB77                        A:42 X:FF Y:E1 P:07 S:F9 PPU:199,52  22636
FB77  60        RTS                              A:42 X:FF Y:E1 P:07 S:F9 PPU:199,61  22639
F1FA  A5 47     LDA $47 = $52                    A:42 X:FF Y:E1 P:07 S:FB PPU:199,79  22645
F1FC  C9 52     CMP #$52                         A:52 X:FF Y:E1 P:05 S:FB PPU:199,88  22648
F1FE  F0 02     BEQ $F202                        A:52 X:FF Y:E1 P:07 S:FB PPU:199,94  22650
F202  C8        INY                              A:52 X:FF Y:E1 P:07 S:FB PPU:199,103 22653
F203  A9 37     LDA #$37                         A:52 X:FF Y:E2 P:85 S:FB PPU:199,109 22655
F205  85 47     STA $47 = $52                    A:37 X:FF Y:E2 P:05 S:FB PPU:199,115 22657
F207  20 68 FA  JSR $FA68                        A:37 X:FF Y:E2 P:05 S:FB PPU:199,124 22660
FA68  24 01     BIT $01 = $FF                    A:37 X:FF Y:E2 P:05 S:F9 PPU:199,142 22666
FA6A  38        SEC                              A:37 X:FF Y:E2 P:C5 S:F9 PPU:199,151 22669
FA6B  A9 75     LDA #$75                         A:37 X:FF Y:E2 P:C5 S:F9 PPU:199,157 22671
FA6D  60        RTS                              A:75 X:FF Y:E2 P:45 S:F9 PPU:199,163 22673
F20A  37 48     RLA $48,X = $37                  A:75 X:FF Y:E2 P:45 S:FB PPU:199,181 22679
F20C  EA        NOP                              A:65 X:FF Y:E2 P:44 S:FB PPU:199,199 22685
F20D  EA        NOP                              A:65 X:FF Y:E2 P:44 S:FB PPU:199,205 22687
F20E  EA        NOP                              A:65 X:FF Y:E2 P:44 S:FB PPU:199,211 22689
F20F  EA        NOP                              A:65 X:FF Y:E2 P:44 S:FB PPU:199,217 22691
F210  20 6E FA  JSR $FA6E                        A:65 X:FF Y:E2 P:44 S:FB PPU:199,223 22693
FA6E  50 76     BVC $FAE6                        A:65 X:FF Y:E2 P:44 S:F9 PPU:199,241 22699
FA70  F0 74     BEQ $FAE6                        A:65 X:FF Y:E2 P:44 S:F9 PPU:199,247 22701
FA72  30 72     BMI $FAE6                        A:65 X:FF Y:E2 P:44 S:F9 PPU:199,253 22703
FA74  B0 70     BCS $FAE6                        A:65 X:FF Y:E2 P:44 S:F9 PPU:199,259 22705
FA76  C9 65     CMP #$65                         A:65 X:FF Y:E2 P:44 S:F9 PPU:199,265 22707
FA78  D0 6C     BNE $FAE6                        A:65 X:FF Y:E2 P:47 S:F9 PPU:199,271 22709
FA7A  60        RTS                              A:65 X:FF Y:E2 P:47 S:F9 PPU:199,277 22711
F213  A5 47     LDA $47 = $6F                    A:65 X:FF Y:E2 P:47 S:FB PPU:199,295 22717
F215  C9 6F     CMP #$6F                         A:6F X:FF Y:E2 P:45 S:FB PPU:199,304 22720
F217  F0 02     BEQ $F21B                        A:6F X:FF Y:E2 P:47 S:FB PPU:199,310 22722
F21B  A9 A5     LDA #$A5                         A:6F X:FF Y:E2 P:47 S:FB PPU:199,319 22725
F21D  8D 47 06  STA $0647 = $6F                  A:A5 X:FF Y:E2 P:C5 S:FB PPU:199,325 22727
F220  A0 FF     LDY #$FF                         A:A5 X:FF Y:E2 P:C5 S:FB PPU:199,337 22731
F222  20 53 FB  JSR $FB53                        A:A5 X:FF Y:FF P:C5 S:FB PPU:200,2   22733
FB53  24 01     BIT $01 = $FF                    A:A5 X:FF Y:FF P:C5 S:F9 PPU:200,20  22739
FB55  18        CLC                              A:A5 X:FF Y:FF P:C5 S:F9 PPU:200,29  22742
FB56  A9 B3     LDA #$B3                         A:A5 X:FF Y:FF P:C4 S:F9 PPU:200,35  22744
FB58  60        RTS                              A:B3 X:FF Y:FF P:C4 S:F9 PPU:200,41  22746
F225  3B 48 05  RLA $0548,Y = $A5                A:B3 X:FF Y:FF P:C4 S:FB PPU:200,59  22752
F228  EA        NOP                              A:02 X:FF Y:FF P:45 S:FB PPU:200,80  22759
F229  EA        NOP                              A:02 X:FF Y:FF P:45 S:FB PPU:200,86  22761
F22A  08        PHP                              A:02 X:FF Y:FF P:45 S:FB PPU:200,92  22763
F22B  48        PHA                              A:02 X:FF Y:FF P:45 S:FA PPU:200,101 22766
F22C  A0 E3     LDY #$E3                         A:02 X:FF Y:FF P:45 S:F9 PPU:200,110 22769
F22E  68        PLA                              A:02 X:FF Y:E3 P:C5 S:F9 PPU:200,116 22771
F22F  28        PLP                              A:02 X:FF Y:E3 P:45 S:FA PPU:200,128 22775
F230  20 59 FB  JSR $FB59                        A:02 X:FF Y:E3 P:45 S:FB PPU:200,140 22779
FB59  50 1A     BVC $FB75                        A:02 X:FF Y:E3 P:45 S:F9 PPU:200,158 22785
FB5B  90 18     BCC $FB75                        A:02 X:FF Y:E3 P:45 S:F9 PPU:200,164 22787
FB5D  30 16     BMI $FB75                        A:02 X:FF Y:E3 P:45 S:F9 PPU:200,170 22789
FB5F  C9 02     CMP #$02                         A:02 X:FF Y:E3 P:45 S:F9 PPU:200,176 22791
FB61  D0 12     BNE $FB75                        A:02 X:FF Y:E3 P:47 S:F9 PPU:200,182 22793
FB63  60        RTS                              A:02 X:FF Y:E3 P:47 S:F9 PPU:200,188 22795
F233  AD 47 06  LDA $0647 = $4A                  A:02 X:FF Y:E3 P:47 S:FB PPU:200,206 22801
F236  C9 4A     CMP #$4A                         A:4A X:FF Y:E3 P:45 S:FB PPU:200,218 22805
F238  F0 02     BEQ $F23C                        A:4A X:FF Y:E3 P:47 S:FB PPU:200,224 22807
F23C  A0 FF     LDY #$FF                         A:4A X:FF Y:E3 P:47 S:FB PPU:200,233 22810
F23E  A9 29     LDA #$29                         A:4A X:FF Y:FF P:C5 S:FB PPU:200,239 22812
F240  8D 47 06  STA $0647 = $4A                  A:29 X:FF Y:FF P:45 S:FB PPU:200,245 22814
F243  20 64 FB  JSR $FB64                        A:29 X:FF Y:FF P:45 S:FB PPU:200,257 22818
FB64  B8        CLV                              A:29 X:FF Y:FF P:45 S:F9 PPU:200,275 22824
FB65  18        CLC                              A:29 X:FF Y:FF P:05 S:F9 PPU:200,281 22826
FB66  A9 42     LDA #$42                         A:29 X:FF Y:FF P:04 S:F9 PPU:200,287 22828
FB68  60        RTS                              A:42 X:FF Y:FF P:04 S:F9 PPU:200,293 22830
F246  3B 48 05  RLA $0548,Y = $29                A:42 X:FF Y:FF P:04 S:FB PPU:200,311 22836
F249  EA        NOP                              A:42 X:FF Y:FF P:04 S:FB PPU:200,332 22843
F24A  EA        NOP                              A:42 X:FF Y:FF P:04 S:FB PPU:200,338 22845
F24B  08        PHP                              A:42 X:FF Y:FF P:04 S:FB PPU:201,3   22847
F24C  48        PHA                              A:42 X:FF Y:FF P:04 S:FA PPU:201,12  22850
F24D  A0 E4     LDY #$E4                         A:42 X:FF Y:FF P:04 S:F9 PPU:201,21  22853
F24F  68        PLA                              A:42 X:FF Y:E4 P:84 S:F9 PPU:201,27  22855
F250  28        PLP                              A:42 X:FF Y:E4 P:04 S:FA PPU:201,39  22859
F251  20 69 FB  JSR $FB69                        A:42 X:FF Y:E4 P:04 S:FB PPU:201,51  22863
FB69  70 0A     BVS $FB75                        A:42 X:FF Y:E4 P:04 S:F9 PPU:201,69  22869
FB6B  F0 08     BEQ $FB75                        A:42 X:FF Y:E4 P:04 S:F9 PPU:201,75  22871
FB6D  30 06     BMI $FB75                        A:42 X:FF Y:E4 P:04 S:F9 PPU:201,81  22873
FB6F  B0 04     BCS $FB75                        A:42 X:FF Y:E4 P:04 S:F9 PPU:201,87  22875
FB71  C9 42     CMP #$42                         A:42 X:FF Y:E4 P:04 S:F9 PPU:201,93  22877
FB73  F0 02     BEQ $FB77                        A:42 X:FF Y:E4 P:07 S:F9 PPU:201,99  22879
FB77  60        RTS                              A:42 X:FF Y:E4 P:07 S:F9 PPU:201,108 22882
F254  AD 47 06  LDA $0647 = $52                  A:42 X:FF Y:E4 P:07 S:FB PPU:201,126 22888
F257  C9 52     CMP #$52                         A:52 X:FF Y:E4 P:05 S:FB PPU:201,138 22892
F259  F0 02     BEQ $F25D                        A:52 X:FF Y:E4 P:07 S:FB PPU:201,144 22894
F25D  A0 FF     LDY #$FF                         A:52 X:FF Y:E4 P:07 S:FB PPU:201,153 22897
F25F  A9 37     LDA #$37                         A:52 X:FF Y:FF P:85 S:FB PPU:201,159 22899
F261  8D 47 06  STA $0647 = $52                  A:37 X:FF Y:FF P:05 S:FB PPU:201,165 22901
F264  20 68 FA  JSR $FA68                        A:37 X:FF Y:FF P:05 S:FB PPU:201,177 22905
FA68  24 01     BIT $01 = $FF                    A:37 X:FF Y:FF P:05 S:F9 PPU:201,195 22911
FA6A  38        SEC                              A:37 X:FF Y:FF P:C5 S:F9 PPU:201,204 22914
FA6B  A9 75     LDA #$75                         A:37 X:FF Y:FF P:C5 S:F9 PPU:201,210 22916
FA6D  60        RTS                              A:75 X:FF Y:FF P:45 S:F9 PPU:201,216 22918
F267  3B 48 05  RLA $0548,Y = $37                A:75 X:FF Y:FF P:45 S:FB PPU:201,234 22924
F26A  EA        NOP                              A:65 X:FF Y:FF P:44 S:FB PPU:201,255 22931
F26B  EA        NOP                              A:65 X:FF Y:FF P:44 S:FB PPU:201,261 22933
F26C  08        PHP                              A:65 X:FF Y:FF P:44 S:FB PPU:201,267 22935
F26D  48        PHA                              A:65 X:FF Y:FF P:44 S:FA PPU:201,276 22938
F26E  A0 E5     LDY #$E5                         A:65 X:FF Y:FF P:44 S:F9 PPU:201,285 22941
F270  68        PLA                              A:65 X:FF Y:E5 P:C4 S:F9 PPU:201,291 22943
F271  28        PLP                              A:65 X:FF Y:E5 P:44 S:FA PPU:201,303 22947
F272  20 6E FA  JSR $FA6E                        A:65 X:FF Y:E5 P:44 S:FB PPU:201,315 22951
FA6E  50 76     BVC $FAE6                        A:65 X:FF Y:E5 P:44 S:F9 PPU:201,333 22957
FA70  F0 74     BEQ $FAE6                        A:65 X:FF Y:E5 P:44 S:F9 PPU:201,339 22959
FA72  30 72     BMI $FAE6                        A:65 X:FF Y:E5 P:44 S:F9 PPU:202,4   22961
FA74  B0 70     BCS $FAE6                        A:65 X:FF Y:E5 P:44 S:F9 PPU:202,10  22963
FA76  C9 65     CMP #$65                         A:65 X:FF Y:E5 P:44 S:F9 PPU:202,16  22965
FA78  D0 6C     BNE $FAE6                        A:65 X:FF Y:E5 P:47 S:F9 PPU:202,22  22967
FA7A  60        RTS                              A:65 X:FF Y:E5 P:47 S:F9 PPU:202,28  22969
F275  AD 47 06  LDA $0647 = $6F                  A:65 X:FF Y:E5 P:47 S:FB PPU:202,46  22975
F278  C9 6F     CMP #$6F                         A:6F X:FF Y:E5 P:45 S:FB PPU:202,58  22979
F27A  F0 02     BEQ $F27E                        A:6F X:FF Y:E5 P:47 S:FB PPU:202,64  22981
F27E  A0 E6     LDY #$E6                         A:6F X:FF Y:E5 P:47 S:FB PPU:202,73  22984
F280  A2 FF     LDX #$FF                         A:6F X:FF Y:E6 P:C5 S:FB PPU:202,79  22986
F282  A9 A5     LDA #$A5                         A:6F X:FF Y:E6 P:C5 S:FB PPU:202,85  22988
F284  8D 47 06  STA $0647 = $6F                  A:A5 X:FF Y:E6 P:C5 S:FB PPU:202,91  22990
F287  20 53 FB  JSR $FB53                        A:A5 X:FF Y:E6 P:C5 S:FB PPU:202,103 22994
FB53  24 01     BIT $01 = $FF                    A:A5 X:FF Y:E6 P:C5 S:F9 PPU:202,121 23000
FB55  18        CLC                              A:A5 X:FF Y:E6 P:C5 S:F9 PPU:202,130 23003
FB56  A9 B3     LDA #$B3                         A:A5 X:FF Y:E6 P:C4 S:F9 PPU:202,136 23005
FB58  60        RTS                              A:B3 X:FF Y:E6 P:C4 S:F9 PPU:202,142 23007
F28A  3F 48 05  RLA $0548,X = $A5                A:B3 X:FF Y:E6 P:C4 S:FB PPU:202,160 23013
F28D  EA        NOP                              A:02 X:FF Y:E6 P:45 S:FB PPU:202,181 23020
F28E  EA        NOP                              A:02 X:FF Y:E6 P:45 S:FB PPU:202,187 23022
F28F  EA        NOP                              A:02 X:FF Y:E6 P:45 S:FB PPU:202,193 23024
F290  EA        NOP                              A:02 X:FF Y:E6 P:45 S:FB PPU:202,199 23026
F291  20 59 FB  JSR $FB59                        A:02 X:FF Y:E6 P:45 S:FB PPU:202,205 23028
FB59  50 1A     BVC $FB75                        A:02 X:FF Y:E6 P:45 S:F9 PPU:202,223 23034
FB5B  90 18     BCC $FB75                        A:02 X:FF Y:E6 P:45 S:F9 PPU:202,229 23036
FB5D  30 16     BMI $FB75                        A:02 X:FF Y:E6 P:45 S:F9 PPU:202,235 23038
FB5F  C9 02     CMP #$02                         A:02 X:FF Y:E6 P:45 S:F9 PPU:202,241 23040
FB61  D0 12     BNE $FB75                        A:02 X:FF Y:E6 P:47 S:F9 PPU:202,247 23042
FB63  60        RTS                              A:02 X:FF Y:E6 P:47 S:F9 PPU:202,253 23044
F294  AD 47 06  LDA $0647 = $4A                  A:02 X:FF Y:E6 P:47 S:FB PPU:202,271 23050
F297  C9 4A     CMP #$4A                         A:4A X:FF Y:E6 P:45 S:FB PPU:202,283 23054
F299  F0 02     BEQ $F29D                        A:4A X:FF Y:E6 P:47 S:FB PPU:202,289 23056
F29D  C8        INY                              A:4A X:FF Y:E6 P:47 S:FB PPU:202,298 23059
F29E  A9 29     LDA #$29                         A:4A X:FF Y:E7 P:C5 S:FB PPU:202,304 23061
F2A0  8D 47 06  STA $0647 = $4A                  A:29 X:FF Y:E7 P:45 S:FB PPU:202,310 23063
F2A3  20 64 FB  JSR $FB64                        A:29 X:FF Y:E7 P:45 S:FB PPU:202,322 23067
FB64  B8        CLV                              A:29 X:FF Y:E7 P:45 S:F9 PPU:202,340 23073
FB65  18        CLC                              A:29 X:FF Y:E7 P:05 S:F9 PPU:203,5   23075
FB66  A9 42     LDA #$42                         A:29 X:FF Y:E7 P:04 S:F9 PPU:203,11  23077
FB68  60        RTS                              A:42 X:FF Y:E7 P:04 S:F9 PPU:203,17  23079
F2A6  3F 48 05  RLA $0548,X = $29                A:42 X:FF Y:E7 P:04 S:FB PPU:203,35  23085
F2A9  EA        NOP                              A:42 X:FF Y:E7 P:04 S:FB PPU:203,56  23092
F2AA  EA        NOP                              A:42 X:FF Y:E7 P:04 S:FB PPU:203,62  23094
F2AB  EA        NOP                              A:42 X:FF Y:E7 P:04 S:FB PPU:203,68  23096
F2AC  EA        NOP                              A:42 X:FF Y:E7 P:04 S:FB PPU:203,74  23098
F2AD  20 69 FB  JSR $FB69                        A:42 X:FF Y:E7 P:04 S:FB PPU:203,80  23100
FB69  70 0A     BVS $FB75                        A:42 X:FF Y:E7 P:04 S:F9 PPU:203,98  23106
FB6B  F0 08     BEQ $FB75                        A:42 X:FF Y:E7 P:04 S:F9 PPU:203,104 23108
FB6D  30 06     BMI $FB75                        A:42 X:FF Y:E7 P:04 S:F9 PPU:203,110 23110
FB6F  B0 04     BCS $FB75                        A:42 X:FF Y:E7 P:04 S:F9 PPU:203,116 23112
FB71  C9 42     CMP #$42                         A:42 X:FF Y:E7 P:04 S:F9 PPU:203,122 23114
FB73  F0 02     BEQ $FB77                        A:42 X:FF Y:E7 P:07 S:F9 PPU:203,128 23116
FB77  60        RTS                              A:42 X:FF Y:E7 P:07 S:F9 PPU:203,137 23119
F2B0  AD 47 06  LDA $0647 = $52                  A:42 X:FF Y:E7 P:07 S:FB PPU:203,155 23125
F2B3  C9 52     CMP #$52                         A:52 X:FF Y:E7 P:05 S:FB PPU:203,167 23129
F2B5  F0 02     BEQ $F2B9                        A:52 X:FF Y:E7 P:07 S:FB PPU:203,173 23131
F2B9  C8        INY                              A:52 X:FF Y:E7 P:07 S:FB PPU:203,182 23134
F2BA  A9 37     LDA #$37                         A:52 X:FF Y:E8 P:85 S:FB PPU:203,188 23136
F2BC  8D 47 06  STA $0647 = $52                  A:37 X:FF Y:E8 P:05 S:FB PPU:203,194 23138
F2BF  20 68 FA  JSR $FA68                        A:37 X:FF Y:E8 P:05 S:FB PPU:203,206 23142
FA68  24 01     BIT $01 = $FF                    A:37 X:FF Y:E8 P:05 S:F9 PPU:203,224 23148
FA6A  38        SEC                              A:37 X:FF Y:E8 P:C5 S:F9 PPU:203,233 23151
FA6B  A9 75     LDA #$75                         A:37 X:FF Y:E8 P:C5 S:F9 PPU:203,239 23153
FA6D  60        RTS                              A:75 X:FF Y:E8 P:45 S:F9 PPU:203,245 23155
F2C2  3F 48 05  RLA $0548,X = $37                A:75 X:FF Y:E8 P:45 S:FB PPU:203,263 23161
F2C5  EA        NOP                              A:65 X:FF Y:E8 P:44 S:FB PPU:203,284 23168
F2C6  EA        NOP                              A:65 X:FF Y:E8 P:44 S:FB PPU:203,290 23170
F2C7  EA        NOP                              A:65 X:FF Y:E8 P:44 S:FB PPU:203,296 23172
F2C8  EA        NOP                              A:65 X:FF Y:E8 P:44 S:FB PPU:203,302 23174
F2C9  20 6E FA  JSR $FA6E                        A:65 X:FF Y:E8 P:44 S:FB PPU:203,308 23176
FA6E  50 76     BVC $FAE6                        A:65 X:FF Y:E8 P:44 S:F9 PPU:203,326 23182
FA70  F0 74     BEQ $FAE6                        A:65 X:FF Y:E8 P:44 S:F9 PPU:203,332 23184
FA72  30 72     BMI $FAE6                        A:65 X:FF Y:E8 P:44 S:F9 PPU:203,338 23186
FA74  B0 70     BCS $FAE6                        A:65 X:FF Y:E8 P:44 S:F9 PPU:204,3   23188
FA76  C9 65     CMP #$65                         A:65 X:FF Y:E8 P:44 S:F9 PPU:204,9   23190
FA78  D0 6C     BNE $FAE6                        A:65 X:FF Y:E8 P:47 S:F9 PPU:204,15  23192
FA7A  60        RTS                              A:65 X:FF Y:E8 P:47 S:F9 PPU:204,21  23194
F2CC  AD 47 06  LDA $0647 = $6F                  A:65 X:FF Y:E8 P:47 S:FB PPU:204,39  23200
F2CF  C9 6F     CMP #$6F                         A:6F X:FF Y:E8 P:45 S:FB PPU:204,51  23204
F2D1  F0 02     BEQ $F2D5                        A:6F X:FF Y:E8 P:47 S:FB PPU:204,57  23206
F2D5  60        RTS                              A:6F X:FF Y:E8 P:47 S:FB PPU:204,66  23209
C647  20 D6 F2  JSR $F2D6                        A:6F X:FF Y:E8 P:47 S:FD PPU:204,84  23215
F2D6  A9 FF     LDA #$FF                         A:6F X:FF Y:E8 P:47 S:FB PPU:204,102 23221
F2D8  85 01     STA $01 = $FF                    A:FF X:FF Y:E8 P:C5 S:FB PPU:204,108 23223
F2DA  A0 E9     LDY #$E9                         A:FF X:FF Y:E8 P:C5 S:FB PPU:204,117 23226
F2DC  A2 02     LDX #$02                         A:FF X:FF Y:E9 P:C5 S:FB PPU:204,123 23228
F2DE  A9 47     LDA #$47                         A:FF X:02 Y:E9 P:45 S:FB PPU:204,129 23230
F2E0  85 47     STA $47 = $6F                    A:47 X:02 Y:E9 P:45 S:FB PPU:204,135 23232
F2E2  A9 06     LDA #$06                         A:47 X:02 Y:E9 P:45 S:FB PPU:204,144 23235
F2E4  85 48     STA $48 = $06                    A:06 X:02 Y:E9 P:45 S:FB PPU:204,150 23237
F2E6  A9 A5     LDA #$A5                         A:06 X:02 Y:E9 P:45 S:FB PPU:204,159 23240
F2E8  8D 47 06  STA $0647 = $6F                  A:A5 X:02 Y:E9 P:C5 S:FB PPU:204,165 23242
F2EB  20 1D FB  JSR $FB1D                        A:A5 X:02 Y:E9 P:C5 S:FB PPU:204,177 23246
FB1D  24 01     BIT $01 = $FF                    A:A5 X:02 Y:E9 P:C5 S:F9 PPU:204,195 23252
FB1F  18        CLC                              A:A5 X:02 Y:E9 P:C5 S:F9 PPU:204,204 23255
FB20  A9 B3     LDA #$B3                         A:A5 X:02 Y:E9 P:C4 S:F9 PPU:204,210 23257
FB22  60        RTS                              A:B3 X:02 Y:E9 P:C4 S:F9 PPU:204,216 23259
F2EE  43 45     SRE ($45,X) = $A5                A:B3 X:02 Y:E9 P:C4 S:FB PPU:204,234 23265
F2F0  EA        NOP                              A:E1 X:02 Y:E9 P:C5 S:FB PPU:204,258 23273
F2F1  EA        NOP                              A:E1 X:02 Y:E9 P:C5 S:FB PPU:204,264 23275
F2F2  EA        NOP                              A:E1 X:02 Y:E9 P:C5 S:FB PPU:204,270 23277
F2F3  EA        NOP                              A:E1 X:02 Y:E9 P:C5 S:FB PPU:204,276 23279
F2F4  20 23 FB  JSR $FB23                        A:E1 X:02 Y:E9 P:C5 S:FB PPU:204,282 23281
FB23  50 50     BVC $FB75                        A:E1 X:02 Y:E9 P:C5 S:F9 PPU:204,300 23287
FB25  90 4E     BCC $FB75                        A:E1 X:02 Y:E9 P:C5 S:F9 PPU:204,306 23289
FB27  10 4C     BPL $FB75                        A:E1 X:02 Y:E9 P:C5 S:F9 PPU:204,312 23291
FB29  C9 E1     CMP #$E1                         A:E1 X:02 Y:E9 P:C5 S:F9 PPU:204,318 23293
FB2B  D0 48     BNE $FB75                        A:E1 X:02 Y:E9 P:47 S:F9 PPU:204,324 23295
FB2D  60        RTS                              A:E1 X:02 Y:E9 P:47 S:F9 PPU:204,330 23297
F2F7  AD 47 06  LDA $0647 = $52                  A:E1 X:02 Y:E9 P:47 S:FB PPU:205,7   23303
F2FA  C9 52     CMP #$52                         A:52 X:02 Y:E9 P:45 S:FB PPU:205,19  23307
F2FC  F0 02     BEQ $F300                        A:52 X:02 Y:E9 P:47 S:FB PPU:205,25  23309
F300  C8        INY                              A:52 X:02 Y:E9 P:47 S:FB PPU:205,37  23313
F301  A9 29     LDA #$29                         A:52 X:02 Y:EA P:C5 S:FB PPU:205,43  23315
F303  8D 47 06  STA $0647 = $52                  A:29 X:02 Y:EA P:45 S:FB PPU:205,49  23317
F306  20 2E FB  JSR $FB2E                        A:29 X:02 Y:EA P:45 S:FB PPU:205,61  23321
FB2E  B8        CLV                              A:29 X:02 Y:EA P:45 S:F9 PPU:205,79  23327
FB2F  18        CLC                              A:29 X:02 Y:EA P:05 S:F9 PPU:205,85  23329
FB30  A9 42     LDA #$42                         A:29 X:02 Y:EA P:04 S:F9 PPU:205,91  23331
FB32  60        RTS                              A:42 X:02 Y:EA P:04 S:F9 PPU:205,97  23333
F309  43 45     SRE ($45,X) = $29                A:42 X:02 Y:EA P:04 S:FB PPU:205,115 23339
F30B  EA        NOP                              A:56 X:02 Y:EA P:05 S:FB PPU:205,139 23347
F30C  EA        NOP                              A:56 X:02 Y:EA P:05 S:FB PPU:205,145 23349
F30D  EA        NOP                              A:56 X:02 Y:EA P:05 S:FB PPU:205,151 23351
F30E  EA        NOP                              A:56 X:02 Y:EA P:05 S:FB PPU:205,157 23353
F30F  20 33 FB  JSR $FB33                        A:56 X:02 Y:EA P:05 S:FB PPU:205,163 23355
FB33  70 40     BVS $FB75                        A:56 X:02 Y:EA P:05 S:F9 PPU:205,181 23361
FB35  F0 3E     BEQ $FB75                        A:56 X:02 Y:EA P:05 S:F9 PPU:205,187 23363
FB37  30 3C     BMI $FB75                        A:56 X:02 Y:EA P:05 S:F9 PPU:205,193 23365
FB39  90 3A     BCC $FB75                        A:56 X:02 Y:EA P:05 S:F9 PPU:205,199 23367
FB3B  C9 56     CMP #$56                         A:56 X:02 Y:EA P:05 S:F9 PPU:205,205 23369
FB3D  D0 36     BNE $FB75                        A:56 X:02 Y:EA P:07 S:F9 PPU:205,211 23371
FB3F  60        RTS                              A:56 X:02 Y:EA P:07 S:F9 PPU:205,217 23373
F312  AD 47 06  LDA $0647 = $14                  A:56 X:02 Y:EA P:07 S:FB PPU:205,235 23379
F315  C9 14     CMP #$14                         A:14 X:02 Y:EA P:05 S:FB PPU:205,247 23383
F317  F0 02     BEQ $F31B                        A:14 X:02 Y:EA P:07 S:FB PPU:205,253 23385
F31B  C8        INY                              A:14 X:02 Y:EA P:07 S:FB PPU:205,262 23388
F31C  A9 37     LDA #$37                         A:14 X:02 Y:EB P:85 S:FB PPU:205,268 23390
F31E  8D 47 06  STA $0647 = $14                  A:37 X:02 Y:EB P:05 S:FB PPU:205,274 23392
F321  20 40 FB  JSR $FB40                        A:37 X:02 Y:EB P:05 S:FB PPU:205,286 23396
FB40  24 01     BIT $01 = $FF                    A:37 X:02 Y:EB P:05 S:F9 PPU:205,304 23402
FB42  38        SEC                              A:37 X:02 Y:EB P:C5 S:F9 PPU:205,313 23405
FB43  A9 75     LDA #$75                         A:37 X:02 Y:EB P:C5 S:F9 PPU:205,319 23407
FB45  60        RTS                              A:75 X:02 Y:EB P:45 S:F9 PPU:205,325 23409
F324  43 45     SRE ($45,X) = $37                A:75 X:02 Y:EB P:45 S:FB PPU:206,2   23415
F326  EA        NOP                              A:6E X:02 Y:EB P:45 S:FB PPU:206,26  23423
F327  EA        NOP                              A:6E X:02 Y:EB P:45 S:FB PPU:206,32  23425
F328  EA        NOP                              A:6E X:02 Y:EB P:45 S:FB PPU:206,38  23427
F329  EA        NOP                              A:6E X:02 Y:EB P:45 S:FB PPU:206,44  23429
F32A  20 46 FB  JSR $FB46                        A:6E X:02 Y:EB P:45 S:FB PPU:206,50  23431
FB46  50 2D     BVC $FB75                        A:6E X:02 Y:EB P:45 S:F9 PPU:206,68  23437
FB48  F0 2B     BEQ $FB75                        A:6E X:02 Y:EB P:45 S:F9 PPU:206,74  23439
FB4A  30 29     BMI $FB75                        A:6E X:02 Y:EB P:45 S:F9 PPU:206,80  23441
FB4C  90 27     BCC $FB75                        A:6E X:02 Y:EB P:45 S:F9 PPU:206,86  23443
FB4E  C9 6E     CMP #$6E                         A:6E X:02 Y:EB P:45 S:F9 PPU:206,92  23445
FB50  D0 23     BNE $FB75                        A:6E X:02 Y:EB P:47 S:F9 PPU:206,98  23447
FB52  60        RTS                              A:6E X:02 Y:EB P:47 S:F9 PPU:206,104 23449
F32D  AD 47 06  LDA $0647 = $1B                  A:6E X:02 Y:EB P:47 S:FB PPU:206,122 23455
F330  C9 1B     CMP #$1B                         A:1B X:02 Y:EB P:45 S:FB PPU:206,134 23459
F332  F0 02     BEQ $F336                        A:1B X:02 Y:EB P:47 S:FB PPU:206,140 23461
F336  C8        INY                              A:1B X:02 Y:EB P:47 S:FB PPU:206,149 23464
F337  A9 A5     LDA #$A5                         A:1B X:02 Y:EC P:C5 S:FB PPU:206,155 23466
F339  85 47     STA $47 = $47                    A:A5 X:02 Y:EC P:C5 S:FB PPU:206,161 23468
F33B  20 1D FB  JSR $FB1D                        A:A5 X:02 Y:EC P:C5 S:FB PPU:206,170 23471
FB1D  24 01     BIT $01 = $FF                    A:A5 X:02 Y:EC P:C5 S:F9 PPU:206,188 23477
FB1F  18        CLC                              A:A5 X:02 Y:EC P:C5 S:F9 PPU:206,197 23480
FB20  A9 B3     LDA #$B3                         A:A5 X:02 Y:EC P:C4 S:F9 PPU:206,203 23482
FB22  60        RTS                              A:B3 X:02 Y:EC P:C4 S:F9 PPU:206,209 23484
F33E  47 47     SRE $47 = $A5                    A:B3 X:02 Y:EC P:C4 S:FB PPU:206,227 23490
F340  EA        NOP                              A:E1 X:02 Y:EC P:C5 S:FB PPU:206,242 23495
F341  EA        NOP                              A:E1 X:02 Y:EC P:C5 S:FB PPU:206,248 23497
F342  EA        NOP                              A:E1 X:02 Y:EC P:C5 S:FB PPU:206,254 23499
F343  EA        NOP                              A:E1 X:02 Y:EC P:C5 S:FB PPU:206,260 23501
F344  20 23 FB  JSR $FB23                        A:E1 X:02 Y:EC P:C5 S:FB PPU:206,266 23503
FB23  50 50     BVC $FB75                        A:E1 X:02 Y:EC P:C5 S:F9 PPU:206,284 23509
FB25  90 4E     BCC $FB75                        A:E1 X:02 Y:EC P:C5 S:F9 PPU:206,290 23511
FB27  10 4C     BPL $FB75                        A:E1 X:02 Y:EC P:C5 S:F9 PPU:206,296 23513
FB29  C9 E1     CMP #$E1                         A:E1 X:02 Y:EC P:C5 S:F9 PPU:206,302 23515
FB2B  D0 48     BNE $FB75                        A:E1 X:02 Y:EC P:47 S:F9 PPU:206,308 23517
FB2D  60        RTS                              A:E1 X:02 Y:EC P:47 S:F9 PPU:206,314 23519
F347  A5 47     LDA $47 = $52                    A:E1 X:02 Y:EC P:47 S:FB PPU:206,332 23525
F349  C9 52     CMP #$52                         A:52 X:02 Y:EC P:45 S:FB PPU:207,0   23528
F34B  F0 02     BEQ $F34F                        A:52 X:02 Y:EC P:47 S:FB PPU:207,6   23530
F34F  C8        INY                              A:52 X:02 Y:EC P:47 S:FB PPU:207,15  23533
F350  A9 29     LDA #$29                         A:52 X:02 Y:ED P:C5 S:FB PPU:207,21  23535
F352  85 47     STA $47 = $52                    A:29 X:02 Y:ED P:45 S:FB PPU:207,27  23537
F354  20 2E FB  JSR $FB2E                        A:29 X:02 Y:ED P:45 S:FB PPU:207,36  23540
FB2E  B8        CLV                              A:29 X:02 Y:ED P:45 S:F9 PPU:207,54  23546
FB2F  18        CLC                              A:29 X:02 Y:ED P:05 S:F9 PPU:207,60  23548
FB30  A9 42     LDA #$42                         A:29 X:02 Y:ED P:04 S:F9 PPU:207,66  23550
FB32  60        RTS                              A:42 X:02 Y:ED P:04 S:F9 PPU:207,72  23552
F357  47 47     SRE $47 = $29                    A:42 X:02 Y:ED P:04 S:FB PPU:207,90  23558
F359  EA        NOP                              A:56 X:02 Y:ED P:05 S:FB PPU:207,105 23563
F35A  EA        NOP                              A:56 X:02 Y:ED P:05 S:FB PPU:207,111 23565
F35B  EA        NOP                              A:56 X:02 Y:ED P:05 S:FB PPU:207,117 23567
F35C  EA        NOP                              A:56 X:02 Y:ED P:05 S:FB PPU:207,123 23569
F35D  20 33 FB  JSR $FB33                        A:56 X:02 Y:ED P:05 S:FB PPU:207,129 23571
FB33  70 40     BVS $FB75                        A:56 X:02 Y:ED P:05 S:F9 PPU:207,147 23577
FB35  F0 3E     BEQ $FB75                        A:56 X:02 Y:ED P:05 S:F9 PPU:207,153 23579
FB37  30 3C     BMI $FB75                        A:56 X:02 Y:ED P:05 S:F9 PPU:207,159 23581
FB39  90 3A     BCC $FB75                        A:56 X:02 Y:ED P:05 S:F9 PPU:207,165 23583
FB3B  C9 56     CMP #$56                         A:56 X:02 Y:ED P:05 S:F9 PPU:207,171 23585
FB3D  D0 36     BNE $FB75                        A:56 X:02 Y:ED P:07 S:F9 PPU:207,177 23587
FB3F  60        RTS                              A:56 X:02 Y:ED P:07 S:F9 PPU:207,183 23589
F360  A5 47     LDA $47 = $14                    A:56 X:02 Y:ED P:07 S:FB PPU:207,201 23595
F362  C9 14     CMP #$14                         A:14 X:02 Y:ED P:05 S:FB PPU:207,210 23598
F364  F0 02     BEQ $F368                        A:14 X:02 Y:ED P:07 S:FB PPU:207,216 23600
F368  C8        INY                              A:14 X:02 Y:ED P:07 S:FB PPU:207,225 23603
F369  A9 37     LDA #$37                         A:14 X:02 Y:EE P:85 S:FB PPU:207,231 23605
F36B  85 47     STA $47 = $14                    A:37 X:02 Y:EE P:05 S:FB PPU:207,237 23607
F36D  20 40 FB  JSR $FB40                        A:37 X:02 Y:EE P:05 S:FB PPU:207,246 23610
FB40  24 01     BIT $01 = $FF                    A:37 X:02 Y:EE P:05 S:F9 PPU:207,264 23616
FB42  38        SEC                              A:37 X:02 Y:EE P:C5 S:F9 PPU:207,273 23619
FB43  A9 75     LDA #$75                         A:37 X:02 Y:EE P:C5 S:F9 PPU:207,279 23621
FB45  60        RTS                              A:75 X:02 Y:EE P:45 S:F9 PPU:207,285 23623
F370  47 47     SRE $47 = $37                    A:75 X:02 Y:EE P:45 S:FB PPU:207,303 23629
F372  EA        NOP                              A:6E X:02 Y:EE P:45 S:FB PPU:207,318 23634
F373  EA        NOP                              A:6E X:02 Y:EE P:45 S:FB PPU:207,324 23636
F374  EA        NOP                              A:6E X:02 Y:EE P:45 S:FB PPU:207,330 23638
F375  EA        NOP                              A:6E X:02 Y:EE P:45 S:FB PPU:207,336 23640
F376  20 46 FB  JSR $FB46                        A:6E X:02 Y:EE P:45 S:FB PPU:208,1   23642
FB46  50 2D     BVC $FB75                        A:6E X:02 Y:EE P:45 S:F9 PPU:208,19  23648
FB48  F0 2B     BEQ $FB75                        A:6E X:02 Y:EE P:45 S:F9 PPU:208,25  23650
FB4A  30 29     BMI $FB75                        A:6E X:02 Y:EE P:45 S:F9 PPU:208,31  23652
FB4C  90 27     BCC $FB75                        A:6E X:02 Y:EE P:45 S:F9 PPU:208,37  23654
FB4E  C9 6E     CMP #$6E                         A:6E X:02 Y:EE P:45 S:F9 PPU:208,43  23656
FB50  D0 23     BNE $FB75                        A:6E X:02 Y:EE P:47 S:F9 PPU:208,49  23658
FB52  60        RTS                              A:6E X:02 Y:EE P:47 S:F9 PPU:208,55  23660
F379  A5 47     LDA $47 = $1B                    A:6E X:02 Y:EE P:47 S:FB PPU:208,73  23666
F37B  C9 1B     CMP #$1B                         A:1B X:02 Y:EE P:45 S:FB PPU:208,82  23669
F37D  F0 02     BEQ $F381                        A:1B X:02 Y:EE P:47 S:FB PPU:208,88  23671
F381  C8        INY                              A:1B X:02 Y:EE P:47 S:FB PPU:208,97  23674
F382  A9 A5     LDA #$A5                         A:1B X:02 Y:EF P:C5 S:FB PPU:208,103 23676
F384  8D 47 06  STA $0647 = $1B                  A:A5 X:02 Y:EF P:C5 S:FB PPU:208,109 23678
F387  20 1D FB  JSR $FB1D                        A:A5 X:02 Y:EF P:C5 S:FB PPU:208,121 23682
FB1D  24 01     BIT $01 = $FF                    A:A5 X:02 Y:EF P:C5 S:F9 PPU:208,139 23688
FB1F  18        CLC                              A:A5 X:02 Y:EF P:C5 S:F9 PPU:208,148 23691
FB20  A9 B3     LDA #$B3                         A:A5 X:02 Y:EF P:C4 S:F9 PPU:208,154 23693
FB22  60        RTS                              A:B3 X:02 Y:EF P:C4 S:F9 PPU:208,160 23695
F38A  4F 47 06  SRE $0647 = $A5                  A:B3 X:02 Y:EF P:C4 S:FB PPU:208,178 23701
F38D  EA        NOP                              A:E1 X:02 Y:EF P:C5 S:FB PPU:208,196 23707
F38E  EA        NOP                              A:E1 X:02 Y:EF P:C5 S:FB PPU:208,202 23709
F38F  EA        NOP                              A:E1 X:02 Y:EF P:C5 S:FB PPU:208,208 23711
F390  EA        NOP                              A:E1 X:02 Y:EF P:C5 S:FB PPU:208,214 23713
F391  20 23 FB  JSR $FB23                        A:E1 X:02 Y:EF P:C5 S:FB PPU:208,220 23715
FB23  50 50     BVC $FB75                        A:E1 X:02 Y:EF P:C5 S:F9 PPU:208,238 23721
FB25  90 4E     BCC $FB75                        A:E1 X:02 Y:EF P:C5 S:F9 PPU:208,244 23723
FB27  10 4C     BPL $FB75                        A:E1 X:02 Y:EF P:C5 S:F9 PPU:208,250 23725
FB29  C9 E1     CMP #$E1                         A:E1 X:02 Y:EF P:C5 S:F9 PPU:208,256 23727
FB2B  D0 48     BNE $FB75                        A:E1 X:02 Y:EF P:47 S:F9 PPU:208,262 23729
FB2D  60        RTS                              A:E1 X:02 Y:EF P:47 S:F9 PPU:208,268 23731
F394  AD 47 06  LDA $0647 = $52                  A:E1 X:02 Y:EF P:47 S:FB PPU:208,286 23737
F397  C9 52     CMP #$52                         A:52 X:02 Y:EF P:45 S:FB PPU:208,298 23741
F399  F0 02     BEQ $F39D                        A:52 X:02 Y:EF P:47 S:FB PPU:208,304 23743
F39D  C8        INY                              A:52 X:02 Y:EF P:47 S:FB PPU:208,313 23746
F39E  A9 29     LDA #$29                         A:52 X:02 Y:F0 P:C5 S:FB PPU:208,319 23748
F3A0  8D 47 06  STA $0647 = $52                  A:29 X:02 Y:F0 P:45 S:FB PPU:208,325 23750
F3A3  20 2E FB  JSR $FB2E                        A:29 X:02 Y:F0 P:45 S:FB PPU:208,337 23754
FB2E  B8        CLV                              A:29 X:02 Y:F0 P:45 S:F9 PPU:209,14  23760
FB2F  18        CLC                              A:29 X:02 Y:F0 P:05 S:F9 PPU:209,20  23762
FB30  A9 42     LDA #$42                         A:29 X:02 Y:F0 P:04 S:F9 PPU:209,26  23764
FB32  60        RTS                              A:42 X:02 Y:F0 P:04 S:F9 PPU:209,32  23766
F3A6  4F 47 06  SRE $0647 = $29                  A:42 X:02 Y:F0 P:04 S:FB PPU:209,50  23772
F3A9  EA        NOP                              A:56 X:02 Y:F0 P:05 S:FB PPU:209,68  23778
F3AA  EA        NOP                              A:56 X:02 Y:F0 P:05 S:FB PPU:209,74  23780
F3AB  EA        NOP                              A:56 X:02 Y:F0 P:05 S:FB PPU:209,80  23782
F3AC  EA        NOP                              A:56 X:02 Y:F0 P:05 S:FB PPU:209,86  23784
F3AD  20 33 FB  JSR $FB33                        A:56 X:02 Y:F0 P:05 S:FB PPU:209,92  23786
FB33  70 40     BVS $FB75                        A:56 X:02 Y:F0 P:05 S:F9 PPU:209,110 23792
FB35  F0 3E     BEQ $FB75                        A:56 X:02 Y:F0 P:05 S:F9 PPU:209,116 23794
FB37  30 3C     BMI $FB75                        A:56 X:02 Y:F0 P:05 S:F9 PPU:209,122 23796
FB39  90 3A     BCC $FB75                        A:56 X:02 Y:F0 P:05 S:F9 PPU:209,128 23798
FB3B  C9 56     CMP #$56                         A:56 X:02 Y:F0 P:05 S:F9 PPU:209,134 23800
FB3D  D0 36     BNE $FB75                        A:56 X:02 Y:F0 P:07 S:F9 PPU:209,140 23802
FB3F  60        RTS                              A:56 X:02 Y:F0 P:07 S:F9 PPU:209,146 23804
F3B0  AD 47 06  LDA $0647 = $14                  A:56 X:02 Y:F0 P:07 S:FB PPU:209,164 23810
F3B3  C9 14     CMP #$14                         A:14 X:02 Y:F0 P:05 S:FB PPU:209,176 23814
F3B5  F0 02     BEQ $F3B9                        A:14 X:02 Y:F0 P:07 S:FB PPU:209,182 23816
F3B9  C8        INY                              A:14 X:02 Y:F0 P:07 S:FB PPU:209,191 23819
F3BA  A9 37     LDA #$37                         A:14 X:02 Y:F1 P:85 S:FB PPU:209,197 23821
F3BC  8D 47 06  STA $0647 = $14                  A:37 X:02 Y:F1 P:05 S:FB PPU:209,203 23823
F3BF  20 40 FB  JSR $FB40                        A:37 X:02 Y:F1 P:05 S:FB PPU:209,215 23827
FB40  24 01     BIT $01 = $FF                    A:37 X:02 Y:F1 P:05 S:F9 PPU:209,233 23833
FB42  38        SEC                              A:37 X:02 Y:F1 P:C5 S:F9 PPU:209,242 23836
FB43  A9 75     LDA #$75                         A:37 X:02 Y:F1 P:C5 S:F9 PPU:209,248 23838
FB45  60        RTS                              A:75 X:02 Y:F1 P:45 S:F9 PPU:209,254 23840
F3C2  4F 47 06  SRE $0647 = $37                  A:75 X:02 Y:F1 P:45 S:FB PPU:209,272 23846
F3C5  EA        NOP                              A:6E X:02 Y:F1 P:45 S:FB PPU:209,290 23852
F3C6  EA        NOP                              A:6E X:02 Y:F1 P:45 S:FB PPU:209,296 23854
F3C7  EA        NOP                              A:6E X:02 Y:F1 P:45 S:FB PPU:209,302 23856
F3C8  EA        NOP                              A:6E X:02 Y:F1 P:45 S:FB PPU:209,308 23858
F3C9  20 46 FB  JSR $FB46                        A:6E X:02 Y:F1 P:45 S:FB PPU:209,314 23860
FB46  50 2D     BVC $FB75                        A:6E X:02 Y:F1 P:45 S:F9 PPU:209,332 23866
FB48  F0 2B     BEQ $FB75                        A:6E X:02 Y:F1 P:45 S:F9 PPU:209,338 23868
FB4A  30 29     BMI $FB75                        A:6E X:02 Y:F1 P:45 S:F9 PPU:210,3   23870
FB4C  90 27     BCC $FB75                        A:6E X:02 Y:F1 P:45 S:F9 PPU:210,9   23872
FB4E  C9 6E     CMP #$6E                         A:6E X:02 Y:F1 P:45 S:F9 PPU:210,15  23874
FB50  D0 23     BNE $FB75                        A:6E X:02 Y:F1 P:47 S:F9 PPU:210,21  23876
FB52  60        RTS                              A:6E X:02 Y:F1 P:47 S:F9 PPU:210,27  23878
F3CC  AD 47 06  LDA $0647 = $1B                  A:6E X:02 Y:F1 P:47 S:FB PPU:210,45  23884
F3CF  C9 1B     CMP #$1B                         A:1B X:02 Y:F1 P:45 S:FB PPU:210,57  23888
F3D1  F0 02     BEQ $F3D5                        A:1B X:02 Y:F1 P:47 S:FB PPU:210,63  23890
F3D5  A9 A5     LDA #$A5                         A:1B X:02 Y:F1 P:47 S:FB PPU:210,72  23893
F3D7  8D 47 06  STA $0647 = $1B                  A:A5 X:02 Y:F1 P:C5 S:FB PPU:210,78  23895
F3DA  A9 48     LDA #$48                         A:A5 X:02 Y:F1 P:C5 S:FB PPU:210,90  23899
F3DC  85 45     STA $45 = $48                    A:48 X:02 Y:F1 P:45 S:FB PPU:210,96  23901
F3DE  A9 05     LDA #$05                         A:48 X:02 Y:F1 P:45 S:FB PPU:210,105 23904
F3E0  85 46     STA $46 = $05                    A:05 X:02 Y:F1 P:45 S:FB PPU:210,111 23906
F3E2  A0 FF     LDY #$FF                         A:05 X:02 Y:F1 P:45 S:FB PPU:210,120 23909
F3E4  20 1D FB  JSR $FB1D                        A:05 X:02 Y:FF P:C5 S:FB PPU:210,126 23911
FB1D  24 01     BIT $01 = $FF                    A:05 X:02 Y:FF P:C5 S:F9 PPU:210,144 23917
FB1F  18        CLC                              A:05 X:02 Y:FF P:C5 S:F9 PPU:210,153 23920
FB20  A9 B3     LDA #$B3                         A:05 X:02 Y:FF P:C4 S:F9 PPU:210,159 23922
FB22  60        RTS                              A:B3 X:02 Y:FF P:C4 S:F9 PPU:210,165 23924
F3E7  53 45     SRE ($45),Y = $A5                A:B3 X:02 Y:FF P:C4 S:FB PPU:210,183 23930
F3E9  EA        NOP                              A:E1 X:02 Y:FF P:C5 S:FB PPU:210,207 23938
F3EA  EA        NOP                              A:E1 X:02 Y:FF P:C5 S:FB PPU:210,213 23940
F3EB  08        PHP                              A:E1 X:02 Y:FF P:C5 S:FB PPU:210,219 23942
F3EC  48        PHA                              A:E1 X:02 Y:FF P:C5 S:FA PPU:210,228 23945
F3ED  A0 F2     LDY #$F2                         A:E1 X:02 Y:FF P:C5 S:F9 PPU:210,237 23948
F3EF  68        PLA                              A:E1 X:02 Y:F2 P:C5 S:F9 PPU:210,243 23950
F3F0  28        PLP                              A:E1 X:02 Y:F2 P:C5 S:FA PPU:210,255 23954
F3F1  20 23 FB  JSR $FB23                        A:E1 X:02 Y:F2 P:C5 S:FB PPU:210,267 23958
FB23  50 50     BVC $FB75                        A:E1 X:02 Y:F2 P:C5 S:F9 PPU:210,285 23964
FB25  90 4E     BCC $FB75                        A:E1 X:02 Y:F2 P:C5 S:F9 PPU:210,291 23966
FB27  10 4C     BPL $FB75                        A:E1 X:02 Y:F2 P:C5 S:F9 PPU:210,297 23968
FB29  C9 E1     CMP #$E1                         A:E1 X:02 Y:F2 P:C5 S:F9 PPU:210,303 23970
FB2B  D0 48     BNE $FB75                        A:E1 X:02 Y:F2 P:47 S:F9 PPU:210,309 23972
FB2D  60        RTS                              A:E1 X:02 Y:F2 P:47 S:F9 PPU:210,315 23974
F3F4  AD 47 06  LDA $0647 = $52                  A:E1 X:02 Y:F2 P:47 S:FB PPU:210,333 23980
F3F7  C9 52     CMP #$52                         A:52 X:02 Y:F2 P:45 S:FB PPU:211,4   23984
F3F9  F0 02     BEQ $F3FD                        A:52 X:02 Y:F2 P:47 S:FB PPU:211,10  23986
F3FD  A0 FF     LDY #$FF                         A:52 X:02 Y:F2 P:47 S:FB PPU:211,19  23989
F3FF  A9 29     LDA #$29                         A:52 X:02 Y:FF P:C5 S:FB PPU:211,25  23991
F401  8D 47 06  STA $0647 = $52                  A:29 X:02 Y:FF P:45 S:FB PPU:211,31  23993
F404  20 2E FB  JSR $FB2E                        A:29 X:02 Y:FF P:45 S:FB PPU:211,43  23997
FB2E  B8        CLV                              A:29 X:02 Y:FF P:45 S:F9 PPU:211,61  24003
FB2F  18        CLC                              A:29 X:02 Y:FF P:05 S:F9 PPU:211,67  24005
FB30  A9 42     LDA #$42                         A:29 X:02 Y:FF P:04 S:F9 PPU:211,73  24007
FB32  60        RTS                              A:42 X:02 Y:FF P:04 S:F9 PPU:211,79  24009
F407  53 45     SRE ($45),Y = $29                A:42 X:02 Y:FF P:04 S:FB PPU:211,97  24015
F409  EA        NOP                              A:56 X:02 Y:FF P:05 S:FB PPU:211,121 24023
F40A  EA        NOP                              A:56 X:02 Y:FF P:05 S:FB PPU:211,127 24025
F40B  08        PHP                              A:56 X:02 Y:FF P:05 S:FB PPU:211,133 24027
F40C  48        PHA                              A:56 X:02 Y:FF P:05 S:FA PPU:211,142 24030
F40D  A0 F3     LDY #$F3                         A:56 X:02 Y:FF P:05 S:F9 PPU:211,151 24033
F40F  68        PLA                              A:56 X:02 Y:F3 P:85 S:F9 PPU:211,157 24035
F410  28        PLP                              A:56 X:02 Y:F3 P:05 S:FA PPU:211,169 24039
F411  20 33 FB  JSR $FB33                        A:56 X:02 Y:F3 P:05 S:FB PPU:211,181 24043
FB33  70 40     BVS $FB75                        A:56 X:02 Y:F3 P:05 S:F9 PPU:211,199 24049
FB35  F0 3E     BEQ $FB75                        A:56 X:02 Y:F3 P:05 S:F9 PPU:211,205 24051
FB37  30 3C     BMI $FB75                        A:56 X:02 Y:F3 P:05 S:F9 PPU:211,211 24053
FB39  90 3A     BCC $FB75                        A:56 X:02 Y:F3 P:05 S:F9 PPU:211,217 24055
FB3B  C9 56     CMP #$56                         A:56 X:02 Y:F3 P:05 S:F9 PPU:211,223 24057
FB3D  D0 36     BNE $FB75                        A:56 X:02 Y:F3 P:07 S:F9 PPU:211,229 24059
FB3F  60        RTS                              A:56 X:02 Y:F3 P:07 S:F9 PPU:211,235 24061
F414  AD 47 06  LDA $0647 = $14                  A:56 X:02 Y:F3 P:07 S:FB PPU:211,253 24067
F417  C9 14     CMP #$14                         A:14 X:02 Y:F3 P:05 S:FB PPU:211,265 24071
F419  F0 02     BEQ $F41D                        A:14 X:02 Y:F3 P:07 S:FB PPU:211,271 24073
F41D  A0 FF     LDY #$FF                         A:14 X:02 Y:F3 P:07 S:FB PPU:211,280 24076
F41F  A9 37     LDA #$37                         A:14 X:02 Y:FF P:85 S:FB PPU:211,286 24078
F421  8D 47 06  STA $0647 = $14                  A:37 X:02 Y:FF P:05 S:FB PPU:211,292 24080
F424  20 40 FB  JSR $FB40                        A:37 X:02 Y:FF P:05 S:FB PPU:211,304 24084
FB40  24 01     BIT $01 = $FF                    A:37 X:02 Y:FF P:05 S:F9 PPU:211,322 24090
FB42  38        SEC                              A:37 X:02 Y:FF P:C5 S:F9 PPU:211,331 24093
FB43  A9 75     LDA #$75                         A:37 X:02 Y:FF P:C5 S:F9 PPU:211,337 24095
FB45  60        RTS                              A:75 X:02 Y:FF P:45 S:F9 PPU:212,2   24097
F427  53 45     SRE ($45),Y = $37                A:75 X:02 Y:FF P:45 S:FB PPU:212,20  24103
F429  EA        NOP                              A:6E X:02 Y:FF P:45 S:FB PPU:212,44  24111
F42A  EA        NOP                              A:6E X:02 Y:FF P:45 S:FB PPU:212,50  24113
F42B  08        PHP                              A:6E X:02 Y:FF P:45 S:FB PPU:212,56  24115
F42C  48        PHA                              A:6E X:02 Y:FF P:45 S:FA PPU:212,65  24118
F42D  A0 F4     LDY #$F4                         A:6E X:02 Y:FF P:45 S:F9 PPU:212,74  24121
F42F  68        PLA                              A:6E X:02 Y:F4 P:C5 S:F9 PPU:212,80  24123
F430  28        PLP                              A:6E X:02 Y:F4 P:45 S:FA PPU:212,92  24127
F431  20 46 FB  JSR $FB46                        A:6E X:02 Y:F4 P:45 S:FB PPU:212,104 24131
FB46  50 2D     BVC $FB75                        A:6E X:02 Y:F4 P:45 S:F9 PPU:212,122 24137
FB48  F0 2B     BEQ $FB75                        A:6E X:02 Y:F4 P:45 S:F9 PPU:212,128 24139
FB4A  30 29     BMI $FB75                        A:6E X:02 Y:F4 P:45 S:F9 PPU:212,134 24141
FB4C  90 27     BCC $FB75                        A:6E X:02 Y:F4 P:45 S:F9 PPU:212,140 24143
FB4E  C9 6E     CMP #$6E                         A:6E X:02 Y:F4 P:45 S:F9 PPU:212,146 24145
FB50  D0 23     BNE $FB75                        A:6E X:02 Y:F4 P:47 S:F9 PPU:212,152 24147
FB52  60        RTS                              A:6E X:02 Y:F4 P:47 S:F9 PPU:212,158 24149
F434  AD 47 06  LDA $0647 = $1B                  A:6E X:02 Y:F4 P:47 S:FB PPU:212,176 24155
F437  C9 1B     CMP #$1B                         A:1B X:02 Y:F4 P:45 S:FB PPU:212,188 24159
F439  F0 02     BEQ $F43D                        A:1B X:02 Y:F4 P:47 S:FB PPU:212,194 24161
F43D  A0 F5     LDY #$F5                         A:1B X:02 Y:F4 P:47 S:FB PPU:212,203 24164
F43F  A2 FF     LDX #$FF                         A:1B X:02 Y:F5 P:C5 S:FB PPU:212,209 24166
F441  A9 A5     LDA #$A5                         A:1B X:FF Y:F5 P:C5 S:FB PPU:212,215 24168
F443  85 47     STA $47 = $1B                    A:A5 X:FF Y:F5 P:C5 S:FB PPU:212,221 24170
F445  20 1D FB  JSR $FB1D                        A:A5 X:FF Y:F5 P:C5 S:FB PPU:212,230 24173
FB1D  24 01     BIT $01 = $FF                    A:A5 X:FF Y:F5 P:C5 S:F9 PPU:212,248 24179
FB1F  18        CLC                              A:A5 X:FF Y:F5 P:C5 S:F9 PPU:212,257 24182
FB20  A9 B3     LDA #$B3                         A:A5 X:FF Y:F5 P:C4 S:F9 PPU:212,263 24184
FB22  60        RTS                              A:B3 X:FF Y:F5 P:C4 S:F9 PPU:212,269 24186
F448  57 48     SRE $48,X = $A5                  A:B3 X:FF Y:F5 P:C4 S:FB PPU:212,287 24192
F44A  EA        NOP                              A:E1 X:FF Y:F5 P:C5 S:FB PPU:212,305 24198
F44B  EA        NOP                              A:E1 X:FF Y:F5 P:C5 S:FB PPU:212,311 24200
F44C  EA        NOP                              A:E1 X:FF Y:F5 P:C5 S:FB PPU:212,317 24202
F44D  EA        NOP                              A:E1 X:FF Y:F5 P:C5 S:FB PPU:212,323 24204
F44E  20 23 FB  JSR $FB23                        A:E1 X:FF Y:F5 P:C5 S:FB PPU:212,329 24206
FB23  50 50     BVC $FB75                        A:E1 X:FF Y:F5 P:C5 S:F9 PPU:213,6   24212
FB25  90 4E     BCC $FB75                        A:E1 X:FF Y:F5 P:C5 S:F9 PPU:213,12  24214
FB27  10 4C     BPL $FB75                        A:E1 X:FF Y:F5 P:C5 S:F9 PPU:213,18  24216
FB29  C9 E1     CMP #$E1                         A:E1 X:FF Y:F5 P:C5 S:F9 PPU:213,24  24218
FB2B  D0 48     BNE $FB75                        A:E1 X:FF Y:F5 P:47 S:F9 PPU:213,30  24220
FB2D  60        RTS                              A:E1 X:FF Y:F5 P:47 S:F9 PPU:213,36  24222
F451  A5 47     LDA $47 = $52                    A:E1 X:FF Y:F5 P:47 S:FB PPU:213,54  24228
F453  C9 52     CMP #$52                         A:52 X:FF Y:F5 P:45 S:FB PPU:213,63  24231
F455  F0 02     BEQ $F459                        A:52 X:FF Y:F5 P:47 S:FB PPU:213,69  24233
F459  C8        INY                              A:52 X:FF Y:F5 P:47 S:FB PPU:213,78  24236
F45A  A9 29     LDA #$29                         A:52 X:FF Y:F6 P:C5 S:FB PPU:213,84  24238
F45C  85 47     STA $47 = $52                    A:29 X:FF Y:F6 P:45 S:FB PPU:213,90  24240
F45E  20 2E FB  JSR $FB2E                        A:29 X:FF Y:F6 P:45 S:FB PPU:213,99  24243
FB2E  B8        CLV                              A:29 X:FF Y:F6 P:45 S:F9 PPU:213,117 24249
FB2F  18        CLC                              A:29 X:FF Y:F6 P:05 S:F9 PPU:213,123 24251
FB30  A9 42     LDA #$42                         A:29 X:FF Y:F6 P:04 S:F9 PPU:213,129 24253
FB32  60        RTS                              A:42 X:FF Y:F6 P:04 S:F9 PPU:213,135 24255
F461  57 48     SRE $48,X = $29                  A:42 X:FF Y:F6 P:04 S:FB PPU:213,153 24261
F463  EA        NOP                              A:56 X:FF Y:F6 P:05 S:FB PPU:213,171 24267
F464  EA        NOP                              A:56 X:FF Y:F6 P:05 S:FB PPU:213,177 24269
F465  EA        NOP                              A:56 X:FF Y:F6 P:05 S:FB PPU:213,183 24271
F466  EA        NOP                              A:56 X:FF Y:F6 P:05 S:FB PPU:213,189 24273
F467  20 33 FB  JSR $FB33                        A:56 X:FF Y:F6 P:05 S:FB PPU:213,195 24275
FB33  70 40     BVS $FB75                        A:56 X:FF Y:F6 P:05 S:F9 PPU:213,213 24281
FB35  F0 3E     BEQ $FB75                        A:56 X:FF Y:F6 P:05 S:F9 PPU:213,219 24283
FB37  30 3C     BMI $FB75                        A:56 X:FF Y:F6 P:05 S:F9 PPU:213,225 24285
FB39  90 3A     BCC $FB75                        A:56 X:FF Y:F6 P:05 S:F9 PPU:213,231 24287
FB3B  C9 56     CMP #$56                         A:56 X:FF Y:F6 P:05 S:F9 PPU:213,237 24289
FB3D  D0 36     BNE $FB75                        A:56 X:FF Y:F6 P:07 S:F9 PPU:213,243 24291
FB3F  60        RTS                              A:56 X:FF Y:F6 P:07 S:F9 PPU:213,249 24293
F46A  A5 47     LDA $47 = $14                    A:56 X:FF Y:F6 P:07 S:FB PPU:213,267 24299
F46C  C9 14     CMP #$14                         A:14 X:FF Y:F6 P:05 S:FB PPU:213,276 24302
F46E  F0 02     BEQ $F472                        A:14 X:FF Y:F6 P:07 S:FB PPU:213,282 24304
F472  C8        INY                              A:14 X:FF Y:F6 P:07 S:FB PPU:213,291 24307
F473  A9 37     LDA #$37                         A:14 X:FF Y:F7 P:85 S:FB PPU:213,297 24309
F475  85 47     STA $47 = $14                    A:37 X:FF Y:F7 P:05 S:FB PPU:213,303 24311
F477  20 40 FB  JSR $FB40                        A:37 X:FF Y:F7 P:05 S:FB PPU:213,312 24314
FB40  24 01     BIT $01 = $FF                    A:37 X:FF Y:F7 P:05 S:F9 PPU:213,330 24320
FB42  38        SEC                              A:37 X:FF Y:F7 P:C5 S:F9 PPU:213,339 24323
FB43  A9 75     LDA #$75                         A:37 X:FF Y:F7 P:C5 S:F9 PPU:214,4   24325
FB45  60        RTS                              A:75 X:FF Y:F7 P:45 S:F9 PPU:214,10  24327
F47A  57 48     SRE $48,X = $37                  A:75 X:FF Y:F7 P:45 S:FB PPU:214,28  24333
F47C  EA        NOP                              A:6E X:FF Y:F7 P:45 S:FB PPU:214,46  24339
F47D  EA        NOP                              A:6E X:FF Y:F7 P:45 S:FB PPU:214,52  24341
F47E  EA        NOP                              A:6E X:FF Y:F7 P:45 S:FB PPU:214,58  24343
F47F  EA        NOP                              A:6E X:FF Y:F7 P:45 S:FB PPU:214,64  24345
F480  20 46 FB  JSR $FB46                        A:6E X:FF Y:F7 P:45 S:FB PPU:214,70  24347
FB46  50 2D     BVC $FB75                        A:6E X:FF Y:F7 P:45 S:F9 PPU:214,88  24353
FB48  F0 2B     BEQ $FB75                        A:6E X:FF Y:F7 P:45 S:F9 PPU:214,94  24355
FB4A  30 29     BMI $FB75                        A:6E X:FF Y:F7 P:45 S:F9 PPU:214,100 24357
FB4C  90 27     BCC $FB75                        A:6E X:FF Y:F7 P:45 S:F9 PPU:214,106 24359
FB4E  C9 6E     CMP #$6E                         A:6E X:FF Y:F7 P:45 S:F9 PPU:214,112 24361
FB50  D0 23     BNE $FB75                        A:6E X:FF Y:F7 P:47 S:F9 PPU:214,118 24363
FB52  60        RTS                              A:6E X:FF Y:F7 P:47 S:F9 PPU:214,124 24365
F483  A5 47     LDA $47 = $1B                    A:6E X:FF Y:F7 P:47 S:FB PPU:214,142 24371
F485  C9 1B     CMP #$1B                         A:1B X:FF Y:F7 P:45 S:FB PPU:214,151 24374
F487  F0 02     BEQ $F48B                        A:1B X:FF Y:F7 P:47 S:FB PPU:214,157 24376
F48B  A9 A5     LDA #$A5                         A:1B X:FF Y:F7 P:47 S:FB PPU:214,166 24379
F48D  8D 47 06  STA $0647 = $1B                  A:A5 X:FF Y:F7 P:C5 S:FB PPU:214,172 24381
F490  A0 FF     LDY #$FF                         A:A5 X:FF Y:F7 P:C5 S:FB PPU:214,184 24385
F492  20 1D FB  JSR $FB1D                        A:A5 X:FF Y:FF P:C5 S:FB PPU:214,190 24387
FB1D  24 01     BIT $01 = $FF                    A:A5 X:FF Y:FF P:C5 S:F9 PPU:214,208 24393
FB1F  18        CLC                              A:A5 X:FF Y:FF P:C5 S:F9 PPU:214,217 24396
FB20  A9 B3     LDA #$B3                         A:A5 X:FF Y:FF P:C4 S:F9 PPU:214,223 24398
FB22  60        RTS                              A:B3 X:FF Y:FF P:C4 S:F9 PPU:214,229 24400
F495  5B 48 05  SRE $0548,Y = $A5                A:B3 X:FF Y:FF P:C4 S:FB PPU:214,247 24406
F498  EA        NOP                              A:E1 X:FF Y:FF P:C5 S:FB PPU:214,268 24413
F499  EA        NOP                              A:E1 X:FF Y:FF P:C5 S:FB PPU:214,274 24415
F49A  08        PHP                              A:E1 X:FF Y:FF P:C5 S:FB PPU:214,280 24417
F49B  48        PHA                              A:E1 X:FF Y:FF P:C5 S:FA PPU:214,289 24420
F49C  A0 F8     LDY #$F8                         A:E1 X:FF Y:FF P:C5 S:F9 PPU:214,298 24423
F49E  68        PLA                              A:E1 X:FF Y:F8 P:C5 S:F9 PPU:214,304 24425
F49F  28        PLP                              A:E1 X:FF Y:F8 P:C5 S:FA PPU:214,316 24429
F4A0  20 23 FB  JSR $FB23                        A:E1 X:FF Y:F8 P:C5 S:FB PPU:214,328 24433
FB23  50 50     BVC $FB75                        A:E1 X:FF Y:F8 P:C5 S:F9 PPU:215,5   24439
FB25  90 4E     BCC $FB75                        A:E1 X:FF Y:F8 P:C5 S:F9 PPU:215,11  24441
FB27  10 4C     BPL $FB75                        A:E1 X:FF Y:F8 P:C5 S:F9 PPU:215,17  24443
FB29  C9 E1     CMP #$E1                         A:E1 X:FF Y:F8 P:C5 S:F9 PPU:215,23  24445
FB2B  D0 48     BNE $FB75                        A:E1 X:FF Y:F8 P:47 S:F9 PPU:215,29  24447
FB2D  60        RTS                              A:E1 X:FF Y:F8 P:47 S:F9 PPU:215,35  24449
F4A3  AD 47 06  LDA $0647 = $52                  A:E1 X:FF Y:F8 P:47 S:FB PPU:215,53  24455
F4A6  C9 52     CMP #$52                         A:52 X:FF Y:F8 P:45 S:FB PPU:215,65  24459
F4A8  F0 02     BEQ $F4AC                        A:52 X:FF Y:F8 P:47 S:FB PPU:215,71  24461
F4AC  A0 FF     LDY #$FF                         A:52 X:FF Y:F8 P:47 S:FB PPU:215,80  24464
F4AE  A9 29     LDA #$29                         A:52 X:FF Y:FF P:C5 S:FB PPU:215,86  24466
F4B0  8D 47 06  STA $0647 = $52                  A:29 X:FF Y:FF P:45 S:FB PPU:215,92  24468
F4B3  20 2E FB  JSR $FB2E                        A:29 X:FF Y:FF P:45 S:FB PPU:215,104 24472
FB2E  B8        CLV                              A:29 X:FF Y:FF P:45 S:F9 PPU:215,122 24478
FB2F  18        CLC                              A:29 X:FF Y:FF P:05 S:F9 PPU:215,128 24480
FB30  A9 42     LDA #$42                         A:29 X:FF Y:FF P:04 S:F9 PPU:215,134 24482
FB32  60        RTS                              A:42 X:FF Y:FF P:04 S:F9 PPU:215,140 24484
F4B6  5B 48 05  SRE $0548,Y = $29                A:42 X:FF Y:FF P:04 S:FB PPU:215,158 24490
F4B9  EA        NOP                              A:56 X:FF Y:FF P:05 S:FB PPU:215,179 24497
F4BA  EA        NOP                              A:56 X:FF Y:FF P:05 S:FB PPU:215,185 24499
F4BB  08        PHP                              A:56 X:FF Y:FF P:05 S:FB PPU:215,191 24501
F4BC  48        PHA                              A:56 X:FF Y:FF P:05 S:FA PPU:215,200 24504
F4BD  A0 F9     LDY #$F9                         A:56 X:FF Y:FF P:05 S:F9 PPU:215,209 24507
F4BF  68        PLA                              A:56 X:FF Y:F9 P:85 S:F9 PPU:215,215 24509
F4C0  28        PLP                              A:56 X:FF Y:F9 P:05 S:FA PPU:215,227 24513
F4C1  20 33 FB  JSR $FB33                        A:56 X:FF Y:F9 P:05 S:FB PPU:215,239 24517
FB33  70 40     BVS $FB75                        A:56 X:FF Y:F9 P:05 S:F9 PPU:215,257 24523
FB35  F0 3E     BEQ $FB75                        A:56 X:FF Y:F9 P:05 S:F9 PPU:215,263 24525
FB37  30 3C     BMI $FB75                        A:56 X:FF Y:F9 P:05 S:F9 PPU:215,269 24527
FB39  90 3A     BCC $FB75                        A:56 X:FF Y:F9 P:05 S:F9 PPU:215,275 24529
FB3B  C9 56     CMP #$56                         A:56 X:FF Y:F9 P:05 S:F9 PPU:215,281 24531
FB3D  D0 36     BNE $FB75                        A:56 X:FF Y:F9 P:07 S:F9 PPU:215,287 24533
FB3F  60        RTS                              A:56 X:FF Y:F9 P:07 S:F9 PPU:215,293 24535
F4C4  AD 47 06  LDA $0647 = $14                  A:56 X:FF Y:F9 P:07 S:FB PPU:215,311 24541
F4C7  C9 14     CMP #$14                         A:14 X:FF Y:F9 P:05 S:FB PPU:215,323 24545
F4C9  F0 02     BEQ $F4CD                        A:14 X:FF Y:F9 P:07 S:FB PPU:215,329 24547
F4CD  A0 FF     LDY #$FF                         A:14 X:FF Y:F9 P:07 S:FB PPU:215,338 24550
F4CF  A9 37     LDA #$37                         A:14 X:FF Y:FF P:85 S:FB PPU:216,3   24552
F4D1  8D 47 06  STA $0647 = $14                  A:37 X:FF Y:FF P:05 S:FB PPU:216,9   24554
F4D4  20 40 FB  JSR $FB40                        A:37 X:FF Y:FF P:05 S:FB PPU:216,21  24558
FB40  24 01     BIT $01 = $FF                    A:37 X:FF Y:FF P:05 S:F9 PPU:216,39  24564
FB42  38        SEC                              A:37 X:FF Y:FF P:C5 S:F9 PPU:216,48  24567
FB43  A9 75     LDA #$75                         A:37 X:FF Y:FF P:C5 S:F9 PPU:216,54  24569
FB45  60        RTS                              A:75 X:FF Y:FF P:45 S:F9 PPU:216,60  24571
F4D7  5B 48 05  SRE $0548,Y = $37                A:75 X:FF Y:FF P:45 S:FB PPU:216,78  24577
F4DA  EA        NOP                              A:6E X:FF Y:FF P:45 S:FB PPU:216,99  24584
F4DB  EA        NOP                              A:6E X:FF Y:FF P:45 S:FB PPU:216,105 24586
F4DC  08        PHP                              A:6E X:FF Y:FF P:45 S:FB PPU:216,111 24588
F4DD  48        PHA                              A:6E X:FF Y:FF P:45 S:FA PPU:216,120 24591
F4DE  A0 FA     LDY #$FA                         A:6E X:FF Y:FF P:45 S:F9 PPU:216,129 24594
F4E0  68        PLA                              A:6E X:FF Y:FA P:C5 S:F9 PPU:216,135 24596
F4E1  28        PLP                              A:6E X:FF Y:FA P:45 S:FA PPU:216,147 24600
F4E2  20 46 FB  JSR $FB46                        A:6E X:FF Y:FA P:45 S:FB PPU:216,159 24604
FB46  50 2D     BVC $FB75                        A:6E X:FF Y:FA P:45 S:F9 PPU:216,177 24610
FB48  F0 2B     BEQ $FB75                        A:6E X:FF Y:FA P:45 S:F9 PPU:216,183 24612
FB4A  30 29     BMI $FB75                        A:6E X:FF Y:FA P:45 S:F9 PPU:216,189 24614
FB4C  90 27     BCC $FB75                        A:6E X:FF Y:FA P:45 S:F9 PPU:216,195 24616
FB4E  C9 6E     CMP #$6E                         A:6E X:FF Y:FA P:45 S:F9 PPU:216,201 24618
FB50  D0 23     BNE $FB75                        A:6E X:FF Y:FA P:47 S:F9 PPU:216,207 24620
FB52  60        RTS                              A:6E X:FF Y:FA P:47 S:F9 PPU:216,213 24622
F4E5  AD 47 06  LDA $0647 = $1B                  A:6E X:FF Y:FA P:47 S:FB PPU:216,231 24628
F4E8  C9 1B     CMP #$1B                         A:1B X:FF Y:FA P:45 S:FB PPU:216,243 24632
F4EA  F0 02     BEQ $F4EE                        A:1B X:FF Y:FA P:47 S:FB PPU:216,249 24634
F4EE  A0 FB     LDY #$FB                         A:1B X:FF Y:FA P:47 S:FB PPU:216,258 24637
F4F0  A2 FF     LDX #$FF                         A:1B X:FF Y:FB P:C5 S:FB PPU:216,264 24639
F4F2  A9 A5     LDA #$A5                         A:1B X:FF Y:FB P:C5 S:FB PPU:216,270 24641
F4F4  8D 47 06  STA $0647 = $1B                  A:A5 X:FF Y:FB P:C5 S:FB PPU:216,276 24643
F4F7  20 1D FB  JSR $FB1D                        A:A5 X:FF Y:FB P:C5 S:FB PPU:216,288 24647
FB1D  24 01     BIT $01 = $FF                    A:A5 X:FF Y:FB P:C5 S:F9 PPU:216,306 24653
FB1F  18        CLC                              A:A5 X:FF Y:FB P:C5 S:F9 PPU:216,315 24656
FB20  A9 B3     LDA #$B3                         A:A5 X:FF Y:FB P:C4 S:F9 PPU:216,321 24658
FB22  60        RTS                              A:B3 X:FF Y:FB P:C4 S:F9 PPU:216,327 24660
F4FA  5F 48 05  SRE $0548,X = $A5                A:B3 X:FF Y:FB P:C4 S:FB PPU:217,4   24666
F4FD  EA        NOP                              A:E1 X:FF Y:FB P:C5 S:FB PPU:217,25  24673
F4FE  EA        NOP                              A:E1 X:FF Y:FB P:C5 S:FB PPU:217,31  24675
F4FF  EA        NOP                              A:E1 X:FF Y:FB P:C5 S:FB PPU:217,37  24677
F500  EA        NOP                              A:E1 X:FF Y:FB P:C5 S:FB PPU:217,43  24679
F501  20 23 FB  JSR $FB23                        A:E1 X:FF Y:FB P:C5 S:FB PPU:217,49  24681
FB23  50 50     BVC $FB75                        A:E1 X:FF Y:FB P:C5 S:F9 PPU:217,67  24687
FB25  90 4E     BCC $FB75                        A:E1 X:FF Y:FB P:C5 S:F9 PPU:217,73  24689
FB27  10 4C     BPL $FB75                        A:E1 X:FF Y:FB P:C5 S:F9 PPU:217,79  24691
FB29  C9 E1     CMP #$E1                         A:E1 X:FF Y:FB P:C5 S:F9 PPU:217,85  24693
FB2B  D0 48     BNE $FB75                        A:E1 X:FF Y:FB P:47 S:F9 PPU:217,91  24695
FB2D  60        RTS                              A:E1 X:FF Y:FB P:47 S:F9 PPU:217,97  24697
F504  AD 47 06  LDA $0647 = $52                  A:E1 X:FF Y:FB P:47 S:FB PPU:217,115 24703
F507  C9 52     CMP #$52                         A:52 X:FF Y:FB P:45 S:FB PPU:217,127 24707
F509  F0 02     BEQ $F50D                        A:52 X:FF Y:FB P:47 S:FB PPU:217,133 24709
F50D  C8        INY                              A:52 X:FF Y:FB P:47 S:FB PPU:217,142 24712
F50E  A9 29     LDA #$29                         A:52 X:FF Y:FC P:C5 S:FB PPU:217,148 24714
F510  8D 47 06  STA $0647 = $52                  A:29 X:FF Y:FC P:45 S:FB PPU:217,154 24716
F513  20 2E FB  JSR $FB2E                        A:29 X:FF Y:FC P:45 S:FB PPU:217,166 24720
FB2E  B8        CLV                              A:29 X:FF Y:FC P:45 S:F9 PPU:217,184 24726
FB2F  18        CLC                              A:29 X:FF Y:FC P:05 S:F9 PPU:217,190 24728
FB30  A9 42     LDA #$42                         A:29 X:FF Y:FC P:04 S:F9 PPU:217,196 24730
FB32  60        RTS                              A:42 X:FF Y:FC P:04 S:F9 PPU:217,202 24732
F516  5F 48 05  SRE $0548,X = $29                A:42 X:FF Y:FC P:04 S:FB PPU:217,220 24738
F519  EA        NOP                              A:56 X:FF Y:FC P:05 S:FB PPU:217,241 24745
F51A  EA        NOP                              A:56 X:FF Y:FC P:05 S:FB PPU:217,247 24747
F51B  EA        NOP                              A:56 X:FF Y:FC P:05 S:FB PPU:217,253 24749
F51C  EA        NOP                              A:56 X:FF Y:FC P:05 S:FB PPU:217,259 24751
F51D  20 33 FB  JSR $FB33                        A:56 X:FF Y:FC P:05 S:FB PPU:217,265 24753
FB33  70 40     BVS $FB75                        A:56 X:FF Y:FC P:05 S:F9 PPU:217,283 24759
FB35  F0 3E     BEQ $FB75                        A:56 X:FF Y:FC P:05 S:F9 PPU:217,289 24761
FB37  30 3C     BMI $FB75                        A:56 X:FF Y:FC P:05 S:F9 PPU:217,295 24763
FB39  90 3A     BCC $FB75                        A:56 X:FF Y:FC P:05 S:F9 PPU:217,301 24765
FB3B  C9 56     CMP #$56                         A:56 X:FF Y:FC P:05 S:F9 PPU:217,307 24767
FB3D  D0 36     BNE $FB75                        A:56 X:FF Y:FC P:07 S:F9 PPU:217,313 24769
FB3F  60        RTS                              A:56 X:FF Y:FC P:07 S:F9 PPU:217,319 24771
F520  AD 47 06  LDA $0647 = $14                  A:56 X:FF Y:FC P:07 S:FB PPU:217,337 24777
F523  C9 14     CMP #$14                         A:14 X:FF Y:FC P:05 S:FB PPU:218,8   24781
F525  F0 02     BEQ $F529                        A:14 X:FF Y:FC P:07 S:FB PPU:218,14  24783
F529  C8        INY                              A:14 X:FF Y:FC P:07 S:FB PPU:218,23  24786
F52A  A9 37     LDA #$37                         A:14 X:FF Y:FD P:85 S:FB PPU:218,29  24788
F52C  8D 47 06  STA $0647 = $14                  A:37 X:FF Y:FD P:05 S:FB PPU:218,35  24790
F52F  20 40 FB  JSR $FB40                        A:37 X:FF Y:FD P:05 S:FB PPU:218,47  24794
FB40  24 01     BIT $01 = $FF                    A:37 X:FF Y:FD P:05 S:F9 PPU:218,65  24800
FB42  38        SEC                              A:37 X:FF Y:FD P:C5 S:F9 PPU:218,74  24803
FB43  A9 75     LDA #$75                         A:37 X:FF Y:FD P:C5 S:F9 PPU:218,80  24805
FB45  60        RTS                              A:75 X:FF Y:FD P:45 S:F9 PPU:218,86  24807
F532  5F 48 05  SRE $0548,X = $37                A:75 X:FF Y:FD P:45 S:FB PPU:218,104 24813
F535  EA        NOP                              A:6E X:FF Y:FD P:45 S:FB PPU:218,125 24820
F536  EA        NOP                              A:6E X:FF Y:FD P:45 S:FB PPU:218,131 24822
F537  EA        NOP                              A:6E X:FF Y:FD P:45 S:FB PPU:218,137 24824
F538  EA        NOP                              A:6E X:FF Y:FD P:45 S:FB PPU:218,143 24826
F539  20 46 FB  JSR $FB46                        A:6E X:FF Y:FD P:45 S:FB PPU:218,149 24828
FB46  50 2D     BVC $FB75                        A:6E X:FF Y:FD P:45 S:F9 PPU:218,167 24834
FB48  F0 2B     BEQ $FB75                        A:6E X:FF Y:FD P:45 S:F9 PPU:218,173 24836
FB4A  30 29     BMI $FB75                        A:6E X:FF Y:FD P:45 S:F9 PPU:218,179 24838
FB4C  90 27     BCC $FB75                        A:6E X:FF Y:FD P:45 S:F9 PPU:218,185 24840
FB4E  C9 6E     CMP #$6E                         A:6E X:FF Y:FD P:45 S:F9 PPU:218,191 24842
FB50  D0 23     BNE $FB75                        A:6E X:FF Y:FD P:47 S:F9 PPU:218,197 24844
FB52  60        RTS                              A:6E X:FF Y:FD P:47 S:F9 PPU:218,203 24846
F53C  AD 47 06  LDA $0647 = $1B                  A:6E X:FF Y:FD P:47 S:FB PPU:218,221 24852
F53F  C9 1B     CMP #$1B                         A:1B X:FF Y:FD P:45 S:FB PPU:218,233 24856
F541  F0 02     BEQ $F545                        A:1B X:FF Y:FD P:47 S:FB PPU:218,239 24858
F545  60        RTS                              A:1B X:FF Y:FD P:47 S:FB PPU:218,248 24861
C64A  A5 00     LDA $00 = $00                    A:1B X:FF Y:FD P:47 S:FD PPU:218,266 24867
C64C  85 11     STA $11 = $00                    A:00 X:FF Y:FD P:47 S:FD PPU:218,275 24870
C64E  A9 00     LDA #$00                         A:00 X:FF Y:FD P:47 S:FD PPU:218,284 24873
C650  85 00     STA $00 = $00                    A:00 X:FF Y:FD P:47 S:FD PPU:218,290 24875
C652  20 46 F5  JSR $F546                        A:00 X:FF Y:FD P:47 S:FD PPU:218,299 24878
F546  A9 FF     LDA #$FF                         A:00 X:FF Y:FD P:47 S:FB PPU:218,317 24884
F548  85 01     STA $01 = $FF                    A:FF X:FF Y:FD P:C5 S:FB PPU:218,323 24886
F54A  A0 01     LDY #$01                         A:FF X:FF Y:FD P:C5 S:FB PPU:218,332 24889
F54C  A2 02     LDX #$02                         A:FF X:FF Y:01 P:45 S:FB PPU:218,338 24891
F54E  A9 47     LDA #$47                         A:FF X:02 Y:01 P:45 S:FB PPU:219,3   24893
F550  85 47     STA $47 = $1B                    A:47 X:02 Y:01 P:45 S:FB PPU:219,9   24895
F552  A9 06     LDA #$06                         A:47 X:02 Y:01 P:45 S:FB PPU:219,18  24898
F554  85 48     STA $48 = $06                    A:06 X:02 Y:01 P:45 S:FB PPU:219,24  24900
F556  A9 A5     LDA #$A5                         A:06 X:02 Y:01 P:45 S:FB PPU:219,33  24903
F558  8D 47 06  STA $0647 = $1B                  A:A5 X:02 Y:01 P:C5 S:FB PPU:219,39  24905
F55B  20 E9 FA  JSR $FAE9                        A:A5 X:02 Y:01 P:C5 S:FB PPU:219,51  24909
FAE9  24 01     BIT $01 = $FF                    A:A5 X:02 Y:01 P:C5 S:F9 PPU:219,69  24915
FAEB  18        CLC                              A:A5 X:02 Y:01 P:C5 S:F9 PPU:219,78  24918
FAEC  A9 B2     LDA #$B2                         A:A5 X:02 Y:01 P:C4 S:F9 PPU:219,84  24920
FAEE  60        RTS                              A:B2 X:02 Y:01 P:C4 S:F9 PPU:219,90  24922
F55E  63 45     RRA ($45,X) = $A5                A:B2 X:02 Y:01 P:C4 S:FB PPU:219,108 24928
F560  EA        NOP                              A:05 X:02 Y:01 P:05 S:FB PPU:219,132 24936
F561  EA        NOP                              A:05 X:02 Y:01 P:05 S:FB PPU:219,138 24938
F562  EA        NOP                              A:05 X:02 Y:01 P:05 S:FB PPU:219,144 24940
F563  EA        NOP                              A:05 X:02 Y:01 P:05 S:FB PPU:219,150 24942
F564  20 EF FA  JSR $FAEF                        A:05 X:02 Y:01 P:05 S:FB PPU:219,156 24944
FAEF  70 2A     BVS $FB1B                        A:05 X:02 Y:01 P:05 S:F9 PPU:219,174 24950
FAF1  90 28     BCC $FB1B                        A:05 X:02 Y:01 P:05 S:F9 PPU:219,180 24952
FAF3  30 26     BMI $FB1B                        A:05 X:02 Y:01 P:05 S:F9 PPU:219,186 24954
FAF5  C9 05     CMP #$05                         A:05 X:02 Y:01 P:05 S:F9 PPU:219,192 24956
FAF7  D0 22     BNE $FB1B                        A:05 X:02 Y:01 P:07 S:F9 PPU:219,198 24958
FAF9  60        RTS                              A:05 X:02 Y:01 P:07 S:F9 PPU:219,204 24960
F567  AD 47 06  LDA $0647 = $52                  A:05 X:02 Y:01 P:07 S:FB PPU:219,222 24966
F56A  C9 52     CMP #$52                         A:52 X:02 Y:01 P:05 S:FB PPU:219,234 24970
F56C  F0 02     BEQ $F570                        A:52 X:02 Y:01 P:07 S:FB PPU:219,240 24972
F570  C8        INY                              A:52 X:02 Y:01 P:07 S:FB PPU:219,249 24975
F571  A9 29     LDA #$29                         A:52 X:02 Y:02 P:05 S:FB PPU:219,255 24977
F573  8D 47 06  STA $0647 = $52                  A:29 X:02 Y:02 P:05 S:FB PPU:219,261 24979
F576  20 FA FA  JSR $FAFA                        A:29 X:02 Y:02 P:05 S:FB PPU:219,273 24983
FAFA  B8        CLV                              A:29 X:02 Y:02 P:05 S:F9 PPU:219,291 24989
FAFB  18        CLC                              A:29 X:02 Y:02 P:05 S:F9 PPU:219,297 24991
FAFC  A9 42     LDA #$42                         A:29 X:02 Y:02 P:04 S:F9 PPU:219,303 24993
FAFE  60        RTS                              A:42 X:02 Y:02 P:04 S:F9 PPU:219,309 24995
F579  63 45     RRA ($45,X) = $29                A:42 X:02 Y:02 P:04 S:FB PPU:219,327 25001
F57B  EA        NOP                              A:57 X:02 Y:02 P:04 S:FB PPU:220,10  25009
F57C  EA        NOP                              A:57 X:02 Y:02 P:04 S:FB PPU:220,16  25011
F57D  EA        NOP                              A:57 X:02 Y:02 P:04 S:FB PPU:220,22  25013
F57E  EA        NOP                              A:57 X:02 Y:02 P:04 S:FB PPU:220,28  25015
F57F  20 FF FA  JSR $FAFF                        A:57 X:02 Y:02 P:04 S:FB PPU:220,34  25017
FAFF  70 1A     BVS $FB1B                        A:57 X:02 Y:02 P:04 S:F9 PPU:220,52  25023
FB01  30 18     BMI $FB1B                        A:57 X:02 Y:02 P:04 S:F9 PPU:220,58  25025
FB03  B0 16     BCS $FB1B                        A:57 X:02 Y:02 P:04 S:F9 PPU:220,64  25027
FB05  C9 57     CMP #$57                         A:57 X:02 Y:02 P:04 S:F9 PPU:220,70  25029
FB07  D0 12     BNE $FB1B                        A:57 X:02 Y:02 P:07 S:F9 PPU:220,76  25031
FB09  60        RTS                              A:57 X:02 Y:02 P:07 S:F9 PPU:220,82  25033
F582  AD 47 06  LDA $0647 = $14                  A:57 X:02 Y:02 P:07 S:FB PPU:220,100 25039
F585  C9 14     CMP #$14                         A:14 X:02 Y:02 P:05 S:FB PPU:220,112 25043
F587  F0 02     BEQ $F58B                        A:14 X:02 Y:02 P:07 S:FB PPU:220,118 25045
F58B  C8        INY                              A:14 X:02 Y:02 P:07 S:FB PPU:220,127 25048
F58C  A9 37     LDA #$37                         A:14 X:02 Y:03 P:05 S:FB PPU:220,133 25050
F58E  8D 47 06  STA $0647 = $14                  A:37 X:02 Y:03 P:05 S:FB PPU:220,139 25052
F591  20 0A FB  JSR $FB0A                        A:37 X:02 Y:03 P:05 S:FB PPU:220,151 25056
FB0A  24 01     BIT $01 = $FF                    A:37 X:02 Y:03 P:05 S:F9 PPU:220,169 25062
FB0C  38        SEC                              A:37 X:02 Y:03 P:C5 S:F9 PPU:220,178 25065
FB0D  A9 75     LDA #$75                         A:37 X:02 Y:03 P:C5 S:F9 PPU:220,184 25067
FB0F  60        RTS                              A:75 X:02 Y:03 P:45 S:F9 PPU:220,190 25069
F594  63 45     RRA ($45,X) = $37                A:75 X:02 Y:03 P:45 S:FB PPU:220,208 25075
F596  EA        NOP                              A:11 X:02 Y:03 P:05 S:FB PPU:220,232 25083
F597  EA        NOP                              A:11 X:02 Y:03 P:05 S:FB PPU:220,238 25085
F598  EA        NOP                              A:11 X:02 Y:03 P:05 S:FB PPU:220,244 25087
F599  EA        NOP                              A:11 X:02 Y:03 P:05 S:FB PPU:220,250 25089
F59A  20 10 FB  JSR $FB10                        A:11 X:02 Y:03 P:05 S:FB PPU:220,256 25091
FB10  70 09     BVS $FB1B                        A:11 X:02 Y:03 P:05 S:F9 PPU:220,274 25097
FB12  30 07     BMI $FB1B                        A:11 X:02 Y:03 P:05 S:F9 PPU:220,280 25099
FB14  90 05     BCC $FB1B                        A:11 X:02 Y:03 P:05 S:F9 PPU:220,286 25101
FB16  C9 11     CMP #$11                         A:11 X:02 Y:03 P:05 S:F9 PPU:220,292 25103
FB18  D0 01     BNE $FB1B                        A:11 X:02 Y:03 P:07 S:F9 PPU:220,298 25105
FB1A  60        RTS                              A:11 X:02 Y:03 P:07 S:F9 PPU:220,304 25107
F59D  AD 47 06  LDA $0647 = $9B                  A:11 X:02 Y:03 P:07 S:FB PPU:220,322 25113
F5A0  C9 9B     CMP #$9B                         A:9B X:02 Y:03 P:85 S:FB PPU:220,334 25117
F5A2  F0 02     BEQ $F5A6                        A:9B X:02 Y:03 P:07 S:FB PPU:220,340 25119
F5A6  C8        INY                              A:9B X:02 Y:03 P:07 S:FB PPU:221,8   25122
F5A7  A9 A5     LDA #$A5                         A:9B X:02 Y:04 P:05 S:FB PPU:221,14  25124
F5A9  85 47     STA $47 = $47                    A:A5 X:02 Y:04 P:85 S:FB PPU:221,20  25126
F5AB  20 E9 FA  JSR $FAE9                        A:A5 X:02 Y:04 P:85 S:FB PPU:221,29  25129
FAE9  24 01     BIT $01 = $FF                    A:A5 X:02 Y:04 P:85 S:F9 PPU:221,47  25135
FAEB  18        CLC                              A:A5 X:02 Y:04 P:C5 S:F9 PPU:221,56  25138
FAEC  A9 B2     LDA #$B2                         A:A5 X:02 Y:04 P:C4 S:F9 PPU:221,62  25140
FAEE  60        RTS                              A:B2 X:02 Y:04 P:C4 S:F9 PPU:221,68  25142
F5AE  67 47     RRA $47 = $A5                    A:B2 X:02 Y:04 P:C4 S:FB PPU:221,86  25148
F5B0  EA        NOP                              A:05 X:02 Y:04 P:05 S:FB PPU:221,101 25153
F5B1  EA        NOP                              A:05 X:02 Y:04 P:05 S:FB PPU:221,107 25155
F5B2  EA        NOP                              A:05 X:02 Y:04 P:05 S:FB PPU:221,113 25157
F5B3  EA        NOP                              A:05 X:02 Y:04 P:05 S:FB PPU:221,119 25159
F5B4  20 EF FA  JSR $FAEF                        A:05 X:02 Y:04 P:05 S:FB PPU:221,125 25161
FAEF  70 2A     BVS $FB1B                        A:05 X:02 Y:04 P:05 S:F9 PPU:221,143 25167
FAF1  90 28     BCC $FB1B                        A:05 X:02 Y:04 P:05 S:F9 PPU:221,149 25169
FAF3  30 26     BMI $FB1B                        A:05 X:02 Y:04 P:05 S:F9 PPU:221,155 25171
FAF5  C9 05     CMP #$05                         A:05 X:02 Y:04 P:05 S:F9 PPU:221,161 25173
FAF7  D0 22     BNE $FB1B                        A:05 X:02 Y:04 P:07 S:F9 PPU:221,167 25175
FAF9  60        RTS                              A:05 X:02 Y:04 P:07 S:F9 PPU:221,173 25177
F5B7  A5 47     LDA $47 = $52                    A:05 X:02 Y:04 P:07 S:FB PPU:221,191 25183
F5B9  C9 52     CMP #$52                         A:52 X:02 Y:04 P:05 S:FB PPU:221,200 25186
F5BB  F0 02     BEQ $F5BF                        A:52 X:02 Y:04 P:07 S:FB PPU:221,206 25188
F5BF  C8        INY                              A:52 X:02 Y:04 P:07 S:FB PPU:221,215 25191
F5C0  A9 29     LDA #$29                         A:52 X:02 Y:05 P:05 S:FB PPU:221,221 25193
F5C2  85 47     STA $47 = $52                    A:29 X:02 Y:05 P:05 S:FB PPU:221,227 25195
F5C4  20 FA FA  JSR $FAFA                        A:29 X:02 Y:05 P:05 S:FB PPU:221,236 25198
FAFA  B8        CLV                              A:29 X:02 Y:05 P:05 S:F9 PPU:221,254 25204
FAFB  18        CLC                              A:29 X:02 Y:05 P:05 S:F9 PPU:221,260 25206
FAFC  A9 42     LDA #$42                         A:29 X:02 Y:05 P:04 S:F9 PPU:221,266 25208
FAFE  60        RTS                              A:42 X:02 Y:05 P:04 S:F9 PPU:221,272 25210
F5C7  67 47     RRA $47 = $29                    A:42 X:02 Y:05 P:04 S:FB PPU:221,290 25216
F5C9  EA        NOP                              A:57 X:02 Y:05 P:04 S:FB PPU:221,305 25221
F5CA  EA        NOP                              A:57 X:02 Y:05 P:04 S:FB PPU:221,311 25223
F5CB  EA        NOP                              A:57 X:02 Y:05 P:04 S:FB PPU:221,317 25225
F5CC  EA        NOP                              A:57 X:02 Y:05 P:04 S:FB PPU:221,323 25227
F5CD  20 FF FA  JSR $FAFF                        A:57 X:02 Y:05 P:04 S:FB PPU:221,329 25229
FAFF  70 1A     BVS $FB1B                        A:57 X:02 Y:05 P:04 S:F9 PPU:222,6   25235
FB01  30 18     BMI $FB1B                        A:57 X:02 Y:05 P:04 S:F9 PPU:222,12  25237
FB03  B0 16     BCS $FB1B                        A:57 X:02 Y:05 P:04 S:F9 PPU:222,18  25239
FB05  C9 57     CMP #$57                         A:57 X:02 Y:05 P:04 S:F9 PPU:222,24  25241
FB07  D0 12     BNE $FB1B                        A:57 X:02 Y:05 P:07 S:F9 PPU:222,30  25243
FB09  60        RTS                              A:57 X:02 Y:05 P:07 S:F9 PPU:222,36  25245
F5D0  A5 47     LDA $47 = $14                    A:57 X:02 Y:05 P:07 S:FB PPU:222,54  25251
F5D2  C9 14     CMP #$14                         A:14 X:02 Y:05 P:05 S:FB PPU:222,63  25254
F5D4  F0 02     BEQ $F5D8                        A:14 X:02 Y:05 P:07 S:FB PPU:222,69  25256
F5D8  C8        INY                              A:14 X:02 Y:05 P:07 S:FB PPU:222,78  25259
F5D9  A9 37     LDA #$37                         A:14 X:02 Y:06 P:05 S:FB PPU:222,84  25261
F5DB  85 47     STA $47 = $14                    A:37 X:02 Y:06 P:05 S:FB PPU:222,90  25263
F5DD  20 0A FB  JSR $FB0A                        A:37 X:02 Y:06 P:05 S:FB PPU:222,99  25266
FB0A  24 01     BIT $01 = $FF                    A:37 X:02 Y:06 P:05 S:F9 PPU:222,117 25272
FB0C  38        SEC                              A:37 X:02 Y:06 P:C5 S:F9 PPU:222,126 25275
FB0D  A9 75     LDA #$75                         A:37 X:02 Y:06 P:C5 S:F9 PPU:222,132 25277
FB0F  60        RTS                              A:75 X:02 Y:06 P:45 S:F9 PPU:222,138 25279
F5E0  67 47     RRA $47 = $37                    A:75 X:02 Y:06 P:45 S:FB PPU:222,156 25285
F5E2  EA        NOP                              A:11 X:02 Y:06 P:05 S:FB PPU:222,171 25290
F5E3  EA        NOP                              A:11 X:02 Y:06 P:05 S:FB PPU:222,177 25292
F5E4  EA        NOP                              A:11 X:02 Y:06 P:05 S:FB PPU:222,183 25294
F5E5  EA        NOP                              A:11 X:02 Y:06 P:05 S:FB PPU:222,189 25296
F5E6  20 10 FB  JSR $FB10                        A:11 X:02 Y:06 P:05 S:FB PPU:222,195 25298
FB10  70 09     BVS $FB1B                        A:11 X:02 Y:06 P:05 S:F9 PPU:222,213 25304
FB12  30 07     BMI $FB1B                        A:11 X:02 Y:06 P:05 S:F9 PPU:222,219 25306
FB14  90 05     BCC $FB1B                        A:11 X:02 Y:06 P:05 S:F9 PPU:222,225 25308
FB16  C9 11     CMP #$11                         A:11 X:02 Y:06 P:05 S:F9 PPU:222,231 25310
FB18  D0 01     BNE $FB1B                        A:11 X:02 Y:06 P:07 S:F9 PPU:222,237 25312
FB1A  60        RTS                              A:11 X:02 Y:06 P:07 S:F9 PPU:222,243 25314
F5E9  A5 47     LDA $47 = $9B                    A:11 X:02 Y:06 P:07 S:FB PPU:222,261 25320
F5EB  C9 9B     CMP #$9B                         A:9B X:02 Y:06 P:85 S:FB PPU:222,270 25323
F5ED  F0 02     BEQ $F5F1                        A:9B X:02 Y:06 P:07 S:FB PPU:222,276 25325
F5F1  C8        INY                              A:9B X:02 Y:06 P:07 S:FB PPU:222,285 25328
F5F2  A9 A5     LDA #$A5                         A:9B X:02 Y:07 P:05 S:FB PPU:222,291 25330
F5F4  8D 47 06  STA $0647 = $9B                  A:A5 X:02 Y:07 P:85 S:FB PPU:222,297 25332
F5F7  20 E9 FA  JSR $FAE9                        A:A5 X:02 Y:07 P:85 S:FB PPU:222,309 25336
FAE9  24 01     BIT $01 = $FF                    A:A5 X:02 Y:07 P:85 S:F9 PPU:222,327 25342
FAEB  18        CLC                              A:A5 X:02 Y:07 P:C5 S:F9 PPU:222,336 25345
FAEC  A9 B2     LDA #$B2                         A:A5 X:02 Y:07 P:C4 S:F9 PPU:223,1   25347
FAEE  60        RTS                              A:B2 X:02 Y:07 P:C4 S:F9 PPU:223,7   25349
F5FA  6F 47 06  RRA $0647 = $A5                  A:B2 X:02 Y:07 P:C4 S:FB PPU:223,25  25355
F5FD  EA        NOP                              A:05 X:02 Y:07 P:05 S:FB PPU:223,43  25361
F5FE  EA        NOP                              A:05 X:02 Y:07 P:05 S:FB PPU:223,49  25363
F5FF  EA        NOP                              A:05 X:02 Y:07 P:05 S:FB PPU:223,55  25365
F600  EA        NOP                              A:05 X:02 Y:07 P:05 S:FB PPU:223,61  25367
F601  20 EF FA  JSR $FAEF                        A:05 X:02 Y:07 P:05 S:FB PPU:223,67  25369
FAEF  70 2A     BVS $FB1B                        A:05 X:02 Y:07 P:05 S:F9 PPU:223,85  25375
FAF1  90 28     BCC $FB1B                        A:05 X:02 Y:07 P:05 S:F9 PPU:223,91  25377
FAF3  30 26     BMI $FB1B                        A:05 X:02 Y:07 P:05 S:F9 PPU:223,97  25379
FAF5  C9 05     CMP #$05                         A:05 X:02 Y:07 P:05 S:F9 PPU:223,103 25381
FAF7  D0 22     BNE $FB1B                        A:05 X:02 Y:07 P:07 S:F9 PPU:223,109 25383
FAF9  60        RTS                              A:05 X:02 Y:07 P:07 S:F9 PPU:223,115 25385
F604  AD 47 06  LDA $0647 = $52                  A:05 X:02 Y:07 P:07 S:FB PPU:223,133 25391
F607  C9 52     CMP #$52                         A:52 X:02 Y:07 P:05 S:FB PPU:223,145 25395
F609  F0 02     BEQ $F60D                        A:52 X:02 Y:07 P:07 S:FB PPU:223,151 25397
F60D  C8        INY                              A:52 X:02 Y:07 P:07 S:FB PPU:223,160 25400
F60E  A9 29     LDA #$29                         A:52 X:02 Y:08 P:05 S:FB PPU:223,166 25402
F610  8D 47 06  STA $0647 = $52                  A:29 X:02 Y:08 P:05 S:FB PPU:223,172 25404
F613  20 FA FA  JSR $FAFA                        A:29 X:02 Y:08 P:05 S:FB PPU:223,184 25408
FAFA  B8        CLV                              A:29 X:02 Y:08 P:05 S:F9 PPU:223,202 25414
FAFB  18        CLC                              A:29 X:02 Y:08 P:05 S:F9 PPU:223,208 25416
FAFC  A9 42     LDA #$42                         A:29 X:02 Y:08 P:04 S:F9 PPU:223,214 25418
FAFE  60        RTS                              A:42 X:02 Y:08 P:04 S:F9 PPU:223,220 25420
F616  6F 47 06  RRA $0647 = $29                  A:42 X:02 Y:08 P:04 S:FB PPU:223,238 25426
F619  EA        NOP                              A:57 X:02 Y:08 P:04 S:FB PPU:223,256 25432
F61A  EA        NOP                              A:57 X:02 Y:08 P:04 S:FB PPU:223,262 25434
F61B  EA        NOP                              A:57 X:02 Y:08 P:04 S:FB PPU:223,268 25436
F61C  EA        NOP                              A:57 X:02 Y:08 P:04 S:FB PPU:223,274 25438
F61D  20 FF FA  JSR $FAFF                        A:57 X:02 Y:08 P:04 S:FB PPU:223,280 25440
FAFF  70 1A     BVS $FB1B                        A:57 X:02 Y:08 P:04 S:F9 PPU:223,298 25446
FB01  30 18     BMI $FB1B                        A:57 X:02 Y:08 P:04 S:F9 PPU:223,304 25448
FB03  B0 16     BCS $FB1B                        A:57 X:02 Y:08 P:04 S:F9 PPU:223,310 25450
FB05  C9 57     CMP #$57                         A:57 X:02 Y:08 P:04 S:F9 PPU:223,316 25452
FB07  D0 12     BNE $FB1B                        A:57 X:02 Y:08 P:07 S:F9 PPU:223,322 25454
FB09  60        RTS                              A:57 X:02 Y:08 P:07 S:F9 PPU:223,328 25456
F620  AD 47 06  LDA $0647 = $14                  A:57 X:02 Y:08 P:07 S:FB PPU:224,5   25462
F623  C9 14     CMP #$14                         A:14 X:02 Y:08 P:05 S:FB PPU:224,17  25466
F625  F0 02     BEQ $F629                        A:14 X:02 Y:08 P:07 S:FB PPU:224,23  25468
F629  C8        INY                              A:14 X:02 Y:08 P:07 S:FB PPU:224,32  25471
F62A  A9 37     LDA #$37                         A:14 X:02 Y:09 P:05 S:FB PPU:224,38  25473
F62C  8D 47 06  STA $0647 = $14                  A:37 X:02 Y:09 P:05 S:FB PPU:224,44  25475
F62F  20 0A FB  JSR $FB0A                        A:37 X:02 Y:09 P:05 S:FB PPU:224,56  25479
FB0A  24 01     BIT $01 = $FF                    A:37 X:02 Y:09 P:05 S:F9 PPU:224,74  25485
FB0C  38        SEC                              A:37 X:02 Y:09 P:C5 S:F9 PPU:224,83  25488
FB0D  A9 75     LDA #$75                         A:37 X:02 Y:09 P:C5 S:F9 PPU:224,89  25490
FB0F  60        RTS                              A:75 X:02 Y:09 P:45 S:F9 PPU:224,95  25492
F632  6F 47 06  RRA $0647 = $37                  A:75 X:02 Y:09 P:45 S:FB PPU:224,113 25498
F635  EA        NOP                              A:11 X:02 Y:09 P:05 S:FB PPU:224,131 25504
F636  EA        NOP                              A:11 X:02 Y:09 P:05 S:FB PPU:224,137 25506
F637  EA        NOP                              A:11 X:02 Y:09 P:05 S:FB PPU:224,143 25508
F638  EA        NOP                              A:11 X:02 Y:09 P:05 S:FB PPU:224,149 25510
F639  20 10 FB  JSR $FB10                        A:11 X:02 Y:09 P:05 S:FB PPU:224,155 25512
FB10  70 09     BVS $FB1B                        A:11 X:02 Y:09 P:05 S:F9 PPU:224,173 25518
FB12  30 07     BMI $FB1B                        A:11 X:02 Y:09 P:05 S:F9 PPU:224,179 25520
FB14  90 05     BCC $FB1B                        A:11 X:02 Y:09 P:05 S:F9 PPU:224,185 25522
FB16  C9 11     CMP #$11                         A:11 X:02 Y:09 P:05 S:F9 PPU:224,191 25524
FB18  D0 01     BNE $FB1B                        A:11 X:02 Y:09 P:07 S:F9 PPU:224,197 25526
FB1A  60        RTS                              A:11 X:02 Y:09 P:07 S:F9 PPU:224,203 25528
F63C  AD 47 06  LDA $0647 = $9B                  A:11 X:02 Y:09 P:07 S:FB PPU:224,221 25534
F63F  C9 9B     CMP #$9B                         A:9B X:02 Y:09 P:85 S:FB PPU:224,233 25538
F641  F0 02     BEQ $F645                        A:9B X:02 Y:09 P:07 S:FB PPU:224,239 25540
F645  A9 A5     LDA #$A5                         A:9B X:02 Y:09 P:07 S:FB PPU:224,248 25543
F647  8D 47 06  STA $0647 = $9B                  A:A5 X:02 Y:09 P:85 S:FB PPU:224,254 25545
F64A  A9 48     LDA #$48                         A:A5 X:02 Y:09 P:85 S:FB PPU:224,266 25549
F64C  85 45     STA $45 = $48                    A:48 X:02 Y:09 P:05 S:FB PPU:224,272 25551
F64E  A9 05     LDA #$05                         A:48 X:02 Y:09 P:05 S:FB PPU:224,281 25554
F650  85 46     STA $46 = $05                    A:05 X:02 Y:09 P:05 S:FB PPU:224,287 25556
F652  A0 FF     LDY #$FF                         A:05 X:02 Y:09 P:05 S:FB PPU:224,296 25559
F654  20 E9 FA  JSR $FAE9                        A:05 X:02 Y:FF P:85 S:FB PPU:224,302 25561
FAE9  24 01     BIT $01 = $FF                    A:05 X:02 Y:FF P:85 S:F9 PPU:224,320 25567
FAEB  18        CLC                              A:05 X:02 Y:FF P:C5 S:F9 PPU:224,329 25570
FAEC  A9 B2     LDA #$B2                         A:05 X:02 Y:FF P:C4 S:F9 PPU:224,335 25572
FAEE  60        RTS                              A:B2 X:02 Y:FF P:C4 S:F9 PPU:225,0   25574
F657  73 45     RRA ($45),Y = $A5                A:B2 X:02 Y:FF P:C4 S:FB PPU:225,18  25580
F659  EA        NOP                              A:05 X:02 Y:FF P:05 S:FB PPU:225,42  25588
F65A  EA        NOP                              A:05 X:02 Y:FF P:05 S:FB PPU:225,48  25590
F65B  08        PHP                              A:05 X:02 Y:FF P:05 S:FB PPU:225,54  25592
F65C  48        PHA                              A:05 X:02 Y:FF P:05 S:FA PPU:225,63  25595
F65D  A0 0A     LDY #$0A                         A:05 X:02 Y:FF P:05 S:F9 PPU:225,72  25598
F65F  68        PLA                              A:05 X:02 Y:0A P:05 S:F9 PPU:225,78  25600
F660  28        PLP                              A:05 X:02 Y:0A P:05 S:FA PPU:225,90  25604
F661  20 EF FA  JSR $FAEF                        A:05 X:02 Y:0A P:05 S:FB PPU:225,102 25608
FAEF  70 2A     BVS $FB1B                        A:05 X:02 Y:0A P:05 S:F9 PPU:225,120 25614
FAF1  90 28     BCC $FB1B                        A:05 X:02 Y:0A P:05 S:F9 PPU:225,126 25616
FAF3  30 26     BMI $FB1B                        A:05 X:02 Y:0A P:05 S:F9 PPU:225,132 25618
FAF5  C9 05     CMP #$05                         A:05 X:02 Y:0A P:05 S:F9 PPU:225,138 25620
FAF7  D0 22     BNE $FB1B                        A:05 X:02 Y:0A P:07 S:F9 PPU:225,144 25622
FAF9  60        RTS                              A:05 X:02 Y:0A P:07 S:F9 PPU:225,150 25624
F664  AD 47 06  LDA $0647 = $52                  A:05 X:02 Y:0A P:07 S:FB PPU:225,168 25630
F667  C9 52     CMP #$52                         A:52 X:02 Y:0A P:05 S:FB PPU:225,180 25634
F669  F0 02     BEQ $F66D                        A:52 X:02 Y:0A P:07 S:FB PPU:225,186 25636
F66D  A0 FF     LDY #$FF                         A:52 X:02 Y:0A P:07 S:FB PPU:225,195 25639
F66F  A9 29     LDA #$29                         A:52 X:02 Y:FF P:85 S:FB PPU:225,201 25641
F671  8D 47 06  STA $0647 = $52                  A:29 X:02 Y:FF P:05 S:FB PPU:225,207 25643
F674  20 FA FA  JSR $FAFA                        A:29 X:02 Y:FF P:05 S:FB PPU:225,219 25647
FAFA  B8        CLV                              A:29 X:02 Y:FF P:05 S:F9 PPU:225,237 25653
FAFB  18        CLC                              A:29 X:02 Y:FF P:05 S:F9 PPU:225,243 25655
FAFC  A9 42     LDA #$42                         A:29 X:02 Y:FF P:04 S:F9 PPU:225,249 25657
FAFE  60        RTS                              A:42 X:02 Y:FF P:04 S:F9 PPU:225,255 25659
F677  73 45     RRA ($45),Y = $29                A:42 X:02 Y:FF P:04 S:FB PPU:225,273 25665
F679  EA        NOP                              A:57 X:02 Y:FF P:04 S:FB PPU:225,297 25673
F67A  EA        NOP                              A:57 X:02 Y:FF P:04 S:FB PPU:225,303 25675
F67B  08        PHP                              A:57 X:02 Y:FF P:04 S:FB PPU:225,309 25677
F67C  48        PHA                              A:57 X:02 Y:FF P:04 S:FA PPU:225,318 25680
F67D  A0 0B     LDY #$0B                         A:57 X:02 Y:FF P:04 S:F9 PPU:225,327 25683
F67F  68        PLA                              A:57 X:02 Y:0B P:04 S:F9 PPU:225,333 25685
F680  28        PLP                              A:57 X:02 Y:0B P:04 S:FA PPU:226,4   25689
F681  20 FF FA  JSR $FAFF                        A:57 X:02 Y:0B P:04 S:FB PPU:226,16  25693
FAFF  70 1A     BVS $FB1B                        A:57 X:02 Y:0B P:04 S:F9 PPU:226,34  25699
FB01  30 18     BMI $FB1B                        A:57 X:02 Y:0B P:04 S:F9 PPU:226,40  25701
FB03  B0 16     BCS $FB1B                        A:57 X:02 Y:0B P:04 S:F9 PPU:226,46  25703
FB05  C9 57     CMP #$57                         A:57 X:02 Y:0B P:04 S:F9 PPU:226,52  25705
FB07  D0 12     BNE $FB1B                        A:57 X:02 Y:0B P:07 S:F9 PPU:226,58  25707
FB09  60        RTS                              A:57 X:02 Y:0B P:07 S:F9 PPU:226,64  25709
F684  AD 47 06  LDA $0647 = $14                  A:57 X:02 Y:0B P:07 S:FB PPU:226,82  25715
F687  C9 14     CMP #$14                         A:14 X:02 Y:0B P:05 S:FB PPU:226,94  25719
F689  F0 02     BEQ $F68D                        A:14 X:02 Y:0B P:07 S:FB PPU:226,100 25721
F68D  A0 FF     LDY #$FF                         A:14 X:02 Y:0B P:07 S:FB PPU:226,109 25724
F68F  A9 37     LDA #$37                         A:14 X:02 Y:FF P:85 S:FB PPU:226,115 25726
F691  8D 47 06  STA $0647 = $14                  A:37 X:02 Y:FF P:05 S:FB PPU:226,121 25728
F694  20 0A FB  JSR $FB0A                        A:37 X:02 Y:FF P:05 S:FB PPU:226,133 25732
FB0A  24 01     BIT $01 = $FF                    A:37 X:02 Y:FF P:05 S:F9 PPU:226,151 25738
FB0C  38        SEC                              A:37 X:02 Y:FF P:C5 S:F9 PPU:226,160 25741
FB0D  A9 75     LDA #$75                         A:37 X:02 Y:FF P:C5 S:F9 PPU:226,166 25743
FB0F  60        RTS                              A:75 X:02 Y:FF P:45 S:F9 PPU:226,172 25745
F697  73 45     RRA ($45),Y = $37                A:75 X:02 Y:FF P:45 S:FB PPU:226,190 25751
F699  EA        NOP                              A:11 X:02 Y:FF P:05 S:FB PPU:226,214 25759
F69A  EA        NOP                              A:11 X:02 Y:FF P:05 S:FB PPU:226,220 25761
F69B  08        PHP                              A:11 X:02 Y:FF P:05 S:FB PPU:226,226 25763
F69C  48        PHA                              A:11 X:02 Y:FF P:05 S:FA PPU:226,235 25766
F69D  A0 0C     LDY #$0C                         A:11 X:02 Y:FF P:05 S:F9 PPU:226,244 25769
F69F  68        PLA                              A:11 X:02 Y:0C P:05 S:F9 PPU:226,250 25771
F6A0  28        PLP                              A:11 X:02 Y:0C P:05 S:FA PPU:226,262 25775
F6A1  20 10 FB  JSR $FB10                        A:11 X:02 Y:0C P:05 S:FB PPU:226,274 25779
FB10  70 09     BVS $FB1B                        A:11 X:02 Y:0C P:05 S:F9 PPU:226,292 25785
FB12  30 07     BMI $FB1B                        A:11 X:02 Y:0C P:05 S:F9 PPU:226,298 25787
FB14  90 05     BCC $FB1B                        A:11 X:02 Y:0C P:05 S:F9 PPU:226,304 25789
FB16  C9 11     CMP #$11                         A:11 X:02 Y:0C P:05 S:F9 PPU:226,310 25791
FB18  D0 01     BNE $FB1B                        A:11 X:02 Y:0C P:07 S:F9 PPU:226,316 25793
FB1A  60        RTS                              A:11 X:02 Y:0C P:07 S:F9 PPU:226,322 25795
F6A4  AD 47 06  LDA $0647 = $9B                  A:11 X:02 Y:0C P:07 S:FB PPU:226,340 25801
F6A7  C9 9B     CMP #$9B                         A:9B X:02 Y:0C P:85 S:FB PPU:227,11  25805
F6A9  F0 02     BEQ $F6AD                        A:9B X:02 Y:0C P:07 S:FB PPU:227,17  25807
F6AD  A0 0D     LDY #$0D                         A:9B X:02 Y:0C P:07 S:FB PPU:227,26  25810
F6AF  A2 FF     LDX #$FF                         A:9B X:02 Y:0D P:05 S:FB PPU:227,32  25812
F6B1  A9 A5     LDA #$A5                         A:9B X:FF Y:0D P:85 S:FB PPU:227,38  25814
F6B3  85 47     STA $47 = $9B                    A:A5 X:FF Y:0D P:85 S:FB PPU:227,44  25816
F6B5  20 E9 FA  JSR $FAE9                        A:A5 X:FF Y:0D P:85 S:FB PPU:227,53  25819
FAE9  24 01     BIT $01 = $FF                    A:A5 X:FF Y:0D P:85 S:F9 PPU:227,71  25825
FAEB  18        CLC                              A:A5 X:FF Y:0D P:C5 S:F9 PPU:227,80  25828
FAEC  A9 B2     LDA #$B2                         A:A5 X:FF Y:0D P:C4 S:F9 PPU:227,86  25830
FAEE  60        RTS                              A:B2 X:FF Y:0D P:C4 S:F9 PPU:227,92  25832
F6B8  77 48     RRA $48,X = $A5                  A:B2 X:FF Y:0D P:C4 S:FB PPU:227,110 25838
F6BA  EA        NOP                              A:05 X:FF Y:0D P:05 S:FB PPU:227,128 25844
F6BB  EA        NOP                              A:05 X:FF Y:0D P:05 S:FB PPU:227,134 25846
F6BC  EA        NOP                              A:05 X:FF Y:0D P:05 S:FB PPU:227,140 25848
F6BD  EA        NOP                              A:05 X:FF Y:0D P:05 S:FB PPU:227,146 25850
F6BE  20 EF FA  JSR $FAEF                        A:05 X:FF Y:0D P:05 S:FB PPU:227,152 25852
FAEF  70 2A     BVS $FB1B                        A:05 X:FF Y:0D P:05 S:F9 PPU:227,170 25858
FAF1  90 28     BCC $FB1B                        A:05 X:FF Y:0D P:05 S:F9 PPU:227,176 25860
FAF3  30 26     BMI $FB1B                        A:05 X:FF Y:0D P:05 S:F9 PPU:227,182 25862
FAF5  C9 05     CMP #$05                         A:05 X:FF Y:0D P:05 S:F9 PPU:227,188 25864
FAF7  D0 22     BNE $FB1B                        A:05 X:FF Y:0D P:07 S:F9 PPU:227,194 25866
FAF9  60        RTS                              A:05 X:FF Y:0D P:07 S:F9 PPU:227,200 25868
F6C1  A5 47     LDA $47 = $52                    A:05 X:FF Y:0D P:07 S:FB PPU:227,218 25874
F6C3  C9 52     CMP #$52                         A:52 X:FF Y:0D P:05 S:FB PPU:227,227 25877
F6C5  F0 02     BEQ $F6C9                        A:52 X:FF Y:0D P:07 S:FB PPU:227,233 25879
F6C9  C8        INY                              A:52 X:FF Y:0D P:07 S:FB PPU:227,242 25882
F6CA  A9 29     LDA #$29                         A:52 X:FF Y:0E P:05 S:FB PPU:227,248 25884
F6CC  85 47     STA $47 = $52                    A:29 X:FF Y:0E P:05 S:FB PPU:227,254 25886
F6CE  20 FA FA  JSR $FAFA                        A:29 X:FF Y:0E P:05 S:FB PPU:227,263 25889
FAFA  B8        CLV                              A:29 X:FF Y:0E P:05 S:F9 PPU:227,281 25895
FAFB  18        CLC                              A:29 X:FF Y:0E P:05 S:F9 PPU:227,287 25897
FAFC  A9 42     LDA #$42                         A:29 X:FF Y:0E P:04 S:F9 PPU:227,293 25899
FAFE  60        RTS                              A:42 X:FF Y:0E P:04 S:F9 PPU:227,299 25901
F6D1  77 48     RRA $48,X = $29                  A:42 X:FF Y:0E P:04 S:FB PPU:227,317 25907
F6D3  EA        NOP                              A:57 X:FF Y:0E P:04 S:FB PPU:227,335 25913
F6D4  EA        NOP                              A:57 X:FF Y:0E P:04 S:FB PPU:228,0   25915
F6D5  EA        NOP                              A:57 X:FF Y:0E P:04 S:FB PPU:228,6   25917
F6D6  EA        NOP                              A:57 X:FF Y:0E P:04 S:FB PPU:228,12  25919
F6D7  20 FF FA  JSR $FAFF                        A:57 X:FF Y:0E P:04 S:FB PPU:228,18  25921
FAFF  70 1A     BVS $FB1B                        A:57 X:FF Y:0E P:04 S:F9 PPU:228,36  25927
FB01  30 18     BMI $FB1B                        A:57 X:FF Y:0E P:04 S:F9 PPU:228,42  25929
FB03  B0 16     BCS $FB1B                        A:57 X:FF Y:0E P:04 S:F9 PPU:228,48  25931
FB05  C9 57     CMP #$57                         A:57 X:FF Y:0E P:04 S:F9 PPU:228,54  25933
FB07  D0 12     BNE $FB1B                        A:57 X:FF Y:0E P:07 S:F9 PPU:228,60  25935
FB09  60        RTS                              A:57 X:FF Y:0E P:07 S:F9 PPU:228,66  25937
F6DA  A5 47     LDA $47 = $14                    A:57 X:FF Y:0E P:07 S:FB PPU:228,84  25943
F6DC  C9 14     CMP #$14                         A:14 X:FF Y:0E P:05 S:FB PPU:228,93  25946
F6DE  F0 02     BEQ $F6E2                        A:14 X:FF Y:0E P:07 S:FB PPU:228,99  25948
F6E2  C8        INY                              A:14 X:FF Y:0E P:07 S:FB PPU:228,108 25951
F6E3  A9 37     LDA #$37                         A:14 X:FF Y:0F P:05 S:FB PPU:228,114 25953
F6E5  85 47     STA $47 = $14                    A:37 X:FF Y:0F P:05 S:FB PPU:228,120 25955
F6E7  20 0A FB  JSR $FB0A                        A:37 X:FF Y:0F P:05 S:FB PPU:228,129 25958
FB0A  24 01     BIT $01 = $FF                    A:37 X:FF Y:0F P:05 S:F9 PPU:228,147 25964
FB0C  38        SEC                              A:37 X:FF Y:0F P:C5 S:F9 PPU:228,156 25967
FB0D  A9 75     LDA #$75                         A:37 X:FF Y:0F P:C5 S:F9 PPU:228,162 25969
FB0F  60        RTS                              A:75 X:FF Y:0F P:45 S:F9 PPU:228,168 25971
F6EA  77 48     RRA $48,X = $37                  A:75 X:FF Y:0F P:45 S:FB PPU:228,186 25977
F6EC  EA        NOP                              A:11 X:FF Y:0F P:05 S:FB PPU:228,204 25983
F6ED  EA        NOP                              A:11 X:FF Y:0F P:05 S:FB PPU:228,210 25985
F6EE  EA        NOP                              A:11 X:FF Y:0F P:05 S:FB PPU:228,216 25987
F6EF  EA        NOP                              A:11 X:FF Y:0F P:05 S:FB PPU:228,222 25989
F6F0  20 10 FB  JSR $FB10                        A:11 X:FF Y:0F P:05 S:FB PPU:228,228 25991
FB10  70 09     BVS $FB1B                        A:11 X:FF Y:0F P:05 S:F9 PPU:228,246 25997
FB12  30 07     BMI $FB1B                        A:11 X:FF Y:0F P:05 S:F9 PPU:228,252 25999
FB14  90 05     BCC $FB1B                        A:11 X:FF Y:0F P:05 S:F9 PPU:228,258 26001
FB16  C9 11     CMP #$11                         A:11 X:FF Y:0F P:05 S:F9 PPU:228,264 26003
FB18  D0 01     BNE $FB1B                        A:11 X:FF Y:0F P:07 S:F9 PPU:228,270 26005
FB1A  60        RTS                              A:11 X:FF Y:0F P:07 S:F9 PPU:228,276 26007
F6F3  A5 47     LDA $47 = $9B                    A:11 X:FF Y:0F P:07 S:FB PPU:228,294 26013
F6F5  C9 9B     CMP #$9B                         A:9B X:FF Y:0F P:85 S:FB PPU:228,303 26016
F6F7  F0 02     BEQ $F6FB                        A:9B X:FF Y:0F P:07 S:FB PPU:228,309 26018
F6FB  A9 A5     LDA #$A5                         A:9B X:FF Y:0F P:07 S:FB PPU:228,318 26021
F6FD  8D 47 06  STA $0647 = $9B                  A:A5 X:FF Y:0F P:85 S:FB PPU:228,324 26023
F700  A0 FF     LDY #$FF                         A:A5 X:FF Y:0F P:85 S:FB PPU:228,336 26027
F702  20 E9 FA  JSR $FAE9                        A:A5 X:FF Y:FF P:85 S:FB PPU:229,1   26029
FAE9  24 01     BIT $01 = $FF                    A:A5 X:FF Y:FF P:85 S:F9 PPU:229,19  26035
FAEB  18        CLC                              A:A5 X:FF Y:FF P:C5 S:F9 PPU:229,28  26038
FAEC  A9 B2     LDA #$B2                         A:A5 X:FF Y:FF P:C4 S:F9 PPU:229,34  26040
FAEE  60        RTS                              A:B2 X:FF Y:FF P:C4 S:F9 PPU:229,40  26042
F705  7B 48 05  RRA $0548,Y = $A5                A:B2 X:FF Y:FF P:C4 S:FB PPU:229,58  26048
F708  EA        NOP                              A:05 X:FF Y:FF P:05 S:FB PPU:229,79  26055
F709  EA        NOP                              A:05 X:FF Y:FF P:05 S:FB PPU:229,85  26057
F70A  08        PHP                              A:05 X:FF Y:FF P:05 S:FB PPU:229,91  26059
F70B  48        PHA                              A:05 X:FF Y:FF P:05 S:FA PPU:229,100 26062
F70C  A0 10     LDY #$10                         A:05 X:FF Y:FF P:05 S:F9 PPU:229,109 26065
F70E  68        PLA                              A:05 X:FF Y:10 P:05 S:F9 PPU:229,115 26067
F70F  28        PLP                              A:05 X:FF Y:10 P:05 S:FA PPU:229,127 26071
F710  20 EF FA  JSR $FAEF                        A:05 X:FF Y:10 P:05 S:FB PPU:229,139 26075
FAEF  70 2A     BVS $FB1B                        A:05 X:FF Y:10 P:05 S:F9 PPU:229,157 26081
FAF1  90 28     BCC $FB1B                        A:05 X:FF Y:10 P:05 S:F9 PPU:229,163 26083
FAF3  30 26     BMI $FB1B                        A:05 X:FF Y:10 P:05 S:F9 PPU:229,169 26085
FAF5  C9 05     CMP #$05                         A:05 X:FF Y:10 P:05 S:F9 PPU:229,175 26087
FAF7  D0 22     BNE $FB1B                        A:05 X:FF Y:10 P:07 S:F9 PPU:229,181 26089
FAF9  60        RTS                              A:05 X:FF Y:10 P:07 S:F9 PPU:229,187 26091
F713  AD 47 06  LDA $0647 = $52                  A:05 X:FF Y:10 P:07 S:FB PPU:229,205 26097
F716  C9 52     CMP #$52                         A:52 X:FF Y:10 P:05 S:FB PPU:229,217 26101
F718  F0 02     BEQ $F71C                        A:52 X:FF Y:10 P:07 S:FB PPU:229,223 26103
F71C  A0 FF     LDY #$FF                         A:52 X:FF Y:10 P:07 S:FB PPU:229,232 26106
F71E  A9 29     LDA #$29                         A:52 X:FF Y:FF P:85 S:FB PPU:229,238 26108
F720  8D 47 06  STA $0647 = $52                  A:29 X:FF Y:FF P:05 S:FB PPU:229,244 26110
F723  20 FA FA  JSR $FAFA                        A:29 X:FF Y:FF P:05 S:FB PPU:229,256 26114
FAFA  B8        CLV                              A:29 X:FF Y:FF P:05 S:F9 PPU:229,274 26120
FAFB  18        CLC                              A:29 X:FF Y:FF P:05 S:F9 PPU:229,280 26122
FAFC  A9 42     LDA #$42                         A:29 X:FF Y:FF P:04 S:F9 PPU:229,286 26124
FAFE  60        RTS                              A:42 X:FF Y:FF P:04 S:F9 PPU:229,292 26126
F726  7B 48 05  RRA $0548,Y = $29                A:42 X:FF Y:FF P:04 S:FB PPU:229,310 26132
F729  EA        NOP                              A:57 X:FF Y:FF P:04 S:FB PPU:229,331 26139
F72A  EA        NOP                              A:57 X:FF Y:FF P:04 S:FB PPU:229,337 26141
F72B  08        PHP                              A:57 X:FF Y:FF P:04 S:FB PPU:230,2   26143
F72C  48        PHA                              A:57 X:FF Y:FF P:04 S:FA PPU:230,11  26146
F72D  A0 11     LDY #$11                         A:57 X:FF Y:FF P:04 S:F9 PPU:230,20  26149
F72F  68        PLA                              A:57 X:FF Y:11 P:04 S:F9 PPU:230,26  26151
F730  28        PLP                              A:57 X:FF Y:11 P:04 S:FA PPU:230,38  26155
F731  20 FF FA  JSR $FAFF                        A:57 X:FF Y:11 P:04 S:FB PPU:230,50  26159
FAFF  70 1A     BVS $FB1B                        A:57 X:FF Y:11 P:04 S:F9 PPU:230,68  26165
FB01  30 18     BMI $FB1B                        A:57 X:FF Y:11 P:04 S:F9 PPU:230,74  26167
FB03  B0 16     BCS $FB1B                        A:57 X:FF Y:11 P:04 S:F9 PPU:230,80  26169
FB05  C9 57     CMP #$57                         A:57 X:FF Y:11 P:04 S:F9 PPU:230,86  26171
FB07  D0 12     BNE $FB1B                        A:57 X:FF Y:11 P:07 S:F9 PPU:230,92  26173
FB09  60        RTS                              A:57 X:FF Y:11 P:07 S:F9 PPU:230,98  26175
F734  AD 47 06  LDA $0647 = $14                  A:57 X:FF Y:11 P:07 S:FB PPU:230,116 26181
F737  C9 14     CMP #$14                         A:14 X:FF Y:11 P:05 S:FB PPU:230,128 26185
F739  F0 02     BEQ $F73D                        A:14 X:FF Y:11 P:07 S:FB PPU:230,134 26187
F73D  A0 FF     LDY #$FF                         A:14 X:FF Y:11 P:07 S:FB PPU:230,143 26190
F73F  A9 37     LDA #$37                         A:14 X:FF Y:FF P:85 S:FB PPU:230,149 26192
F741  8D 47 06  STA $0647 = $14                  A:37 X:FF Y:FF P:05 S:FB PPU:230,155 26194
F744  20 0A FB  JSR $FB0A                        A:37 X:FF Y:FF P:05 S:FB PPU:230,167 26198
FB0A  24 01     BIT $01 = $FF                    A:37 X:FF Y:FF P:05 S:F9 PPU:230,185 26204
FB0C  38        SEC                              A:37 X:FF Y:FF P:C5 S:F9 PPU:230,194 26207
FB0D  A9 75     LDA #$75                         A:37 X:FF Y:FF P:C5 S:F9 PPU:230,200 26209
FB0F  60        RTS                              A:75 X:FF Y:FF P:45 S:F9 PPU:230,206 26211
F747  7B 48 05  RRA $0548,Y = $37                A:75 X:FF Y:FF P:45 S:FB PPU:230,224 26217
F74A  EA        NOP                              A:11 X:FF Y:FF P:05 S:FB PPU:230,245 26224
F74B  EA        NOP                              A:11 X:FF Y:FF P:05 S:FB PPU:230,251 26226
F74C  08        PHP                              A:11 X:FF Y:FF P:05 S:FB PPU:230,257 26228
F74D  48        PHA                              A:11 X:FF Y:FF P:05 S:FA PPU:230,266 26231
F74E  A0 12     LDY #$12                         A:11 X:FF Y:FF P:05 S:F9 PPU:230,275 26234
F750  68        PLA                              A:11 X:FF Y:12 P:05 S:F9 PPU:230,281 26236
F751  28        PLP                              A:11 X:FF Y:12 P:05 S:FA PPU:230,293 26240
F752  20 10 FB  JSR $FB10                        A:11 X:FF Y:12 P:05 S:FB PPU:230,305 26244
FB10  70 09     BVS $FB1B                        A:11 X:FF Y:12 P:05 S:F9 PPU:230,323 26250
FB12  30 07     BMI $FB1B                        A:11 X:FF Y:12 P:05 S:F9 PPU:230,329 26252
FB14  90 05     BCC $FB1B                        A:11 X:FF Y:12 P:05 S:F9 PPU:230,335 26254
FB16  C9 11     CMP #$11                         A:11 X:FF Y:12 P:05 S:F9 PPU:231,0   26256
FB18  D0 01     BNE $FB1B                        A:11 X:FF Y:12 P:07 S:F9 PPU:231,6   26258
FB1A  60        RTS                              A:11 X:FF Y:12 P:07 S:F9 PPU:231,12  26260
F755  AD 47 06  LDA $0647 = $9B                  A:11 X:FF Y:12 P:07 S:FB PPU:231,30  26266
F758  C9 9B     CMP #$9B                         A:9B X:FF Y:12 P:85 S:FB PPU:231,42  26270
F75A  F0 02     BEQ $F75E                        A:9B X:FF Y:12 P:07 S:FB PPU:231,48  26272
F75E  A0 13     LDY #$13                         A:9B X:FF Y:12 P:07 S:FB PPU:231,57  26275
F760  A2 FF     LDX #$FF                         A:9B X:FF Y:13 P:05 S:FB PPU:231,63  26277
F762  A9 A5     LDA #$A5                         A:9B X:FF Y:13 P:85 S:FB PPU:231,69  26279
F764  8D 47 06  STA $0647 = $9B                  A:A5 X:FF Y:13 P:85 S:FB PPU:231,75  26281
F767  20 E9 FA  JSR $FAE9                        A:A5 X:FF Y:13 P:85 S:FB PPU:231,87  26285
FAE9  24 01     BIT $01 = $FF                    A:A5 X:FF Y:13 P:85 S:F9 PPU:231,105 26291
FAEB  18        CLC                              A:A5 X:FF Y:13 P:C5 S:F9 PPU:231,114 26294
FAEC  A9 B2     LDA #$B2                         A:A5 X:FF Y:13 P:C4 S:F9 PPU:231,120 26296
FAEE  60        RTS                              A:B2 X:FF Y:13 P:C4 S:F9 PPU:231,126 26298
F76A  7F 48 05  RRA $0548,X = $A5                A:B2 X:FF Y:13 P:C4 S:FB PPU:231,144 26304
F76D  EA        NOP                              A:05 X:FF Y:13 P:05 S:FB PPU:231,165 26311
F76E  EA        NOP                              A:05 X:FF Y:13 P:05 S:FB PPU:231,171 26313
F76F  EA        NOP                              A:05 X:FF Y:13 P:05 S:FB PPU:231,177 26315
F770  EA        NOP                              A:05 X:FF Y:13 P:05 S:FB PPU:231,183 26317
F771  20 EF FA  JSR $FAEF                        A:05 X:FF Y:13 P:05 S:FB PPU:231,189 26319
FAEF  70 2A     BVS $FB1B                        A:05 X:FF Y:13 P:05 S:F9 PPU:231,207 26325
FAF1  90 28     BCC $FB1B                        A:05 X:FF Y:13 P:05 S:F9 PPU:231,213 26327
FAF3  30 26     BMI $FB1B                        A:05 X:FF Y:13 P:05 S:F9 PPU:231,219 26329
FAF5  C9 05     CMP #$05                         A:05 X:FF Y:13 P:05 S:F9 PPU:231,225 26331
FAF7  D0 22     BNE $FB1B                        A:05 X:FF Y:13 P:07 S:F9 PPU:231,231 26333
FAF9  60        RTS                              A:05 X:FF Y:13 P:07 S:F9 PPU:231,237 26335
F774  AD 47 06  LDA $0647 = $52                  A:05 X:FF Y:13 P:07 S:FB PPU:231,255 26341
F777  C9 52     CMP #$52                         A:52 X:FF Y:13 P:05 S:FB PPU:231,267 26345
F779  F0 02     BEQ $F77D                        A:52 X:FF Y:13 P:07 S:FB PPU:231,273 26347
F77D  C8        INY                              A:52 X:FF Y:13 P:07 S:FB PPU:231,282 26350
F77E  A9 29     LDA #$29                         A:52 X:FF Y:14 P:05 S:FB PPU:231,288 26352
F780  8D 47 06  STA $0647 = $52                  A:29 X:FF Y:14 P:05 S:FB PPU:231,294 26354
F783  20 FA FA  JSR $FAFA                        A:29 X:FF Y:14 P:05 S:FB PPU:231,306 26358
FAFA  B8        CLV                              A:29 X:FF Y:14 P:05 S:F9 PPU:231,324 26364
FAFB  18        CLC                              A:29 X:FF Y:14 P:05 S:F9 PPU:231,330 26366
FAFC  A9 42     LDA #$42                         A:29 X:FF Y:14 P:04 S:F9 PPU:231,336 26368
FAFE  60        RTS                              A:42 X:FF Y:14 P:04 S:F9 PPU:232,1   26370
F786  7F 48 05  RRA $0548,X = $29                A:42 X:FF Y:14 P:04 S:FB PPU:232,19  26376
F789  EA        NOP                              A:57 X:FF Y:14 P:04 S:FB PPU:232,40  26383
F78A  EA        NOP                              A:57 X:FF Y:14 P:04 S:FB PPU:232,46  26385
F78B  EA        NOP                              A:57 X:FF Y:14 P:04 S:FB PPU:232,52  26387
F78C  EA        NOP                              A:57 X:FF Y:14 P:04 S:FB PPU:232,58  26389
F78D  20 FF FA  JSR $FAFF                        A:57 X:FF Y:14 P:04 S:FB PPU:232,64  26391
FAFF  70 1A     BVS $FB1B                        A:57 X:FF Y:14 P:04 S:F9 PPU:232,82  26397
FB01  30 18     BMI $FB1B                        A:57 X:FF Y:14 P:04 S:F9 PPU:232,88  26399
FB03  B0 16     BCS $FB1B                        A:57 X:FF Y:14 P:04 S:F9 PPU:232,94  26401
FB05  C9 57     CMP #$57                         A:57 X:FF Y:14 P:04 S:F9 PPU:232,100 26403
FB07  D0 12     BNE $FB1B                        A:57 X:FF Y:14 P:07 S:F9 PPU:232,106 26405
FB09  60        RTS                              A:57 X:FF Y:14 P:07 S:F9 PPU:232,112 26407
F790  AD 47 06  LDA $0647 = $14                  A:57 X:FF Y:14 P:07 S:FB PPU:232,130 26413
F793  C9 14     CMP #$14                         A:14 X:FF Y:14 P:05 S:FB PPU:232,142 26417
F795  F0 02     BEQ $F799                        A:14 X:FF Y:14 P:07 S:FB PPU:232,148 26419
F799  C8        INY                              A:14 X:FF Y:14 P:07 S:FB PPU:232,157 26422
F79A  A9 37     LDA #$37                         A:14 X:FF Y:15 P:05 S:FB PPU:232,163 26424
F79C  8D 47 06  STA $0647 = $14                  A:37 X:FF Y:15 P:05 S:FB PPU:232,169 26426
F79F  20 0A FB  JSR $FB0A                        A:37 X:FF Y:15 P:05 S:FB PPU:232,181 26430
FB0A  24 01     BIT $01 = $FF                    A:37 X:FF Y:15 P:05 S:F9 PPU:232,199 26436
FB0C  38        SEC                              A:37 X:FF Y:15 P:C5 S:F9 PPU:232,208 26439
FB0D  A9 75     LDA #$75                         A:37 X:FF Y:15 P:C5 S:F9 PPU:232,214 26441
FB0F  60        RTS                              A:75 X:FF Y:15 P:45 S:F9 PPU:232,220 26443
F7A2  7F 48 05  RRA $0548,X = $37                A:75 X:FF Y:15 P:45 S:FB PPU:232,238 26449
F7A5  EA        NOP                              A:11 X:FF Y:15 P:05 S:FB PPU:232,259 26456
F7A6  EA        NOP                              A:11 X:FF Y:15 P:05 S:FB PPU:232,265 26458
F7A7  EA        NOP                              A:11 X:FF Y:15 P:05 S:FB PPU:232,271 26460
F7A8  EA        NOP                              A:11 X:FF Y:15 P:05 S:FB PPU:232,277 26462
F7A9  20 10 FB  JSR $FB10                        A:11 X:FF Y:15 P:05 S:FB PPU:232,283 26464
FB10  70 09     BVS $FB1B                        A:11 X:FF Y:15 P:05 S:F9 PPU:232,301 26470
FB12  30 07     BMI $FB1B                        A:11 X:FF Y:15 P:05 S:F9 PPU:232,307 26472
FB14  90 05     BCC $FB1B                        A:11 X:FF Y:15 P:05 S:F9 PPU:232,313 26474
FB16  C9 11     CMP #$11                         A:11 X:FF Y:15 P:05 S:F9 PPU:232,319 26476
FB18  D0 01     BNE $FB1B                        A:11 X:FF Y:15 P:07 S:F9 PPU:232,325 26478
FB1A  60        RTS                              A:11 X:FF Y:15 P:07 S:F9 PPU:232,331 26480
F7AC  AD 47 06  LDA $0647 = $9B                  A:11 X:FF Y:15 P:07 S:FB PPU:233,8   26486
F7AF  C9 9B     CMP #$9B                         A:9B X:FF Y:15 P:85 S:FB PPU:233,20  26490
F7B1  F0 02     BEQ $F7B5                        A:9B X:FF Y:15 P:07 S:FB PPU:233,26  26492
F7B5  60        RTS                              A:9B X:FF Y:15 P:07 S:FB PPU:233,35  26495
C655  A5 00     LDA $00 = $00                    A:9B X:FF Y:15 P:07 S:FD PPU:233,53  26501
C657  05 10     ORA $10 = $00                    A:00 X:FF Y:15 P:07 S:FD PPU:233,62  26504
C659  05 11     ORA $11 = $00                    A:00 X:FF Y:15 P:07 S:FD PPU:233,71  26507
C65B  F0 0E     BEQ $C66B                        A:00 X:FF Y:15 P:07 S:FD PPU:233,80  26510
C66B  20 89 C6  JSR $C689                        A:00 X:FF Y:15 P:07 S:FD PPU:233,89  26513
C689  A9 02     LDA #$02                         A:00 X:FF Y:15 P:07 S:FB PPU:233,107 26519
C68B  8D 15 40  STA $4015 = $00                  A:02 X:FF Y:15 P:05 S:FB PPU:233,113 26521
C68E  A9 3F     LDA #$3F                         A:02 X:FF Y:15 P:05 S:FB PPU:233,125 26525
C690  8D 04 40  STA $4004 = $40                  A:3F X:FF Y:15 P:05 S:FB PPU:233,131 26527
C693  A9 9A     LDA #$9A                         A:3F X:FF Y:15 P:05 S:FB PPU:233,143 26531
C695  8D 05 40  STA $4005 = $40                  A:9A X:FF Y:15 P:85 S:FB PPU:233,149 26533
C698  A9 FF     LDA #$FF                         A:9A X:FF Y:15 P:85 S:FB PPU:233,161 26537
C69A  8D 06 40  STA $4006 = $40                  A:FF X:FF Y:15 P:85 S:FB PPU:233,167 26539
C69D  A9 00     LDA #$00                         A:FF X:FF Y:15 P:85 S:FB PPU:233,179 26543
C69F  8D 07 40  STA $4007 = $40                  A:00 X:FF Y:15 P:07 S:FB PPU:233,185 26545
C6A2  60        RTS                              A:00 X:FF Y:15 P:07 S:FB PPU:233,197 26549
C66E  60        RTS                              A:00 X:FF Y:15 P:07 S:FD PPU:233,215 26555
0001  FF 00 00  ISC $0000,X = $46                A:00 X:FF Y:15 P:07 S:FF PPU:233,233 26561
0004  00        BRK                              A:B9 X:FF Y:15 P:84 S:FF PPU:233,254 26568
C5F4  40        RTI                              A:B9 X:FF Y:15 P:84 S:FC PPU:233,275 26575
0006  00        BRK                              A:B9 X:FF Y:15 P:84 S:FF PPU:233,293 26581
C5F4  40        RTI                              A:B9 X:FF Y:15 P:84 S:FC PPU:233,314 26588
0008  00        BRK                              A:B9 X:FF Y:15 P:84 S:FF PPU:233,332 26594
C5F4  40        RTI                              A:B9 X:FF Y:15 P:84 S:FC PPU:234,12  26601
000A  00        BRK                              A:B9 X:FF Y:15 P:84 S:FF PPU:234,30  26607
C5F4  40        RTI                              A:B9 X:FF Y:15 P:84 S:FC PPU:234,51  26614
000C  00        BRK                              A:B9 X:FF Y:15 P:84 S:FF PPU:234,69  26620
C5F4  40        RTI                              A:B9 X:FF Y:15 P:84 S:FC PPU:234,90  26627
000E  00        BRK                              A:B9 X:FF Y:15 P:84 S:FF PPU:234,108 26633
C5F4  40        RTI                              A:B9 X:FF Y:15 P:84 S:FC PPU:234,129 26640
0010  00        BRK                              A:B9 X:FF Y:15 P:84 S:FF PPU:234,147 26646
C5F4  40        RTI                              A:B9 X:FF Y:15 P:84 S:FC PPU:234,168 26653
0012  00        BRK                              A:B9 X:FF Y:15 P:84 S:FF PPU:234,186 26659
C5F4  40        RTI                              A:B9 X:FF Y:15 P:84 S:FC PPU:234,207 26666
0014  00        BRK                              A:B9 X:FF Y:15 P:84 S:FF PPU:234,225 26672
C5F4  40        RTI                              A:B9 X:FF Y:15 P:84 S:FC PPU:234,246 26679
0016  00        BRK                              A:B9 X:FF Y:15 P:84 S:FF PPU:234,264 26685
C5F4  40        RTI                              A:B9 X:FF Y:15 P:84 S:FC PPU:234,285 26692
0018  00        BRK                              A:B9 X:FF Y:15 P:84 S:FF PPU:234,303 26698
C5F4  40        RTI                              A:B9 X:FF Y:15 P:84 S:FC PPU:234,324 26705
001A  00        BRK                              A:B9 X:FF Y:15 P:84 S:FF PPU:235,1   26711
C5F4  40        RTI                              A:B9 X:FF Y:15 P:84 S:FC PPU:235,22  26718
001C  00        BRK                              A:B9 X:FF Y:15 P:84 S:FF PPU:235,40  26724
C5F4  40        RTI                              A:B9 X:FF Y:15 P:84 S:FC PPU:235,61  26731
001E  00        BRK                              A:B9 X:FF Y:15 P:84 S:FF PPU:235,79  26737
C5F4  40        RTI                              A:B9 X:FF Y:15 P:84 S:FC PPU:235,100 26744
0020  00        BRK                              A:B9 X:FF Y:15 P:84 S:FF PPU:235,118 26750
C5F4  40        RTI                              A:B9 X:FF Y:15 P:84 S:FC PPU:235,139 26757
0022  00        BRK                              A:B9 X:FF Y:15 P:84 S:FF PPU:235,157 26763
C5F4  40        RTI                              A:B9 X:FF Y:15 P:84 S:FC PPU:235,178 26770
0024  00        BRK                              A:B9 X:FF Y:15 P:84 S:FF PPU:235,196 26776
C5F4  40        RTI                              A:B9 X:FF Y:15 P:84 S:FC PPU:235,217 26783
0026  00        BRK                              A:B9 X:FF Y:15 P:84 S:FF PPU:235,235 26789
C5F4  40        RTI                              A:B9 X:FF Y:15 P:84 S:FC PPU:235,256 26796
0028  00        BRK                              A:B9 X:FF Y:15 P:84 S:FF PPU:235,274 26802
C5F4  40        RTI                              A:B9 X:FF Y:15 P:84 S:FC PPU:235,295 26809
002A  00        BRK                              A:B9 X:FF Y:15 P:84 S:FF PPU:235,313 26815
C5F4  40        RTI                              A:B9 X:FF Y:15 P:84 S:FC PPU:235,334 26822
002C  00        BRK                              A:B9 X:FF Y:15 P:84 S:FF PPU:236,11  26828
C5F4  40        RTI                              A:B9 X:FF Y:15 P:84 S:FC PPU:236,32  26835
002E  00        BRK                              A:B9 X:FF Y:15 P:84 S:FF PPU:236,50  26841
C5F4  40        RTI                              A:B9 X:FF Y:15 P:84 S:FC PPU:236,71  26848
0030  00        BRK                              A:B9 X:FF Y:15 P:84 S:FF PPU:236,89  26854
C5F4  40        RTI                              A:B9 X:FF Y:15 P:84 S:FC PPU:236,110 26861
0032  00        BRK                              A:B9 X:FF Y:15 P:84 S:FF PPU:236,128 26867
C5F4  40        RTI                              A:B9 X:FF Y:15 P:84 S:FC PPU:236,149 26874
0034  04 00     NOP $00 = $00                    A:B9 X:FF Y:15 P:84 S:FF PPU:236,167 26880
0036  00        BRK                              A:B9 X:FF Y:15 P:84 S:FF PPU:236,176 26883
C5F4  40        RTI                              A:B9 X:FF Y:15 P:84 S:FC PPU:236,197 26890
0038  00        BRK                              A:B9 X:FF Y:15 P:84 S:FF PPU:236,215 26896
C5F4  40        RTI                              A:B9 X:FF Y:15 P:84 S:FC PPU:236,236 26903
003A  00        BRK                              A:B9 X:FF Y:15 P:84 S:FF PPU:236,254 26909
C5F4  40        RTI                              A:B9 X:FF Y:15 P:84 S:FC PPU:236,275 26916
003C  00        BRK                              A:B9 X:FF Y:15 P:84 S:FF PPU:236,293 26922
C5F4  40        RTI                              A:B9 X:FF Y:15 P:84 S:FC PPU:236,314 26929
003E  00        BRK                              A:B9 X:FF Y:15 P:84 S:FF PPU:236,332 26935
C5F4  40        RTI                              A:B9 X:FF Y:15 P:84 S:FC PPU:237,12  26942
0040  00        BRK                              A:B9 X:FF Y:15 P:84 S:FF PPU:237,30  26948
C5F4  40        RTI                              A:B9 X:FF Y:15 P:84 S:FC PPU:237,51  26955
0042  00        BRK                              A:B9 X:FF Y:15 P:84 S:FF PPU:237,69  26961
C5F4  40        RTI                              A:B9 X:FF Y:15 P:84 S:FC PPU:237,90  26968
0044  04 48     NOP $48 = $06                    A:B9 X:FF Y:15 P:84 S:FF PPU:237,108 26974
0046  05 9B     ORA $9B = $00                    A:B9 X:FF Y:15 P:84 S:FF PPU:237,117 26977
0048  06 00     ASL $00 = $00                    A:B9 X:FF Y:15 P:84 S:FF PPU:237,126 26980
004A  00        BRK                              A:B9 X:FF Y:15 P:06 S:FF PPU:237,141 26985
C5F4  40        RTI                              A:B9 X:FF Y:15 P:06 S:FC PPU:237,162 26992
004C  00        BRK                              A:B9 X:FF Y:15 P:06 S:FF PPU:237,180 26998
C5F4  40        RTI                              A:B9 X:FF Y:15 P:06 S:FC PPU:237,201 27005
004E  00        BRK                              A:B9 X:FF Y:15 P:06 S:FF PPU:237,219 27011
C5F4  40        RTI                              A:B9 X:FF Y:15 P:06 S:FC PPU:237,240 27018
0050  00        BRK                              A:B9 X:FF Y:15 P:06 S:FF PPU:237,258 27024
C5F4  40        RTI                              A:B9 X:FF Y:15 P:06 S:FC PPU:237,279 27031
0052  00        BRK                              A:B9 X:FF Y:15 P:06 S:FF PPU:237,297 27037
C5F4  40        RTI                              A:B9 X:FF Y:15 P:06 S:FC PPU:237,318 27044
0054  00        BRK                              A:B9 X:FF Y:15 P:06 S:FF PPU:237,336 27050
C5F4  40        RTI                              A:B9 X:FF Y:15 P:06 S:FC PPU:238,16  27057
0056  66 00     ROR $00 = $00                    A:B9 X:FF Y:15 P:06 S:FF PPU:238,34  27063
0058  00        BRK                              A:B9 X:FF Y:15 P:06 S:FF PPU:238,49  27068
C5F4  40        RTI                              A:B9 X:FF Y:15 P:06 S:FC PPU:238,70  27075
005A  00        BRK                              A:B9 X:FF Y:15 P:06 S:FF PPU:238,88  27081
C5F4  40        RTI                              A:B9 X:FF Y:15 P:06 S:FC PPU:238,109 27088
005C  00        BRK                              A:B9 X:FF Y:15 P:06 S:FF PPU:238,127 27094
C5F4  40        RTI                              A:B9 X:FF Y:15 P:06 S:FC PPU:238,148 27101
005E  00        BRK                              A:B9 X:FF Y:15 P:06 S:FF PPU:238,166 27107
C5F4  40        RTI                              A:B9 X:FF Y:15 P:06 S:FC PPU:238,187 27114
0060  89 04     NOP #$04                         A:B9 X:FF Y:15 P:06 S:FF PPU:238,205 27120
0062  00        BRK                              A:B9 X:FF Y:15 P:06 S:FF PPU:238,211 27122
C5F4  40        RTI                              A:B9 X:FF Y:15 P:06 S:FC PPU:238,232 27129
0064  00        BRK                              A:B9 X:FF Y:15 P:06 S:FF PPU:238,250 27135
C5F4  40        RTI                              A:B9 X:FF Y:15 P:06 S:FC PPU:238,271 27142
0066  00        BRK                              A:B9 X:FF Y:15 P:06 S:FF PPU:238,289 27148
C5F4  40        RTI                              A:B9 X:FF Y:15 P:06 S:FC PPU:238,310 27155
0068  32        STP                              A:B9 X:FF Y:15 P:06 S:FF PPU:238,328 27161
